
app/out/app.elf:     file format elf32-littlearm
app/out/app.elf
architecture: armv7e-m, flags 0x00000112:
EXEC_P, HAS_SYMS, D_PAGED
start address 0x1a00521d

Program Header:
0x70000001 off    0x000179ac vaddr 0x1a0079ac paddr 0x1a0079ac align 2**2
         filesz 0x00000008 memsz 0x00000008 flags r--
    LOAD off    0x00000000 vaddr 0x10000000 paddr 0x10000000 align 2**16
         filesz 0x000000b4 memsz 0x00000c60 flags rw-
    LOAD off    0x00010000 vaddr 0x1a000000 paddr 0x1a000000 align 2**16
         filesz 0x000079b4 memsz 0x000079b4 flags r-x
    LOAD off    0x00020000 vaddr 0x10000000 paddr 0x1a0079b4 align 2**16
         filesz 0x0000013c memsz 0x0000013c flags rw-
private flags = 5000400: [Version5 EABI] [hard-float ABI]

Sections:
Idx Name          Size      VMA       LMA       File off  Algn
  0 .text         000079ac  1a000000  1a000000  00010000  2**4
                  CONTENTS, ALLOC, LOAD, READONLY, CODE
  1 .data         0000013c  10000000  1a0079b4  00020000  2**2
                  CONTENTS, ALLOC, LOAD, DATA
  2 .data_RAM2    00000000  10080000  10080000  0002013c  2**2
                  CONTENTS
  3 .data_RAM3    00000000  20000000  20000000  0002013c  2**2
                  CONTENTS
  4 .data_RAM4    00000000  20008000  20008000  0002013c  2**2
                  CONTENTS
  5 .data_RAM5    00000000  2000c000  2000c000  0002013c  2**2
                  CONTENTS
  6 .bss          00000b20  10000140  10000140  00000140  2**3
                  ALLOC
  7 .bss_RAM2     00000000  10080000  10080000  0002013c  2**2
                  CONTENTS
  8 .bss_RAM3     00000000  20000000  20000000  0002013c  2**2
                  CONTENTS
  9 .bss_RAM4     00000000  20008000  20008000  0002013c  2**2
                  CONTENTS
 10 .bss_RAM5     00000000  2000c000  2000c000  0002013c  2**2
                  CONTENTS
 11 .ARM.exidx    00000008  1a0079ac  1a0079ac  000179ac  2**2
                  CONTENTS, ALLOC, LOAD, READONLY, DATA
 12 .uninit_RESERVED 00000000  10000000  10000000  0002013c  2**2
                  CONTENTS
 13 .noinit_RAM2  00000000  10080000  10080000  0002013c  2**2
                  CONTENTS
 14 .noinit_RAM3  00000000  20000000  20000000  0002013c  2**2
                  CONTENTS
 15 .noinit_RAM4  00000000  20008000  20008000  0002013c  2**2
                  CONTENTS
 16 .noinit_RAM5  00000000  2000c000  2000c000  0002013c  2**2
                  CONTENTS
 17 .noinit       00000000  10000c60  10000c60  0002013c  2**2
                  CONTENTS
 18 .debug_info   0002ddb6  00000000  00000000  0002013c  2**0
                  CONTENTS, READONLY, DEBUGGING, OCTETS
 19 .debug_abbrev 00006588  00000000  00000000  0004def2  2**0
                  CONTENTS, READONLY, DEBUGGING, OCTETS
 20 .debug_loc    00013a68  00000000  00000000  0005447a  2**0
                  CONTENTS, READONLY, DEBUGGING, OCTETS
 21 .debug_aranges 00000fd0  00000000  00000000  00067ee2  2**0
                  CONTENTS, READONLY, DEBUGGING, OCTETS
 22 .debug_ranges 00001068  00000000  00000000  00068eb2  2**0
                  CONTENTS, READONLY, DEBUGGING, OCTETS
 23 .debug_macro  0000e161  00000000  00000000  00069f1a  2**0
                  CONTENTS, READONLY, DEBUGGING, OCTETS
 24 .debug_line   0001d915  00000000  00000000  0007807b  2**0
                  CONTENTS, READONLY, DEBUGGING, OCTETS
 25 .debug_str    000253e5  00000000  00000000  00095990  2**0
                  CONTENTS, READONLY, DEBUGGING, OCTETS
 26 .comment      0000004c  00000000  00000000  000bad75  2**0
                  CONTENTS, READONLY
 27 .ARM.attributes 00000032  00000000  00000000  000badc1  2**0
                  CONTENTS, READONLY
 28 .debug_frame  00003094  00000000  00000000  000badf4  2**2
                  CONTENTS, READONLY, DEBUGGING, OCTETS
SYMBOL TABLE:
1a000000 l    d  .text	00000000 .text
10000000 l    d  .data	00000000 .data
10080000 l    d  .data_RAM2	00000000 .data_RAM2
20000000 l    d  .data_RAM3	00000000 .data_RAM3
20008000 l    d  .data_RAM4	00000000 .data_RAM4
2000c000 l    d  .data_RAM5	00000000 .data_RAM5
10000140 l    d  .bss	00000000 .bss
10080000 l    d  .bss_RAM2	00000000 .bss_RAM2
20000000 l    d  .bss_RAM3	00000000 .bss_RAM3
20008000 l    d  .bss_RAM4	00000000 .bss_RAM4
2000c000 l    d  .bss_RAM5	00000000 .bss_RAM5
1a0079ac l    d  .ARM.exidx	00000000 .ARM.exidx
10000000 l    d  .uninit_RESERVED	00000000 .uninit_RESERVED
10080000 l    d  .noinit_RAM2	00000000 .noinit_RAM2
20000000 l    d  .noinit_RAM3	00000000 .noinit_RAM3
20008000 l    d  .noinit_RAM4	00000000 .noinit_RAM4
2000c000 l    d  .noinit_RAM5	00000000 .noinit_RAM5
10000c60 l    d  .noinit	00000000 .noinit
00000000 l    d  .debug_info	00000000 .debug_info
00000000 l    d  .debug_abbrev	00000000 .debug_abbrev
00000000 l    d  .debug_loc	00000000 .debug_loc
00000000 l    d  .debug_aranges	00000000 .debug_aranges
00000000 l    d  .debug_ranges	00000000 .debug_ranges
00000000 l    d  .debug_macro	00000000 .debug_macro
00000000 l    d  .debug_line	00000000 .debug_line
00000000 l    d  .debug_str	00000000 .debug_str
00000000 l    d  .comment	00000000 .comment
00000000 l    d  .ARM.attributes	00000000 .ARM.attributes
00000000 l    d  .debug_frame	00000000 .debug_frame
00000000 l    df *ABS*	00000000 cr_startup_lpc43xx.c
00000000 l    df *ABS*	00000000 sapi_uart.c
1a003c24 l     F .text	000000bc uartProcessIRQ
100005cc l     O .bss	00000004 rxIsrCallbackUART0
100005d0 l     O .bss	00000004 rxIsrCallbackUART2
100005d4 l     O .bss	00000004 rxIsrCallbackUART3
100005d8 l     O .bss	00000004 txIsrCallbackUART0
100005dc l     O .bss	00000004 txIsrCallbackUART2
100005e0 l     O .bss	00000004 txIsrCallbackUART3
1a007530 l     O .text	00000048 lpcUarts
00000000 l    df *ABS*	00000000 crp.c
00000000 l    df *ABS*	00000000 app.c
1a000428 l     F .text	00000020 fatFsTestStart
1a000448 l     F .text	00000010 fatFsTestOK
1a00049c l     F .text	00000020 fatFsTestERROR
1a0004bc l     F .text	000001c4 fatFsTest
00000000 l    df *ABS*	00000000 ff.c
1a0009a8 l     F .text	0000000a ld_word
1a0009b2 l     F .text	00000016 ld_dword
1a0009c8 l     F .text	0000004e ld_qword
1a000a16 l     F .text	00000008 st_word
1a000a1e l     F .text	00000014 st_dword
1a000a32 l     F .text	00000026 st_qword
1a000a58 l     F .text	00000018 mem_cpy
1a000a70 l     F .text	0000000a mem_set
1a000a7a l     F .text	0000001c mem_cmp
1a000a96 l     F .text	00000010 chk_chr
1a000aa6 l     F .text	00000004 dbc_1st
1a000aac l     F .text	000000b8 tchar2uni
1a000b64 l     F .text	00000018 clst2sect
1a000b7c l     F .text	00000026 ld_clust
1a000ba2 l     F .text	00000026 st_clust
1a000bc8 l     F .text	00000080 pick_lfn
1a000c48 l     F .text	00000078 put_lfn
1a000cc0 l     F .text	000000b6 gen_numname
1a000d76 l     F .text	00000022 sum_sfn
1a000d98 l     F .text	00000030 xdir_sum
1a000dc8 l     F .text	0000002e init_alloc_info
1a000df8 l     F .text	0000009c get_ldnumber
1a000e94 l     F .text	00000012 putc_init
1a000ea6 l     F .text	00000046 validate
1a000eec l     F .text	00000048 sync_window
1a000f34 l     F .text	00000036 move_window
1a000f6c l     F .text	00000084 check_fs
1a000ff0 l     F .text	000004c0 find_volume
1a0014b0 l     F .text	00000088 find_bitmap
1a001538 l     F .text	00000078 change_bitmap
1a0015b0 l     F .text	00000128 put_fat
1a0016d8 l     F .text	00000030 fill_last_frag
1a001708 l     F .text	00000032 fill_first_frag
1a00173a l     F .text	0000016e get_fat
1a0018a8 l     F .text	000000c0 dir_sdi
1a001968 l     F .text	000001d6 create_chain
1a001b3e l     F .text	0000015c remove_chain
1a001c9a l     F .text	00000052 dir_clear
1a001cec l     F .text	000000de dir_next
1a001dcc l     F .text	00000100 load_xdir
1a001ecc l     F .text	00000034 load_obj_xdir
1a001f00 l     F .text	000000ea dir_read
1a001fea l     F .text	0000006c dir_alloc
1a002056 l     F .text	0000005e store_xdir
1a0020b4 l     F .text	0000024c create_name
1a002300 l     F .text	00000036 xname_sum
1a002336 l     F .text	00000082 create_xdir
1a0023b8 l     F .text	000000a0 cmp_lfn
1a002458 l     F .text	00000172 dir_find
1a0025ca l     F .text	000000b4 follow_path
1a002680 l     F .text	00000204 dir_register
1a002884 l     F .text	0000008c sync_fs
1a003034 l     F .text	00000144 putc_bfd
1a003178 l     F .text	0000003a putc_flush
10000140 l     O .bss	00000260 DirBuf
100003a0 l     O .bss	00000008 FatFs
100003a8 l     O .bss	00000002 Fsid
100003ac l     O .bss	00000200 LfnBuf
1a006d2c l     O .text	00000080 ExCvt
1a006dac l     O .text	0000000d LfnOfs
1a006dbc l     O .text	00000008 VolumeStr
00000000 l    df *ABS*	00000000 ffunicode.c
1a006dc4 l     O .text	000001f2 cvt1.5253
1a006fb8 l     O .text	000000bc cvt2.5254
1a007074 l     O .text	00000100 uc850
00000000 l    df *ABS*	00000000 sapi_sdcard.c
1a0034dc l     F .text	00000074 statusUpdateCallback
100005ac l     O .bss	00000004 g_sdcard
00000000 l    df *ABS*	00000000 sapi_adc128d818.c
00000000 l    df *ABS*	00000000 sapi_ultrasonic_hcsr04.c
1a003770 l     F .text	00000010 clearInterrupt
1a003780 l     F .text	00000060 serveInterrupt
10000000 l     O .data	00000048 ultrasonicSensors
1a007398 l     O .text	00000003 ultrasonicSensorsIrqMap
00000000 l    df *ABS*	00000000 sapi_convert.c
100005b0 l     O .bss	00000014 result.11108
00000000 l    df *ABS*	00000000 sapi_cyclesCounter.c
10000048 l     O .data	00000004 ClockSpeed
00000000 l    df *ABS*	00000000 sapi_gpio.c
1a0038c0 l     F .text	00000034 gpioObtainPinInit
00000000 l    df *ABS*	00000000 sapi_tick.c
00000000 l    df *ABS*	00000000 sapi_spi.c
00000000 l    df *ABS*	00000000 sapi_delay.c
00000000 l    df *ABS*	00000000 sapi_i2c.c
1a003e80 l     F .text	00000030 i2cHardwareInit
1a003eb0 l     F .text	00000040 i2cHardwareRead
1a003ef0 l     F .text	00000040 i2cHardwareWrite
00000000 l    df *ABS*	00000000 sapi_timer.c
1a003f86 l     F .text	00000002 errorOcurred
1a003f88 l     F .text	00000002 doNothing
10000050 l     O .data	00000040 timer_dd
00000000 l    df *ABS*	00000000 sapi_board.c
00000000 l    df *ABS*	00000000 board.c
1a004188 l     F .text	00000044 Board_DOUT_Init
1a007580 l     O .text	00000010 gpioDOUTBits
00000000 l    df *ABS*	00000000 system.c
100005e4 l     O .bss	00000004 heap_end.11271
00000000 l    df *ABS*	00000000 sysinit.c
00000000 l    df *ABS*	00000000 board_sysinit.c
1a007590 l     O .text	0000000c InitClkStates
1a00759c l     O .text	00000098 pinmuxing
00000000 l    df *ABS*	00000000 i2c_18xx_43xx.c
10000090 l     O .data	00000038 i2c
00000000 l    df *ABS*	00000000 uart_18xx_43xx.c
1a0045a0 l     F .text	0000002c Chip_UART_GetIndex
1a007634 l     O .text	00000008 UART_BClock
1a00763c l     O .text	00000008 UART_PClock
00000000 l    df *ABS*	00000000 chip_18xx_43xx.c
00000000 l    df *ABS*	00000000 clock_18xx_43xx.c
1a004750 l     F .text	000000a0 pll_calc_divs
1a0047f0 l     F .text	0000010c pll_get_frac
1a0048fc l     F .text	00000048 Chip_Clock_FindBaseClock
1a004b68 l     F .text	00000022 Chip_Clock_GetDivRate
100005e8 l     O .bss	00000008 audio_usb_pll_freq
1a00764c l     O .text	0000006c periph_to_base
00000000 l    df *ABS*	00000000 sysinit_18xx_43xx.c
1a0076b8 l     O .text	00000048 InitClkStates
00000000 l    df *ABS*	00000000 i2cm_18xx_43xx.c
00000000 l    df *ABS*	00000000 fpu_init.c
00000000 l    df *ABS*	00000000 rtc_18xx_43xx.c
00000000 l    df *ABS*	00000000 gpio_18xx_43xx.c
00000000 l    df *ABS*	00000000 ssp_18xx_43xx.c
1a005014 l     F .text	0000001a SSP_Write2BFifo
1a00502e l     F .text	00000018 SSP_Write1BFifo
1a005046 l     F .text	00000042 SSP_Read2BFifo
1a005088 l     F .text	00000040 SSP_Read1BFifo
1a0050c8 l     F .text	00000014 Chip_SSP_GetClockIndex
1a0050dc l     F .text	00000018 Chip_SSP_GetPeriphClockIndex
00000000 l    df *ABS*	00000000 fssdc.c
1a0052a4 l     F .text	00000018 newCardStatus
1a0052bc l     F .text	00000004 chk_power
1a0052c0 l     F .text	00000024 SSPSend
1a0052e4 l     F .text	00000018 xmit_spi
1a005320 l     F .text	0000001e rcvr_spi
1a005340 l     F .text	00000024 wait_ready
1a005364 l     F .text	00000018 deselect
1a00537c l     F .text	00000028 select_
1a0053a4 l     F .text	00000084 send_cmd
1a005428 l     F .text	00000058 xmit_datablock
1a005480 l     F .text	00000060 rcvr_datablock
100005f0 l     O .bss	00000001 CardType
100005f1 l     O .bss	00000001 Timer1
100005f2 l     O .bss	00000001 Timer2
100005f4 l     O .bss	00000004 g_statusUpdateCallback
100000c8 l     O .data	00000001 g_cardStatus
100000c9 l     O .data	00000001 g_diskStats
100000cc l     O .data	00000004 g_spiFastClock
100000d0 l     O .data	00000004 g_spiSlowClock
00000000 l    df *ABS*	00000000 ffdisks.c
00000000 l    df *ABS*	00000000 _aeabi_ldivmod.o
00000000 l    df *ABS*	00000000 _aeabi_uldivmod.o
00000000 l    df *ABS*	00000000 libgcc2.c
00000000 l    df *ABS*	00000000 _dvmd_tls.o
00000000 l    df *ABS*	00000000 init.c
00000000 l    df *ABS*	00000000 memcpy-stub.c
00000000 l    df *ABS*	00000000 memset.c
00000000 l    df *ABS*	00000000 sprintf.c
00000000 l    df *ABS*	00000000 strcat.c
00000000 l    df *ABS*	00000000 strcpy.c
00000000 l    df *ABS*	00000000 lib_a-strlen.o
00000000 l    df *ABS*	00000000 lock.c
00000000 l    df *ABS*	00000000 nano-mallocr.c
00000000 l    df *ABS*	00000000 nano-vfprintf.c
00000000 l    df *ABS*	00000000 nano-vfprintf_i.c
00000000 l    df *ABS*	00000000 lib_a-memchr.o
00000000 l    df *ABS*	00000000 memmove.c
00000000 l    df *ABS*	00000000 mlock.c
00000000 l    df *ABS*	00000000 nano-mallocr.c
00000000 l    df *ABS*	00000000 nano-mallocr.c
00000000 l    df *ABS*	00000000 nano-mallocr.c
00000000 l    df *ABS*	00000000 findfp.c
00000000 l    df *ABS*	00000000 impure.c
100000dc l     O .data	00000060 impure_data
00000000 l    df *ABS*	00000000 
1a0079ac l       .bss_RAM5	00000000 __init_array_end
1a0079ac l       .bss_RAM5	00000000 __preinit_array_end
1a0079ac l       .bss_RAM5	00000000 __init_array_start
1a0079ac l       .bss_RAM5	00000000 __preinit_array_start
1a006938 g     F .text	00000010 _malloc_usable_size_r
1a004990 g     F .text	0000001c Chip_Clock_GetDividerSource
1a004f5c g     F .text	0000000e Chip_I2CM_Xfer
1a0060a6 g     F .text	00000010 strcpy
1a00400c g     F .text	00000044 TIMER2_IRQHandler
1a003d10 g     F .text	00000014 uartRxRead
1a003f30 g     F .text	0000000e i2cInit
1a00018e  w    F .text	00000002 DebugMon_Handler
1a000408 g     F .text	00000020 log
1a000194  w    F .text	00000002 RIT_IRQHandler
1a0054e0 g     F .text	0000000c FSSDC_FatFs_DiskStatus
1a080000 g       *ABS*	00000000 __top_MFlashA512
1a000194  w    F .text	00000002 ADCHS_IRQHandler
1a000114 g       .text	00000000 __section_table_start
1a000194  w    F .text	00000002 FLASH_EEPROM_IRQHandler
1a003800 g     F .text	0000008c int64ToString
1a000194  w    F .text	00000002 I2C0_IRQHandler
10000c54 g     O .bss	00000001 __lock___atexit_recursive_mutex
1a004fe4 g     F .text	0000002e Chip_RTC_GetFullTime
100005c4 g     O .bss	00000004 callBackFuncParams
1a000184  w    F .text	00000002 HardFault_Handler
1a004364 g     F .text	00000120 handleMasterXferState
1a000000 g       *ABS*	00000000 __vectors_start__
1a006840 g     F .text	0000000c __malloc_unlock
1a00421c g     F .text	00000012 Board_UARTPutSTR
1a003bf4 g     F .text	00000030 SysTick_Handler
1a004620 g     F .text	00000040 Chip_UART_SetBaud
10000c55 g     O .bss	00000001 __lock___arc4random_mutex
1a000194  w    F .text	00000002 SDIO_IRQHandler
1a000194  w    F .text	00000002 ATIMER_IRQHandler
1a006800 g     F .text	00000034 memmove
1a000464 g     F .text	00000038 logError
1a000190  w    F .text	00000002 PendSV_Handler
1a000182  w    F .text	00000002 NMI_Handler
1a0079b4 g       .ARM.exidx	00000000 __exidx_end
1a000150 g       .text	00000000 __data_section_table_end
1a000194  w    F .text	00000002 I2C1_IRQHandler
1a000194  w    F .text	00000002 UART1_IRQHandler
1a00343c g     F .text	00000038 sdcardInit
1a000194  w    F .text	00000002 GPIO5_IRQHandler
1a000194  w    F .text	00000002 CAN1_IRQHandler
1a003f3e g     F .text	0000002c i2cRead
53ff2640 g       *ABS*	00000000 __valid_user_code_checksum
1a0079b4 g       .ARM.exidx	00000000 _etext
1a000194  w    F .text	00000002 USB1_IRQHandler
1a000194  w    F .text	00000002 I2S0_IRQHandler
1a0033a0 g     F .text	0000009c ff_wtoupper
1a004050 g     F .text	00000044 TIMER3_IRQHandler
1a004c0c g     F .text	0000000c Chip_Clock_GetBaseClocktHz
1a000178 g     F .text	0000000a UART0_IRQHandler
1a0001b4 g     F .text	00000012 bss_init
1a00601c g     F .text	0000001c memcpy
1a000194  w    F .text	00000002 SGPIO_IRQHandler
1a0003b0 g     F .text	00000058 printTickCount
1a006238 g     F .text	00000200 _svfprintf_r
1a00451c g     F .text	00000034 Chip_I2C_MasterStateHandler
1a005bd2 g     F .text	0000000e disk_initialize
1a005cdc g     F .text	00000000 .hidden __aeabi_uldivmod
10000c60 g       .noinit	00000000 _noinit
1a003dce g     F .text	00000016 uartWriteString
10000c50 g     O .bss	00000004 SystemCoreClock
1a0045cc g     F .text	00000054 Chip_UART_Init
1a000194  w    F .text	00000002 ADC0_IRQHandler
1a00018a  w    F .text	00000002 UsageFault_Handler
1a004c88 g     F .text	0000004c Chip_Clock_GetRate
1a000194  w    F .text	00000002 GPIO6_IRQHandler
10000c40 g     O .bss	00000008 tickCounter
1a005bc4 g     F .text	0000000e disk_status
1a0042cc g     F .text	0000006c Board_SetupClocking
20008000 g       *ABS*	00000000 __top_RamAHB32
1a003550 g     F .text	00000022 ADC128D818_setRegister
1a0044e8 g     F .text	00000034 Chip_I2C_SetMasterEventHandler
1a005d0c g     F .text	000002c2 .hidden __udivmoddi4
1a004258 g     F .text	00000020 _sbrk_r
1a007578 g     O .text	00000004 ExtRateIn
1a000194  w    F .text	00000002 IntDefaultHandler
1a000300 g       .text	00000000 __CRP_WORD_END__
10000600 g     O .bss	0000023c sdcard
1a005c28 g     F .text	00000014 disk_ioctl
1a0037ea g     F .text	0000000a GPIO1_IRQHandler
1a0035e0 g     F .text	00000190 ADC128D818_init
1a000194  w    F .text	00000002 SSP0_IRQHandler
1a003ce0 g     F .text	00000018 uartRxReady
1a0079ac g       .ARM.exidx	00000000 __exidx_start
10000c56 g     O .bss	00000001 __lock___env_recursive_mutex
1a0002fc g     O .text	00000004 CRP_WORD
10000c57 g     O .bss	00000001 __lock___sinit_recursive_mutex
1a005734 g     F .text	000000b4 FSSDC_FatFs_DiskWrite
100000d4 g     O .data	00000004 VolToPart
1a0068ec g     F .text	0000004c _realloc_r
1a005b3c g     F .text	0000000c FSSDC_GetFastClock
1a005fd4 g     F .text	00000048 __libc_init_array
1a005b30 g     F .text	0000000c FSSDC_GetSlowClock
1a000194  w    F .text	00000002 ADC1_IRQHandler
1a004230 g     F .text	00000028 Board_Init
1a0052a0 g     F .text	00000002 _init
1a000114 g       .text	00000000 __data_section_table
1a005106 g     F .text	000000a0 Chip_SSP_RWFrames_Blocking
1a003360 g     F .text	00000040 ff_uni2oem
1a000194  w    F .text	00000002 RTC_IRQHandler
10000c60 g       .bss	00000000 _ebss
1a003f8c g     F .text	00000040 TIMER0_IRQHandler
1a00331e g     F .text	0000001e f_putc
1a0056b0 g     F .text	00000084 FSSDC_FatFs_DiskRead
1a003b78 g     F .text	0000007c tickInit
20010000 g       *ABS*	00000000 __top_RamAHB_ETB16
1a000194  w    F .text	00000002 SPI_IRQHandler
1a0057e8 g     F .text	000002e8 FSSDC_FatFs_DiskIoCtl
1a004f6a g     F .text	00000024 Chip_I2CM_XferBlocking
1a00333c g     F .text	00000024 f_puts
1a0044ac g     F .text	0000003c Chip_I2C_SetClockRate
1a000194  w    F .text	00000002 LCD_IRQHandler
1a004944 g     F .text	0000004c Chip_Clock_EnableCrystal
10000c58 g     O .bss	00000001 __lock___malloc_recursive_mutex
1a0054ec g     F .text	000001c4 FSSDC_FatFs_DiskInitialize
1a005ad0 g     F .text	00000060 FSSDC_InitSPI
10008000 g       *ABS*	00000000 __top_RamLoc32
1a000196 g     F .text	0000001e data_init
1a006088 g     F .text	0000001e strcat
1a003fcc g     F .text	00000040 TIMER1_IRQHandler
1a007918 g     O .text	00000020 __sf_fake_stderr
1a004484 g     F .text	00000028 Chip_I2C_Init
1a0060c8 g     F .text	00000002 __retarget_lock_release_recursive
1a003de4 g     F .text	0000000a UART2_IRQHandler
1a004b00 g     F .text	00000068 Chip_Clock_GetMainPLLHz
1a006180 g     F .text	000000b6 __ssputs_r
1a0073e4 g     O .text	0000014a gpioPinsInit
1a003db4 g     F .text	0000001a uartWriteByte
1a0050f4 g     F .text	00000012 Chip_SSP_SetClockRate
1a0037f4 g     F .text	0000000a GPIO2_IRQHandler
1a006760 g     F .text	00000000 memchr
1a00684c g     F .text	000000a0 _free_r
1a004be4 g     F .text	00000028 Chip_Clock_GetBaseClock
1a005bbc g     F .text	00000008 disk_timerproc
10000140 g       .bss	00000000 _bss
1a0032fe g     F .text	00000020 f_close
1a003572 g     F .text	0000002c ADC128D818_readRegister
1a005b48 g     F .text	0000000c FSSDC_SetStatusUpdateCallback
1a0052fc g     F .text	00000024 SSPReceive
1a000194  w    F .text	00000002 I2S1_IRQHandler
1a0051a6 g     F .text	0000003e Chip_SSP_SetBitRate
1a002c2c g     F .text	000001d2 f_read
1a005012 g     F .text	00000002 Chip_GPIO_Init
1a00757c g     O .text	00000004 OscRateIn
1a003d38 g     F .text	0000007c uartInit
10000c60 g       .noinit	00000000 _end_noinit
10008000 g       *ABS*	00000000 _vStackTop
1a000300 g     F .text	00000008 diskTickHook
1a000194  w    F .text	00000002 SSP1_IRQHandler
1a000308 g     F .text	00000064 intToHex
1a000178 g       .text	00000000 __bss_section_table_end
1a0038f4 g     F .text	00000194 gpioInit
1a005fd0  w    F .text	00000002 .hidden __aeabi_ldiv0
1a005b80 g     F .text	0000003c get_fattime
1a000194  w    F .text	00000002 USB0_IRQHandler
1a000194  w    F .text	00000002 GPIO3_IRQHandler
1a006834 g     F .text	0000000c __malloc_lock
1a004208 g     F .text	00000014 Board_UARTPutChar
1a004550 g     F .text	00000018 Chip_I2C_IsStateChanged
1a000194  w    F .text	00000002 SCT_IRQHandler
1a007938 g     O .text	00000020 __sf_fake_stdin
1a0049ac g     F .text	0000001c Chip_Clock_GetDividerDivisor
1a0002fc g       .text	00000000 __CRP_WORD_START__
1a0060c6 g     F .text	00000002 __retarget_lock_acquire_recursive
1a006038 g     F .text	00000010 memset
1a000186  w    F .text	00000002 MemManage_Handler
1a000698 g     F .text	00000310 main
1a0031b2 g     F .text	0000014c f_sync
1a000194  w    F .text	00000002 WDT_IRQHandler
1a003df8 g     F .text	00000050 spiInit
2000c000 g       *ABS*	00000000 __top_RamAHB16
1008a000 g       *ABS*	00000000 __top_RamLoc40
1a00018c  w    F .text	00000002 SVC_Handler
1000004c g     O .data	00000004 DWT_CTRL
1a0060cc g     F .text	000000b4 _malloc_r
1a003cf8 g     F .text	00000018 uartTxReady
1a002910 g     F .text	00000050 f_mount
1a000194  w    F .text	00000002 GPIO7_IRQHandler
1a004c18 g     F .text	0000003c Chip_Clock_EnableOpts
1a0049c8 g     F .text	000000b8 Chip_Clock_GetClockInputHz
1a004f90 g     F .text	00000054 fpuInit
1a004a80 g     F .text	00000080 Chip_Clock_CalcMainPLLValue
1a004278 g     F .text	0000001c SystemInit
1a000194  w    F .text	00000002 SPIFI_IRQHandler
1a003e48 g     F .text	00000038 delay
1a000194  w    F .text	00000002 QEI_IRQHandler
1a000150 g       .text	00000000 __bss_section_table
1a003a88 g     F .text	00000056 gpioWrite
1a006048 g     F .text	00000040 sprintf
1a004294 g     F .text	00000038 Board_SetupMuxing
1a004660 g     F .text	000000dc Chip_UART_SetBaudFDR
1a003b34 g     F .text	0000000c tickRead
10000c48 g     O .bss	00000008 tickRateMS
1a000194  w    F .text	00000002 ETH_IRQHandler
1a006438 g     F .text	000000da _printf_common
100005c8 g     O .bss	00000004 tickHookFunction
100000d8 g     O .data	00000004 _impure_ptr
10000000 g       .uninit_RESERVED	00000000 _end_uninit_RESERVED
1a006238 g     F .text	00000200 _svfiprintf_r
1a003d24 g     F .text	00000014 uartTxWrite
1a000194  w    F .text	00000002 CAN0_IRQHandler
1a004e2c g     F .text	00000130 Chip_I2CM_XferHandler
10000000 g       .data	00000000 _data
1a003b40 g     F .text	00000020 tickCallbackSet
1a00036c g     F .text	00000044 reset_all_douts
10000c60 g       .bss	00000000 _pvHeapStart
1a000178 g       .text	00000000 __section_table_end
1a0051e4 g     F .text	00000038 Chip_SSP_Init
1a004568 g     F .text	00000038 Chip_I2C_EventHandlerPolling
1a000194  w    F .text	00000002 GINT0_IRQHandler
1a000194  w    F .text	00000002 DAC_IRQHandler
1a003f6a g     F .text	0000001c i2cWrite
1a0041e0 g     F .text	00000028 Board_Debug_Init
1000013c g       .data	00000000 _edata
1a004344 g     F .text	00000020 Chip_I2C_EventHandler
1a000194  w    F .text	00000002 M0SUB_IRQHandler
1000083c g     O .bss	00000400 intbuff
10000c59 g     O .bss	00000001 __lock___at_quick_exit_mutex
1a002dfe g     F .text	00000236 f_write
1a004cd4 g     F .text	00000158 Chip_SetupCoreClock
1a0037e0 g     F .text	0000000a GPIO0_IRQHandler
1a002960 g     F .text	000002cc f_open
1a005c04 g     F .text	00000024 disk_write
1a000000 g     O .text	00000114 g_pfnVectors
1a00521c g     F .text	00000084 ResetISR
1a00473c g     F .text	00000014 SystemCoreClockUpdate
1a000194  w    F .text	00000002 DMA_IRQHandler
1a000194  w    F .text	00000002 EVRT_IRQHandler
1b080000 g       *ABS*	00000000 __top_MFlashB512
1a007958 g     O .text	00000020 __sf_fake_stdout
1a006048 g     F .text	00000040 siprintf
1a005fd0  w    F .text	00000002 .hidden __aeabi_idiv0
1a003474 g     F .text	00000068 sdcardMount
1a000188  w    F .text	00000002 BusFault_Handler
1a000458 g     F .text	0000000c literal
10000c5a g     O .bss	00000001 __lock___dd_hash_mutex
10000c5b g     O .bss	00000001 __lock___tz_mutex
1a0060b6 g     F .text	00000010 strlen
1a005be0 g     F .text	00000024 disk_read
1a006514 g     F .text	0000024c _printf_i
1a004c54 g     F .text	00000034 Chip_Clock_Enable
1a003dee g     F .text	0000000a UART3_IRQHandler
100005fc g     O .bss	00000004 __malloc_sbrk_start
1a000194  w    F .text	00000002 MCPWM_IRQHandler
1a000194  w    F .text	00000002 M0APP_IRQHandler
1a003ade g     F .text	00000054 gpioRead
1a004094 g     F .text	000000f4 boardInit
100005f8 g     O .bss	00000004 __malloc_free_list
1a00388c g     F .text	00000018 intToString
1a000194  w    F .text	00000002 GINT1_IRQHandler
1a000680 g     F .text	00000018 println
1a005c3c g     F .text	00000000 .hidden __aeabi_ldivmod
1a003b60 g     F .text	00000018 tickPowerSet
1a0041cc g     F .text	00000014 Board_UART_Init
1a005b54 g     F .text	0000002c FSSDC_Update
1a004b8c g     F .text	00000058 Chip_Clock_SetBaseClock
1a0038a4 g     F .text	0000001c cyclesCounterInit
1a000194  w    F .text	00000002 GPIO4_IRQHandler
10000c5c g     O .bss	00000001 __lock___sfp_recursive_mutex
1a004338 g     F .text	0000000c Board_SystemInit
1a00359e g     F .text	00000042 ADC128D818_readChannel



Disassembly of section .text:

1a000000 <g_pfnVectors>:
1a000000:	00 80 00 10 1d 52 00 1a 83 01 00 1a 85 01 00 1a     .....R..........
1a000010:	87 01 00 1a 89 01 00 1a 8b 01 00 1a 40 26 ff 53     ............@&.S
	...
1a00002c:	8d 01 00 1a 8f 01 00 1a 00 00 00 00 91 01 00 1a     ................
1a00003c:	f5 3b 00 1a 95 01 00 1a 95 01 00 1a 95 01 00 1a     .;..............
1a00004c:	00 00 00 00 95 01 00 1a 95 01 00 1a 95 01 00 1a     ................
1a00005c:	95 01 00 1a 95 01 00 1a 95 01 00 1a 95 01 00 1a     ................
1a00006c:	95 01 00 1a 8d 3f 00 1a cd 3f 00 1a 0d 40 00 1a     .....?...?...@..
1a00007c:	51 40 00 1a 95 01 00 1a 95 01 00 1a 95 01 00 1a     Q@..............
1a00008c:	95 01 00 1a 95 01 00 1a 95 01 00 1a 95 01 00 1a     ................
1a00009c:	95 01 00 1a 79 01 00 1a 95 01 00 1a e5 3d 00 1a     ....y........=..
1a0000ac:	ef 3d 00 1a 95 01 00 1a 95 01 00 1a 95 01 00 1a     .=..............
1a0000bc:	95 01 00 1a e1 37 00 1a eb 37 00 1a f5 37 00 1a     .....7...7...7..
1a0000cc:	95 01 00 1a 95 01 00 1a 95 01 00 1a 95 01 00 1a     ................
1a0000dc:	95 01 00 1a 95 01 00 1a 95 01 00 1a 95 01 00 1a     ................
1a0000ec:	95 01 00 1a 00 00 00 00 95 01 00 1a 95 01 00 1a     ................
1a0000fc:	95 01 00 1a 00 00 00 00 95 01 00 1a 95 01 00 1a     ................
1a00010c:	95 01 00 1a 95 01 00 1a                             ........

1a000114 <__data_section_table>:
1a000114:	1a0079b4 	.word	0x1a0079b4
1a000118:	10000000 	.word	0x10000000
1a00011c:	0000013c 	.word	0x0000013c
1a000120:	1a0079b4 	.word	0x1a0079b4
1a000124:	10080000 	.word	0x10080000
1a000128:	00000000 	.word	0x00000000
1a00012c:	1a0079b4 	.word	0x1a0079b4
1a000130:	20000000 	.word	0x20000000
1a000134:	00000000 	.word	0x00000000
1a000138:	1a0079b4 	.word	0x1a0079b4
1a00013c:	20008000 	.word	0x20008000
1a000140:	00000000 	.word	0x00000000
1a000144:	1a0079b4 	.word	0x1a0079b4
1a000148:	2000c000 	.word	0x2000c000
1a00014c:	00000000 	.word	0x00000000

1a000150 <__bss_section_table>:
1a000150:	10000140 	.word	0x10000140
1a000154:	00000b20 	.word	0x00000b20
1a000158:	10080000 	.word	0x10080000
1a00015c:	00000000 	.word	0x00000000
1a000160:	20000000 	.word	0x20000000
1a000164:	00000000 	.word	0x00000000
1a000168:	20008000 	.word	0x20008000
1a00016c:	00000000 	.word	0x00000000
1a000170:	2000c000 	.word	0x2000c000
1a000174:	00000000 	.word	0x00000000

1a000178 <UART0_IRQHandler>:
__attribute__ ((section(".after_vectors")))

// UART0 (GPIO1 y GPIO2 or RS485/Profibus)
// 0x28 0x000000A0 - Handler for ISR UART0 (IRQ 24)
void UART0_IRQHandler(void)
{
1a000178:	b508      	push	{r3, lr}
   uartProcessIRQ( UART_GPIO );
1a00017a:	2000      	movs	r0, #0
1a00017c:	f003 fd52 	bl	1a003c24 <uartProcessIRQ>
}
1a000180:	bd08      	pop	{r3, pc}

1a000182 <NMI_Handler>:
// Default exception handlers. Override the ones here by defining your own
// handler routines in your application code.
//*****************************************************************************
__attribute__ ((section(".after_vectors")))
void NMI_Handler(void) {
    while (1) {
1a000182:	e7fe      	b.n	1a000182 <NMI_Handler>

1a000184 <HardFault_Handler>:
    }
}
__attribute__ ((section(".after_vectors")))
void HardFault_Handler(void) {
    while (1) {
1a000184:	e7fe      	b.n	1a000184 <HardFault_Handler>

1a000186 <MemManage_Handler>:
    }
}
__attribute__ ((section(".after_vectors")))
void MemManage_Handler(void) {
    while (1) {
1a000186:	e7fe      	b.n	1a000186 <MemManage_Handler>

1a000188 <BusFault_Handler>:
    }
}
__attribute__ ((section(".after_vectors")))
void BusFault_Handler(void) {
    while (1) {
1a000188:	e7fe      	b.n	1a000188 <BusFault_Handler>

1a00018a <UsageFault_Handler>:
    }
}
__attribute__ ((section(".after_vectors")))
void UsageFault_Handler(void) {
    while (1) {
1a00018a:	e7fe      	b.n	1a00018a <UsageFault_Handler>

1a00018c <SVC_Handler>:
    }
}
__attribute__ ((section(".after_vectors")))
void SVC_Handler(void) {
    while (1) {
1a00018c:	e7fe      	b.n	1a00018c <SVC_Handler>

1a00018e <DebugMon_Handler>:
    }
}
__attribute__ ((section(".after_vectors")))
void DebugMon_Handler(void) {
    while (1) {
1a00018e:	e7fe      	b.n	1a00018e <DebugMon_Handler>

1a000190 <PendSV_Handler>:
    }
}
__attribute__ ((section(".after_vectors")))
void PendSV_Handler(void) {
    while (1) {
1a000190:	e7fe      	b.n	1a000190 <PendSV_Handler>
    }
}
__attribute__ ((section(".after_vectors")))
void SysTick_Handler(void) {
    while (1) {
1a000192:	e7fe      	b.n	1a000192 <PendSV_Handler+0x2>

1a000194 <ADC0_IRQHandler>:
// handler is not present in the application code.
//
//*****************************************************************************
__attribute__ ((section(".after_vectors")))
void IntDefaultHandler(void) {
    while (1) {
1a000194:	e7fe      	b.n	1a000194 <ADC0_IRQHandler>

1a000196 <data_init>:
    for (loop = 0; loop < len; loop = loop + 4)
1a000196:	2300      	movs	r3, #0
1a000198:	4293      	cmp	r3, r2
1a00019a:	d20a      	bcs.n	1a0001b2 <data_init+0x1c>
void data_init(unsigned int romstart, unsigned int start, unsigned int len) {
1a00019c:	b410      	push	{r4}
        *pulDest++ = *pulSrc++;
1a00019e:	f850 4b04 	ldr.w	r4, [r0], #4
1a0001a2:	f841 4b04 	str.w	r4, [r1], #4
    for (loop = 0; loop < len; loop = loop + 4)
1a0001a6:	3304      	adds	r3, #4
1a0001a8:	4293      	cmp	r3, r2
1a0001aa:	d3f8      	bcc.n	1a00019e <data_init+0x8>
}
1a0001ac:	f85d 4b04 	ldr.w	r4, [sp], #4
1a0001b0:	4770      	bx	lr
1a0001b2:	4770      	bx	lr

1a0001b4 <bss_init>:
    for (loop = 0; loop < len; loop = loop + 4)
1a0001b4:	2300      	movs	r3, #0
1a0001b6:	428b      	cmp	r3, r1
1a0001b8:	d204      	bcs.n	1a0001c4 <bss_init+0x10>
        *pulDest++ = 0;
1a0001ba:	2200      	movs	r2, #0
1a0001bc:	f840 2b04 	str.w	r2, [r0], #4
    for (loop = 0; loop < len; loop = loop + 4)
1a0001c0:	3304      	adds	r3, #4
1a0001c2:	e7f8      	b.n	1a0001b6 <bss_init+0x2>
}
1a0001c4:	4770      	bx	lr
1a0001c6:	ffff ffff 			; <UNDEFINED> instruction: 0xffffffff
1a0001ca:	ffff ffff 			; <UNDEFINED> instruction: 0xffffffff
1a0001ce:	ffff ffff 			; <UNDEFINED> instruction: 0xffffffff
1a0001d2:	ffff ffff 			; <UNDEFINED> instruction: 0xffffffff
1a0001d6:	ffff ffff 			; <UNDEFINED> instruction: 0xffffffff
1a0001da:	ffff ffff 			; <UNDEFINED> instruction: 0xffffffff
1a0001de:	ffff ffff 			; <UNDEFINED> instruction: 0xffffffff
1a0001e2:	ffff ffff 			; <UNDEFINED> instruction: 0xffffffff
1a0001e6:	ffff ffff 			; <UNDEFINED> instruction: 0xffffffff
1a0001ea:	ffff ffff 			; <UNDEFINED> instruction: 0xffffffff
1a0001ee:	ffff ffff 			; <UNDEFINED> instruction: 0xffffffff
1a0001f2:	ffff ffff 			; <UNDEFINED> instruction: 0xffffffff
1a0001f6:	ffff ffff 			; <UNDEFINED> instruction: 0xffffffff
1a0001fa:	ffff ffff 			; <UNDEFINED> instruction: 0xffffffff
1a0001fe:	ffff ffff 			; <UNDEFINED> instruction: 0xffffffff
1a000202:	ffff ffff 			; <UNDEFINED> instruction: 0xffffffff
1a000206:	ffff ffff 			; <UNDEFINED> instruction: 0xffffffff
1a00020a:	ffff ffff 			; <UNDEFINED> instruction: 0xffffffff
1a00020e:	ffff ffff 			; <UNDEFINED> instruction: 0xffffffff
1a000212:	ffff ffff 			; <UNDEFINED> instruction: 0xffffffff
1a000216:	ffff ffff 			; <UNDEFINED> instruction: 0xffffffff
1a00021a:	ffff ffff 			; <UNDEFINED> instruction: 0xffffffff
1a00021e:	ffff ffff 			; <UNDEFINED> instruction: 0xffffffff
1a000222:	ffff ffff 			; <UNDEFINED> instruction: 0xffffffff
1a000226:	ffff ffff 			; <UNDEFINED> instruction: 0xffffffff
1a00022a:	ffff ffff 			; <UNDEFINED> instruction: 0xffffffff
1a00022e:	ffff ffff 			; <UNDEFINED> instruction: 0xffffffff
1a000232:	ffff ffff 			; <UNDEFINED> instruction: 0xffffffff
1a000236:	ffff ffff 			; <UNDEFINED> instruction: 0xffffffff
1a00023a:	ffff ffff 			; <UNDEFINED> instruction: 0xffffffff
1a00023e:	ffff ffff 			; <UNDEFINED> instruction: 0xffffffff
1a000242:	ffff ffff 			; <UNDEFINED> instruction: 0xffffffff
1a000246:	ffff ffff 			; <UNDEFINED> instruction: 0xffffffff
1a00024a:	ffff ffff 			; <UNDEFINED> instruction: 0xffffffff
1a00024e:	ffff ffff 			; <UNDEFINED> instruction: 0xffffffff
1a000252:	ffff ffff 			; <UNDEFINED> instruction: 0xffffffff
1a000256:	ffff ffff 			; <UNDEFINED> instruction: 0xffffffff
1a00025a:	ffff ffff 			; <UNDEFINED> instruction: 0xffffffff
1a00025e:	ffff ffff 			; <UNDEFINED> instruction: 0xffffffff
1a000262:	ffff ffff 			; <UNDEFINED> instruction: 0xffffffff
1a000266:	ffff ffff 			; <UNDEFINED> instruction: 0xffffffff
1a00026a:	ffff ffff 			; <UNDEFINED> instruction: 0xffffffff
1a00026e:	ffff ffff 			; <UNDEFINED> instruction: 0xffffffff
1a000272:	ffff ffff 			; <UNDEFINED> instruction: 0xffffffff
1a000276:	ffff ffff 			; <UNDEFINED> instruction: 0xffffffff
1a00027a:	ffff ffff 			; <UNDEFINED> instruction: 0xffffffff
1a00027e:	ffff ffff 			; <UNDEFINED> instruction: 0xffffffff
1a000282:	ffff ffff 			; <UNDEFINED> instruction: 0xffffffff
1a000286:	ffff ffff 			; <UNDEFINED> instruction: 0xffffffff
1a00028a:	ffff ffff 			; <UNDEFINED> instruction: 0xffffffff
1a00028e:	ffff ffff 			; <UNDEFINED> instruction: 0xffffffff
1a000292:	ffff ffff 			; <UNDEFINED> instruction: 0xffffffff
1a000296:	ffff ffff 			; <UNDEFINED> instruction: 0xffffffff
1a00029a:	ffff ffff 			; <UNDEFINED> instruction: 0xffffffff
1a00029e:	ffff ffff 			; <UNDEFINED> instruction: 0xffffffff
1a0002a2:	ffff ffff 			; <UNDEFINED> instruction: 0xffffffff
1a0002a6:	ffff ffff 			; <UNDEFINED> instruction: 0xffffffff
1a0002aa:	ffff ffff 			; <UNDEFINED> instruction: 0xffffffff
1a0002ae:	ffff ffff 			; <UNDEFINED> instruction: 0xffffffff
1a0002b2:	ffff ffff 			; <UNDEFINED> instruction: 0xffffffff
1a0002b6:	ffff ffff 			; <UNDEFINED> instruction: 0xffffffff
1a0002ba:	ffff ffff 			; <UNDEFINED> instruction: 0xffffffff
1a0002be:	ffff ffff 			; <UNDEFINED> instruction: 0xffffffff
1a0002c2:	ffff ffff 			; <UNDEFINED> instruction: 0xffffffff
1a0002c6:	ffff ffff 			; <UNDEFINED> instruction: 0xffffffff
1a0002ca:	ffff ffff 			; <UNDEFINED> instruction: 0xffffffff
1a0002ce:	ffff ffff 			; <UNDEFINED> instruction: 0xffffffff
1a0002d2:	ffff ffff 			; <UNDEFINED> instruction: 0xffffffff
1a0002d6:	ffff ffff 			; <UNDEFINED> instruction: 0xffffffff
1a0002da:	ffff ffff 			; <UNDEFINED> instruction: 0xffffffff
1a0002de:	ffff ffff 			; <UNDEFINED> instruction: 0xffffffff
1a0002e2:	ffff ffff 			; <UNDEFINED> instruction: 0xffffffff
1a0002e6:	ffff ffff 			; <UNDEFINED> instruction: 0xffffffff
1a0002ea:	ffff ffff 			; <UNDEFINED> instruction: 0xffffffff
1a0002ee:	ffff ffff 			; <UNDEFINED> instruction: 0xffffffff
1a0002f2:	ffff ffff 			; <UNDEFINED> instruction: 0xffffffff
1a0002f6:	ffff ffff 			; <UNDEFINED> instruction: 0xffffffff
1a0002fa:	Address 0x000000001a0002fa is out of bounds.


1a0002fc <CRP_WORD>:
1a0002fc:	ffff ffff                                   ....

1a000300 <diskTickHook>:
    return true;   
}

// FUNCION que se ejecuta cada vezque ocurre un Tick
void diskTickHook( void *ptr )
{
1a000300:	b508      	push	{r3, lr}
    disk_timerproc (); 
1a000302:	f005 fc5b 	bl	1a005bbc <disk_timerproc>
}
1a000306:	bd08      	pop	{r3, pc}

1a000308 <intToHex>:
{
1a000308:	b4f0      	push	{r4, r5, r6, r7}
    int ind = 0;
1a00030a:	2300      	movs	r3, #0
1a00030c:	e00d      	b.n	1a00032a <intToHex+0x22>
            intbuff[ind++] = 'a'+((value & 0xf)-10);
1a00030e:	f000 060f 	and.w	r6, r0, #15
1a000312:	3657      	adds	r6, #87	; 0x57
1a000314:	4f14      	ldr	r7, [pc, #80]	; (1a000368 <intToHex+0x60>)
1a000316:	54fe      	strb	r6, [r7, r3]
1a000318:	3301      	adds	r3, #1
        value = (value - (value & 0xf)) >> 4;
1a00031a:	0900      	lsrs	r0, r0, #4
1a00031c:	ea40 7001 	orr.w	r0, r0, r1, lsl #28
1a000320:	0909      	lsrs	r1, r1, #4
        digits--;
1a000322:	3a01      	subs	r2, #1
    } while (digits != 0);
1a000324:	f012 02ff 	ands.w	r2, r2, #255	; 0xff
1a000328:	d00c      	beq.n	1a000344 <intToHex+0x3c>
        if ((value & 0xf) < 10)
1a00032a:	f000 040f 	and.w	r4, r0, #15
1a00032e:	2500      	movs	r5, #0
1a000330:	2d00      	cmp	r5, #0
1a000332:	bf08      	it	eq
1a000334:	2c0a      	cmpeq	r4, #10
1a000336:	d2ea      	bcs.n	1a00030e <intToHex+0x6>
            intbuff[ind++] = '0'+(value & 0xf);
1a000338:	4626      	mov	r6, r4
1a00033a:	3630      	adds	r6, #48	; 0x30
1a00033c:	4f0a      	ldr	r7, [pc, #40]	; (1a000368 <intToHex+0x60>)
1a00033e:	54fe      	strb	r6, [r7, r3]
1a000340:	3301      	adds	r3, #1
1a000342:	e7ea      	b.n	1a00031a <intToHex+0x12>
    intbuff[ind] = '\0';
1a000344:	4a08      	ldr	r2, [pc, #32]	; (1a000368 <intToHex+0x60>)
1a000346:	2100      	movs	r1, #0
1a000348:	54d1      	strb	r1, [r2, r3]
    ptr2 = intbuff+(ind-1);
1a00034a:	3b01      	subs	r3, #1
1a00034c:	4413      	add	r3, r2
    while (ptr1 < ptr2) {
1a00034e:	e005      	b.n	1a00035c <intToHex+0x54>
        c = *ptr1;
1a000350:	7811      	ldrb	r1, [r2, #0]
        *ptr1++ = *ptr2;
1a000352:	7818      	ldrb	r0, [r3, #0]
1a000354:	f802 0b01 	strb.w	r0, [r2], #1
        *ptr2-- = c;
1a000358:	f803 1901 	strb.w	r1, [r3], #-1
    while (ptr1 < ptr2) {
1a00035c:	429a      	cmp	r2, r3
1a00035e:	d3f7      	bcc.n	1a000350 <intToHex+0x48>
}
1a000360:	4801      	ldr	r0, [pc, #4]	; (1a000368 <intToHex+0x60>)
1a000362:	bcf0      	pop	{r4, r5, r6, r7}
1a000364:	4770      	bx	lr
1a000366:	bf00      	nop
1a000368:	1000083c 	.word	0x1000083c

1a00036c <reset_all_douts>:
{
1a00036c:	b508      	push	{r3, lr}
    gpioWrite( DO0, OFF );
1a00036e:	2100      	movs	r1, #0
1a000370:	2036      	movs	r0, #54	; 0x36
1a000372:	f003 fb89 	bl	1a003a88 <gpioWrite>
    gpioWrite( DO1, OFF );
1a000376:	2100      	movs	r1, #0
1a000378:	2037      	movs	r0, #55	; 0x37
1a00037a:	f003 fb85 	bl	1a003a88 <gpioWrite>
    gpioWrite( DO2, OFF );
1a00037e:	2100      	movs	r1, #0
1a000380:	2038      	movs	r0, #56	; 0x38
1a000382:	f003 fb81 	bl	1a003a88 <gpioWrite>
    gpioWrite( DO3, OFF );
1a000386:	2100      	movs	r1, #0
1a000388:	2039      	movs	r0, #57	; 0x39
1a00038a:	f003 fb7d 	bl	1a003a88 <gpioWrite>
    gpioWrite( DO4, OFF );
1a00038e:	2100      	movs	r1, #0
1a000390:	203a      	movs	r0, #58	; 0x3a
1a000392:	f003 fb79 	bl	1a003a88 <gpioWrite>
    gpioWrite( DO5, OFF );
1a000396:	2100      	movs	r1, #0
1a000398:	203b      	movs	r0, #59	; 0x3b
1a00039a:	f003 fb75 	bl	1a003a88 <gpioWrite>
    gpioWrite( DO6, OFF );
1a00039e:	2100      	movs	r1, #0
1a0003a0:	203c      	movs	r0, #60	; 0x3c
1a0003a2:	f003 fb71 	bl	1a003a88 <gpioWrite>
    gpioWrite( DO7, OFF );
1a0003a6:	2100      	movs	r1, #0
1a0003a8:	203d      	movs	r0, #61	; 0x3d
1a0003aa:	f003 fb6d 	bl	1a003a88 <gpioWrite>
}
1a0003ae:	bd08      	pop	{r3, pc}

1a0003b0 <printTickCount>:
void printTickCount(int length) {
1a0003b0:	b510      	push	{r4, lr}
1a0003b2:	b0b2      	sub	sp, #200	; 0xc8
1a0003b4:	4604      	mov	r4, r0
    strcpy(buff, intToString(tickRead()));
1a0003b6:	f003 fbbd 	bl	1a003b34 <tickRead>
1a0003ba:	f003 fa67 	bl	1a00388c <intToString>
1a0003be:	4601      	mov	r1, r0
1a0003c0:	a819      	add	r0, sp, #100	; 0x64
1a0003c2:	f005 fe70 	bl	1a0060a6 <strcpy>
    while (strlen(buff) < length) {
1a0003c6:	a819      	add	r0, sp, #100	; 0x64
1a0003c8:	f005 fe75 	bl	1a0060b6 <strlen>
1a0003cc:	42a0      	cmp	r0, r4
1a0003ce:	d20c      	bcs.n	1a0003ea <printTickCount+0x3a>
        strcpy(buff2, buff);
1a0003d0:	a919      	add	r1, sp, #100	; 0x64
1a0003d2:	4668      	mov	r0, sp
1a0003d4:	f005 fe67 	bl	1a0060a6 <strcpy>
        strcpy(buff, "0");
1a0003d8:	4909      	ldr	r1, [pc, #36]	; (1a000400 <printTickCount+0x50>)
1a0003da:	a819      	add	r0, sp, #100	; 0x64
1a0003dc:	f005 fe63 	bl	1a0060a6 <strcpy>
        strcat(buff, buff2);
1a0003e0:	4669      	mov	r1, sp
1a0003e2:	a819      	add	r0, sp, #100	; 0x64
1a0003e4:	f005 fe50 	bl	1a006088 <strcat>
1a0003e8:	e7ed      	b.n	1a0003c6 <printTickCount+0x16>
    strcat(buff, "ms ");
1a0003ea:	4906      	ldr	r1, [pc, #24]	; (1a000404 <printTickCount+0x54>)
1a0003ec:	a819      	add	r0, sp, #100	; 0x64
1a0003ee:	f005 fe4b 	bl	1a006088 <strcat>
    uartWriteString( UART_USB,  buff);
1a0003f2:	a919      	add	r1, sp, #100	; 0x64
1a0003f4:	2003      	movs	r0, #3
1a0003f6:	f003 fcea 	bl	1a003dce <uartWriteString>
}
1a0003fa:	b032      	add	sp, #200	; 0xc8
1a0003fc:	bd10      	pop	{r4, pc}
1a0003fe:	bf00      	nop
1a000400:	1a006948 	.word	0x1a006948
1a000404:	1a00694c 	.word	0x1a00694c

1a000408 <log>:
void log(char *str) {
1a000408:	b510      	push	{r4, lr}
1a00040a:	4604      	mov	r4, r0
    printTickCount(8);
1a00040c:	2008      	movs	r0, #8
1a00040e:	f7ff ffcf 	bl	1a0003b0 <printTickCount>
    uartWriteString( UART_USB, str );
1a000412:	4621      	mov	r1, r4
1a000414:	2003      	movs	r0, #3
1a000416:	f003 fcda 	bl	1a003dce <uartWriteString>
    uartWriteString( UART_USB, "\r\n" );
1a00041a:	4902      	ldr	r1, [pc, #8]	; (1a000424 <log+0x1c>)
1a00041c:	2003      	movs	r0, #3
1a00041e:	f003 fcd6 	bl	1a003dce <uartWriteString>
}
1a000422:	bd10      	pop	{r4, pc}
1a000424:	1a00786c 	.word	0x1a00786c

1a000428 <fatFsTestStart>:
{
1a000428:	b500      	push	{lr}
1a00042a:	b0c1      	sub	sp, #260	; 0x104
1a00042c:	4602      	mov	r2, r0
    sprintf( msg, "TEST: Ejecutando '%s'...", test );
1a00042e:	4905      	ldr	r1, [pc, #20]	; (1a000444 <fatFsTestStart+0x1c>)
1a000430:	4668      	mov	r0, sp
1a000432:	f005 fe09 	bl	1a006048 <siprintf>
    log(msg );
1a000436:	4668      	mov	r0, sp
1a000438:	f7ff ffe6 	bl	1a000408 <log>
}
1a00043c:	b041      	add	sp, #260	; 0x104
1a00043e:	f85d fb04 	ldr.w	pc, [sp], #4
1a000442:	bf00      	nop
1a000444:	1a006950 	.word	0x1a006950

1a000448 <fatFsTestOK>:
{
1a000448:	b508      	push	{r3, lr}
    log("OK!\r\n" );
1a00044a:	4802      	ldr	r0, [pc, #8]	; (1a000454 <fatFsTestOK+0xc>)
1a00044c:	f7ff ffdc 	bl	1a000408 <log>
}
1a000450:	bd08      	pop	{r3, pc}
1a000452:	bf00      	nop
1a000454:	1a00696c 	.word	0x1a00696c

1a000458 <literal>:
void literal(char *str) {
1a000458:	b508      	push	{r3, lr}
1a00045a:	4601      	mov	r1, r0
    uartWriteString( UART_USB, str );
1a00045c:	2003      	movs	r0, #3
1a00045e:	f003 fcb6 	bl	1a003dce <uartWriteString>
}
1a000462:	bd08      	pop	{r3, pc}

1a000464 <logError>:
void logError(char *str) {
1a000464:	b510      	push	{r4, lr}
1a000466:	4604      	mov	r4, r0
    printTickCount(8);
1a000468:	2008      	movs	r0, #8
1a00046a:	f7ff ffa1 	bl	1a0003b0 <printTickCount>
    uartWriteString( UART_USB, "\033[31mError: " );
1a00046e:	4908      	ldr	r1, [pc, #32]	; (1a000490 <logError+0x2c>)
1a000470:	2003      	movs	r0, #3
1a000472:	f003 fcac 	bl	1a003dce <uartWriteString>
    uartWriteString( UART_USB, str );
1a000476:	4621      	mov	r1, r4
1a000478:	2003      	movs	r0, #3
1a00047a:	f003 fca8 	bl	1a003dce <uartWriteString>
    uartWriteString( UART_USB, "\033[0m" );
1a00047e:	4905      	ldr	r1, [pc, #20]	; (1a000494 <logError+0x30>)
1a000480:	2003      	movs	r0, #3
1a000482:	f003 fca4 	bl	1a003dce <uartWriteString>
    uartWriteString( UART_USB, "\r\n" );
1a000486:	4904      	ldr	r1, [pc, #16]	; (1a000498 <logError+0x34>)
1a000488:	2003      	movs	r0, #3
1a00048a:	f003 fca0 	bl	1a003dce <uartWriteString>
}
1a00048e:	bd10      	pop	{r4, pc}
1a000490:	1a006974 	.word	0x1a006974
1a000494:	1a006984 	.word	0x1a006984
1a000498:	1a00786c 	.word	0x1a00786c

1a00049c <fatFsTestERROR>:
{
1a00049c:	b500      	push	{lr}
1a00049e:	b0c1      	sub	sp, #260	; 0x104
1a0004a0:	4602      	mov	r2, r0
    sprintf( msg, "ERROR %i", error );
1a0004a2:	4905      	ldr	r1, [pc, #20]	; (1a0004b8 <fatFsTestERROR+0x1c>)
1a0004a4:	4668      	mov	r0, sp
1a0004a6:	f005 fdcf 	bl	1a006048 <siprintf>
    logError(msg );
1a0004aa:	4668      	mov	r0, sp
1a0004ac:	f7ff ffda 	bl	1a000464 <logError>
}
1a0004b0:	b041      	add	sp, #260	; 0x104
1a0004b2:	f85d fb04 	ldr.w	pc, [sp], #4
1a0004b6:	bf00      	nop
1a0004b8:	1a00698c 	.word	0x1a00698c

1a0004bc <fatFsTest>:
{
1a0004bc:	b570      	push	{r4, r5, r6, lr}
1a0004be:	f5ad 6dd5 	sub.w	sp, sp, #1704	; 0x6a8
    sprintf( filename, "%s/TEST.TXT", unidad );
1a0004c2:	4a5e      	ldr	r2, [pc, #376]	; (1a00063c <fatFsTest+0x180>)
1a0004c4:	495e      	ldr	r1, [pc, #376]	; (1a000640 <fatFsTest+0x184>)
1a0004c6:	a89a      	add	r0, sp, #616	; 0x268
1a0004c8:	f005 fdbe 	bl	1a006048 <siprintf>
    log("\r\n-------------------------------------------" );   
1a0004cc:	485d      	ldr	r0, [pc, #372]	; (1a000644 <fatFsTest+0x188>)
1a0004ce:	f7ff ff9b 	bl	1a000408 <log>
    sprintf( buf, "TEST sobre archivo '%s'.", filename);
1a0004d2:	aa9a      	add	r2, sp, #616	; 0x268
1a0004d4:	495c      	ldr	r1, [pc, #368]	; (1a000648 <fatFsTest+0x18c>)
1a0004d6:	a8aa      	add	r0, sp, #680	; 0x2a8
1a0004d8:	f005 fdb6 	bl	1a006048 <siprintf>
    log(buf);
1a0004dc:	a8aa      	add	r0, sp, #680	; 0x2a8
1a0004de:	f7ff ff93 	bl	1a000408 <log>
    log("-------------------------------------------" ); 
1a0004e2:	485a      	ldr	r0, [pc, #360]	; (1a00064c <fatFsTest+0x190>)
1a0004e4:	f7ff ff90 	bl	1a000408 <log>
    fatFsTestStart( "f_open( WRITE )" );
1a0004e8:	4859      	ldr	r0, [pc, #356]	; (1a000650 <fatFsTest+0x194>)
1a0004ea:	f7ff ff9d 	bl	1a000428 <fatFsTestStart>
    fr = f_open( &file, filename, FA_CREATE_ALWAYS | FA_WRITE);
1a0004ee:	220a      	movs	r2, #10
1a0004f0:	a99a      	add	r1, sp, #616	; 0x268
1a0004f2:	a806      	add	r0, sp, #24
1a0004f4:	f002 fa34 	bl	1a002960 <f_open>
    if( fr != FR_OK )
1a0004f8:	b9c0      	cbnz	r0, 1a00052c <fatFsTest+0x70>
    fatFsTestOK( );
1a0004fa:	f7ff ffa5 	bl	1a000448 <fatFsTestOK>
    fatFsTestStart( "f_putc" );
1a0004fe:	4855      	ldr	r0, [pc, #340]	; (1a000654 <fatFsTest+0x198>)
1a000500:	f7ff ff92 	bl	1a000428 <fatFsTestStart>
    sprintf (buf, "La unidad bajo prueba es '%s'"
1a000504:	4a4d      	ldr	r2, [pc, #308]	; (1a00063c <fatFsTest+0x180>)
1a000506:	4954      	ldr	r1, [pc, #336]	; (1a000658 <fatFsTest+0x19c>)
1a000508:	a8aa      	add	r0, sp, #680	; 0x2a8
1a00050a:	f005 fd9d 	bl	1a006048 <siprintf>
    for (uint32_t i = 0; i < strlen(buf); ++i)
1a00050e:	2400      	movs	r4, #0
1a000510:	a8aa      	add	r0, sp, #680	; 0x2a8
1a000512:	f005 fdd0 	bl	1a0060b6 <strlen>
1a000516:	42a0      	cmp	r0, r4
1a000518:	d915      	bls.n	1a000546 <fatFsTest+0x8a>
        r = f_putc( buf[i], &file );
1a00051a:	a906      	add	r1, sp, #24
1a00051c:	abaa      	add	r3, sp, #680	; 0x2a8
1a00051e:	5d18      	ldrb	r0, [r3, r4]
1a000520:	f002 fefd 	bl	1a00331e <f_putc>
        if (r < 1)
1a000524:	2800      	cmp	r0, #0
1a000526:	dd07      	ble.n	1a000538 <fatFsTest+0x7c>
    for (uint32_t i = 0; i < strlen(buf); ++i)
1a000528:	3401      	adds	r4, #1
1a00052a:	e7f1      	b.n	1a000510 <fatFsTest+0x54>
        fatFsTestERROR( fr );
1a00052c:	f7ff ffb6 	bl	1a00049c <fatFsTestERROR>
        return false;
1a000530:	2000      	movs	r0, #0
}
1a000532:	f50d 6dd5 	add.w	sp, sp, #1704	; 0x6a8
1a000536:	bd70      	pop	{r4, r5, r6, pc}
            fatFsTestERROR( r );
1a000538:	f7ff ffb0 	bl	1a00049c <fatFsTestERROR>
            f_close( &file );
1a00053c:	a806      	add	r0, sp, #24
1a00053e:	f002 fede 	bl	1a0032fe <f_close>
            return false;
1a000542:	2000      	movs	r0, #0
1a000544:	e7f5      	b.n	1a000532 <fatFsTest+0x76>
    for (uint32_t i = 32; i < 127; ++i)
1a000546:	2420      	movs	r4, #32
1a000548:	2c7e      	cmp	r4, #126	; 0x7e
1a00054a:	d80e      	bhi.n	1a00056a <fatFsTest+0xae>
        r = f_putc( (TCHAR)i, &file );
1a00054c:	a906      	add	r1, sp, #24
1a00054e:	b2e0      	uxtb	r0, r4
1a000550:	f002 fee5 	bl	1a00331e <f_putc>
        if (r < 1)
1a000554:	2800      	cmp	r0, #0
1a000556:	dd01      	ble.n	1a00055c <fatFsTest+0xa0>
    for (uint32_t i = 32; i < 127; ++i)
1a000558:	3401      	adds	r4, #1
1a00055a:	e7f5      	b.n	1a000548 <fatFsTest+0x8c>
            fatFsTestERROR( r );
1a00055c:	f7ff ff9e 	bl	1a00049c <fatFsTestERROR>
            f_close( &file );
1a000560:	a806      	add	r0, sp, #24
1a000562:	f002 fecc 	bl	1a0032fe <f_close>
            return false;
1a000566:	2000      	movs	r0, #0
1a000568:	e7e3      	b.n	1a000532 <fatFsTest+0x76>
    fatFsTestOK( );
1a00056a:	f7ff ff6d 	bl	1a000448 <fatFsTestOK>
    fatFsTestStart( "f_puts");  
1a00056e:	483b      	ldr	r0, [pc, #236]	; (1a00065c <fatFsTest+0x1a0>)
1a000570:	f7ff ff5a 	bl	1a000428 <fatFsTestStart>
                  gpioRead( TEC1 ), gpioRead( TEC2 ), gpioRead( TEC3 ), gpioRead( TEC4 ));
1a000574:	2024      	movs	r0, #36	; 0x24
1a000576:	f003 fab2 	bl	1a003ade <gpioRead>
1a00057a:	4604      	mov	r4, r0
1a00057c:	2025      	movs	r0, #37	; 0x25
1a00057e:	f003 faae 	bl	1a003ade <gpioRead>
1a000582:	4605      	mov	r5, r0
1a000584:	2026      	movs	r0, #38	; 0x26
1a000586:	f003 faaa 	bl	1a003ade <gpioRead>
1a00058a:	4606      	mov	r6, r0
1a00058c:	2027      	movs	r0, #39	; 0x27
1a00058e:	f003 faa6 	bl	1a003ade <gpioRead>
    sprintf (buf, "\r\n"
1a000592:	9003      	str	r0, [sp, #12]
1a000594:	9602      	str	r6, [sp, #8]
1a000596:	9501      	str	r5, [sp, #4]
1a000598:	9400      	str	r4, [sp, #0]
1a00059a:	4b31      	ldr	r3, [pc, #196]	; (1a000660 <fatFsTest+0x1a4>)
1a00059c:	4a31      	ldr	r2, [pc, #196]	; (1a000664 <fatFsTest+0x1a8>)
1a00059e:	4932      	ldr	r1, [pc, #200]	; (1a000668 <fatFsTest+0x1ac>)
1a0005a0:	a8aa      	add	r0, sp, #680	; 0x2a8
1a0005a2:	f005 fd51 	bl	1a006048 <siprintf>
    r = f_puts( buf, &file );
1a0005a6:	a906      	add	r1, sp, #24
1a0005a8:	a8aa      	add	r0, sp, #680	; 0x2a8
1a0005aa:	f002 fec7 	bl	1a00333c <f_puts>
    if (r < 1)
1a0005ae:	2800      	cmp	r0, #0
1a0005b0:	dd35      	ble.n	1a00061e <fatFsTest+0x162>
    fatFsTestOK( );
1a0005b2:	f7ff ff49 	bl	1a000448 <fatFsTestOK>
    f_close( &file );
1a0005b6:	a806      	add	r0, sp, #24
1a0005b8:	f002 fea1 	bl	1a0032fe <f_close>
    fatFsTestStart( "f_open( READ )" );
1a0005bc:	482b      	ldr	r0, [pc, #172]	; (1a00066c <fatFsTest+0x1b0>)
1a0005be:	f7ff ff33 	bl	1a000428 <fatFsTestStart>
    fr = f_open( &file, filename, FA_READ );
1a0005c2:	2201      	movs	r2, #1
1a0005c4:	a99a      	add	r1, sp, #616	; 0x268
1a0005c6:	a806      	add	r0, sp, #24
1a0005c8:	f002 f9ca 	bl	1a002960 <f_open>
    if( fr != FR_OK )
1a0005cc:	bb70      	cbnz	r0, 1a00062c <fatFsTest+0x170>
    fatFsTestOK( );
1a0005ce:	f7ff ff3b 	bl	1a000448 <fatFsTestOK>
    memset( buf, 0, sizeof(buf) );
1a0005d2:	f44f 6280 	mov.w	r2, #1024	; 0x400
1a0005d6:	2100      	movs	r1, #0
1a0005d8:	a8aa      	add	r0, sp, #680	; 0x2a8
1a0005da:	f005 fd2d 	bl	1a006038 <memset>
    UINT bytesLeidos = 0;
1a0005de:	2300      	movs	r3, #0
1a0005e0:	9305      	str	r3, [sp, #20]
     fatFsTestStart( "f_read" );
1a0005e2:	4823      	ldr	r0, [pc, #140]	; (1a000670 <fatFsTest+0x1b4>)
1a0005e4:	f7ff ff20 	bl	1a000428 <fatFsTestStart>
    fr = f_read( &file, buf, sizeof(buf), &bytesLeidos );
1a0005e8:	ab05      	add	r3, sp, #20
1a0005ea:	f44f 6280 	mov.w	r2, #1024	; 0x400
1a0005ee:	a9aa      	add	r1, sp, #680	; 0x2a8
1a0005f0:	a806      	add	r0, sp, #24
1a0005f2:	f002 fb1b 	bl	1a002c2c <f_read>
    if (fr != FR_OK)
1a0005f6:	b9e8      	cbnz	r0, 1a000634 <fatFsTest+0x178>
    fatFsTestOK( );
1a0005f8:	f7ff ff26 	bl	1a000448 <fatFsTestOK>
    f_close( &file );
1a0005fc:	a806      	add	r0, sp, #24
1a0005fe:	f002 fe7e 	bl	1a0032fe <f_close>
    log("\r\n");        
1a000602:	481c      	ldr	r0, [pc, #112]	; (1a000674 <fatFsTest+0x1b8>)
1a000604:	f7ff ff00 	bl	1a000408 <log>
    log(">>>> INICIO CONTENIDO DEL ARCHIVO LEIDO >>>>\r\n");    
1a000608:	481b      	ldr	r0, [pc, #108]	; (1a000678 <fatFsTest+0x1bc>)
1a00060a:	f7ff fefd 	bl	1a000408 <log>
    log(buf );
1a00060e:	a8aa      	add	r0, sp, #680	; 0x2a8
1a000610:	f7ff fefa 	bl	1a000408 <log>
    log("<<<< FIN CONTENIDO DEL ARCHIVO LEIDO <<<<\r\n");    
1a000614:	4819      	ldr	r0, [pc, #100]	; (1a00067c <fatFsTest+0x1c0>)
1a000616:	f7ff fef7 	bl	1a000408 <log>
    return true;   
1a00061a:	2001      	movs	r0, #1
1a00061c:	e789      	b.n	1a000532 <fatFsTest+0x76>
       fatFsTestERROR( r );
1a00061e:	f7ff ff3d 	bl	1a00049c <fatFsTestERROR>
       f_close( &file );
1a000622:	a806      	add	r0, sp, #24
1a000624:	f002 fe6b 	bl	1a0032fe <f_close>
       return false;
1a000628:	2000      	movs	r0, #0
1a00062a:	e782      	b.n	1a000532 <fatFsTest+0x76>
       fatFsTestERROR( fr );
1a00062c:	f7ff ff36 	bl	1a00049c <fatFsTestERROR>
       return false;
1a000630:	2000      	movs	r0, #0
1a000632:	e77e      	b.n	1a000532 <fatFsTest+0x76>
       fatFsTestERROR( fr );
1a000634:	f7ff ff32 	bl	1a00049c <fatFsTestERROR>
       return false;
1a000638:	2000      	movs	r0, #0
1a00063a:	e77a      	b.n	1a000532 <fatFsTest+0x76>
1a00063c:	1a006998 	.word	0x1a006998
1a000640:	1a00699c 	.word	0x1a00699c
1a000644:	1a0069a8 	.word	0x1a0069a8
1a000648:	1a0069d8 	.word	0x1a0069d8
1a00064c:	1a0069f4 	.word	0x1a0069f4
1a000650:	1a006a20 	.word	0x1a006a20
1a000654:	1a006a30 	.word	0x1a006a30
1a000658:	1a006a38 	.word	0x1a006a38
1a00065c:	1a006a70 	.word	0x1a006a70
1a000660:	1a006a78 	.word	0x1a006a78
1a000664:	1a006a84 	.word	0x1a006a84
1a000668:	1a006a90 	.word	0x1a006a90
1a00066c:	1a006b08 	.word	0x1a006b08
1a000670:	1a006b18 	.word	0x1a006b18
1a000674:	1a00786c 	.word	0x1a00786c
1a000678:	1a006b20 	.word	0x1a006b20
1a00067c:	1a006b50 	.word	0x1a006b50

1a000680 <println>:
void println(char *str) {
1a000680:	b508      	push	{r3, lr}
1a000682:	4601      	mov	r1, r0
    uartWriteString( UART_USB, str );
1a000684:	2003      	movs	r0, #3
1a000686:	f003 fba2 	bl	1a003dce <uartWriteString>
    uartWriteString( UART_USB, "\r\n" );
1a00068a:	4902      	ldr	r1, [pc, #8]	; (1a000694 <println+0x14>)
1a00068c:	2003      	movs	r0, #3
1a00068e:	f003 fb9e 	bl	1a003dce <uartWriteString>
}
1a000692:	bd08      	pop	{r3, pc}
1a000694:	1a00786c 	.word	0x1a00786c

1a000698 <main>:
// FUNCION PRINCIPAL, PUNTO DE ENTRADA AL PROGRAMA LUEGO DE ENCENDIDO O RESET.
int main( void )
{
1a000698:	b530      	push	{r4, r5, lr}
1a00069a:	f2ad 4d0c 	subw	sp, sp, #1036	; 0x40c
    uint8_t count;
    uint8_t v;
    // ---------- CONFIGURACIONES ------------------------------

    // Inicializar y configurar la plataforma
    boardConfig();
1a00069e:	f003 fcf9 	bl	1a004094 <boardInit>
    spiConfig( SPI0 );
1a0006a2:	2000      	movs	r0, #0
1a0006a4:	f003 fba8 	bl	1a003df8 <spiInit>
    
    // Inicializar el conteo de Ticks con resolucion de 10ms,
    // con tickHook diskTickHook
    tickConfig( 10 );
1a0006a8:	200a      	movs	r0, #10
1a0006aa:	2100      	movs	r1, #0
1a0006ac:	f003 fa64 	bl	1a003b78 <tickInit>
    tickCallbackSet( diskTickHook, NULL );
1a0006b0:	2100      	movs	r1, #0
1a0006b2:	48a5      	ldr	r0, [pc, #660]	; (1a000948 <main+0x2b0>)
1a0006b4:	f003 fa44 	bl	1a003b40 <tickCallbackSet>

    /* Inicializar Uart */
    uartConfig( UART_USB, BAUD_RATE );
1a0006b8:	f44f 31e1 	mov.w	r1, #115200	; 0x1c200
1a0006bc:	2003      	movs	r0, #3
1a0006be:	f003 fb3b 	bl	1a003d38 <uartInit>
    literal("\e[2J");  // Escape command: Clear screen
1a0006c2:	48a2      	ldr	r0, [pc, #648]	; (1a00094c <main+0x2b4>)
1a0006c4:	f7ff fec8 	bl	1a000458 <literal>
    println("");
1a0006c8:	4ca1      	ldr	r4, [pc, #644]	; (1a000950 <main+0x2b8>)
1a0006ca:	4620      	mov	r0, r4
1a0006cc:	f7ff ffd8 	bl	1a000680 <println>
    println("");
1a0006d0:	4620      	mov	r0, r4
1a0006d2:	f7ff ffd5 	bl	1a000680 <println>
    println("");
1a0006d6:	4620      	mov	r0, r4
1a0006d8:	f7ff ffd2 	bl	1a000680 <println>
    println("New boot...");
1a0006dc:	489d      	ldr	r0, [pc, #628]	; (1a000954 <main+0x2bc>)
1a0006de:	f7ff ffcf 	bl	1a000680 <println>
    println("");
1a0006e2:	4620      	mov	r0, r4
1a0006e4:	f7ff ffcc 	bl	1a000680 <println>
    
    log("I2C bus start");
1a0006e8:	489b      	ldr	r0, [pc, #620]	; (1a000958 <main+0x2c0>)
1a0006ea:	f7ff fe8d 	bl	1a000408 <log>
    i2cInit(I2C0, 100000);
1a0006ee:	499b      	ldr	r1, [pc, #620]	; (1a00095c <main+0x2c4>)
1a0006f0:	2000      	movs	r0, #0
1a0006f2:	f003 fc1d 	bl	1a003f30 <i2cInit>

    /* Inicializar el conteo de Ticks con resolucin de 1ms, sin tickHook */
    //tickConfig( 1, 0 );

    /* Inicializar GPIOs */
    gpioConfig( 0, GPIO_ENABLE );
1a0006f6:	2105      	movs	r1, #5
1a0006f8:	2000      	movs	r0, #0
1a0006fa:	f003 f8fb 	bl	1a0038f4 <gpioInit>

    /* Configuracin de pines de salida para Leds de la CIAA-NXP */
    gpioConfig( DO0, GPIO_OUTPUT );
1a0006fe:	2101      	movs	r1, #1
1a000700:	2036      	movs	r0, #54	; 0x36
1a000702:	f003 f8f7 	bl	1a0038f4 <gpioInit>
    gpioConfig( DO1, GPIO_OUTPUT );
1a000706:	2101      	movs	r1, #1
1a000708:	2037      	movs	r0, #55	; 0x37
1a00070a:	f003 f8f3 	bl	1a0038f4 <gpioInit>
    gpioConfig( DO2, GPIO_OUTPUT );
1a00070e:	2101      	movs	r1, #1
1a000710:	2038      	movs	r0, #56	; 0x38
1a000712:	f003 f8ef 	bl	1a0038f4 <gpioInit>
    gpioConfig( DO3, GPIO_OUTPUT );
1a000716:	2101      	movs	r1, #1
1a000718:	2039      	movs	r0, #57	; 0x39
1a00071a:	f003 f8eb 	bl	1a0038f4 <gpioInit>
    gpioConfig( DO4, GPIO_OUTPUT );
1a00071e:	2101      	movs	r1, #1
1a000720:	203a      	movs	r0, #58	; 0x3a
1a000722:	f003 f8e7 	bl	1a0038f4 <gpioInit>
    gpioConfig( DO5, GPIO_OUTPUT );
1a000726:	2101      	movs	r1, #1
1a000728:	203b      	movs	r0, #59	; 0x3b
1a00072a:	f003 f8e3 	bl	1a0038f4 <gpioInit>
    gpioConfig( DO6, GPIO_OUTPUT );
1a00072e:	2101      	movs	r1, #1
1a000730:	203c      	movs	r0, #60	; 0x3c
1a000732:	f003 f8df 	bl	1a0038f4 <gpioInit>
    gpioConfig( DO7, GPIO_OUTPUT );    
1a000736:	2101      	movs	r1, #1
1a000738:	203d      	movs	r0, #61	; 0x3d
1a00073a:	f003 f8db 	bl	1a0038f4 <gpioInit>
    
    reset_all_douts();
1a00073e:	f7ff fe15 	bl	1a00036c <reset_all_douts>
   
   /* Inicializar ADC128D818 */
    result = ADC128D818_init(ADC128D818_ADDRESS_LOW_LOW, 
1a000742:	2300      	movs	r3, #0
1a000744:	9300      	str	r3, [sp, #0]
1a000746:	ed9f 0b7e 	vldr	d0, [pc, #504]	; 1a000940 <main+0x2a8>
1a00074a:	2203      	movs	r2, #3
1a00074c:	2101      	movs	r1, #1
1a00074e:	201d      	movs	r0, #29
1a000750:	f002 ff46 	bl	1a0035e0 <ADC128D818_init>
                   ADC128D818_VREF_INT, 
                   0,
                   0);


    if (!result) {
1a000754:	2800      	cmp	r0, #0
1a000756:	d049      	beq.n	1a0007ec <main+0x154>
        logError("No device ADC128D818 or device busy");
    }

    /* Inicializar ADC128D818 */
    result = ADC128D818_init(ADC128D818_ADDRESS_HIGH_HIGH, 
1a000758:	2300      	movs	r3, #0
1a00075a:	9300      	str	r3, [sp, #0]
1a00075c:	ed9f 0b78 	vldr	d0, [pc, #480]	; 1a000940 <main+0x2a8>
1a000760:	2203      	movs	r2, #3
1a000762:	2101      	movs	r1, #1
1a000764:	2037      	movs	r0, #55	; 0x37
1a000766:	f002 ff3b 	bl	1a0035e0 <ADC128D818_init>
                   ADC128D818_VREF_INT, 
                   0,
                   0);


    if (!result) {
1a00076a:	2800      	cmp	r0, #0
1a00076c:	d042      	beq.n	1a0007f4 <main+0x15c>
        logError("No device ADC128D818 or device busy");
    }

    log("");
1a00076e:	4c78      	ldr	r4, [pc, #480]	; (1a000950 <main+0x2b8>)
1a000770:	4620      	mov	r0, r4
1a000772:	f7ff fe49 	bl	1a000408 <log>
    log("");
1a000776:	4620      	mov	r0, r4
1a000778:	f7ff fe46 	bl	1a000408 <log>
    count = 0;
    
    log("Iniciando sdcard con configuracion:" );
1a00077c:	4878      	ldr	r0, [pc, #480]	; (1a000960 <main+0x2c8>)
1a00077e:	f7ff fe43 	bl	1a000408 <log>
    strcpy(buff, "  * Starting speed ");
1a000782:	4978      	ldr	r1, [pc, #480]	; (1a000964 <main+0x2cc>)
1a000784:	a802      	add	r0, sp, #8
1a000786:	f005 fc8e 	bl	1a0060a6 <strcpy>
    strcat(buff, intToString(FSSDC_GetSlowClock()));
1a00078a:	f005 f9d1 	bl	1a005b30 <FSSDC_GetSlowClock>
1a00078e:	2500      	movs	r5, #0
1a000790:	4629      	mov	r1, r5
1a000792:	f003 f87b 	bl	1a00388c <intToString>
1a000796:	4601      	mov	r1, r0
1a000798:	a802      	add	r0, sp, #8
1a00079a:	f005 fc75 	bl	1a006088 <strcat>
    strcat(buff, " Hz");
1a00079e:	4c72      	ldr	r4, [pc, #456]	; (1a000968 <main+0x2d0>)
1a0007a0:	4621      	mov	r1, r4
1a0007a2:	a802      	add	r0, sp, #8
1a0007a4:	f005 fc70 	bl	1a006088 <strcat>
    log(buff);    
1a0007a8:	a802      	add	r0, sp, #8
1a0007aa:	f7ff fe2d 	bl	1a000408 <log>
    strcpy(buff, "  * Working speed ");
1a0007ae:	496f      	ldr	r1, [pc, #444]	; (1a00096c <main+0x2d4>)
1a0007b0:	a802      	add	r0, sp, #8
1a0007b2:	f005 fc78 	bl	1a0060a6 <strcpy>
    strcat(buff, intToString(FSSDC_GetFastClock()));
1a0007b6:	f005 f9c1 	bl	1a005b3c <FSSDC_GetFastClock>
1a0007ba:	4629      	mov	r1, r5
1a0007bc:	f003 f866 	bl	1a00388c <intToString>
1a0007c0:	4601      	mov	r1, r0
1a0007c2:	a802      	add	r0, sp, #8
1a0007c4:	f005 fc60 	bl	1a006088 <strcat>
    strcat(buff, " Hz");
1a0007c8:	4621      	mov	r1, r4
1a0007ca:	a802      	add	r0, sp, #8
1a0007cc:	f005 fc5c 	bl	1a006088 <strcat>
    log(buff);    
1a0007d0:	a802      	add	r0, sp, #8
1a0007d2:	f7ff fe19 	bl	1a000408 <log>
    if (sdcardInit( &sdcard ) == false) {
1a0007d6:	4866      	ldr	r0, [pc, #408]	; (1a000970 <main+0x2d8>)
1a0007d8:	f002 fe30 	bl	1a00343c <sdcardInit>
1a0007dc:	b970      	cbnz	r0, 1a0007fc <main+0x164>
        logError("SDCard init: FAIL.");        
1a0007de:	4865      	ldr	r0, [pc, #404]	; (1a000974 <main+0x2dc>)
1a0007e0:	f7ff fe40 	bl	1a000464 <logError>
    } else {
        log("SDCard init: success" );
    }

    fatFsTest();
1a0007e4:	f7ff fe6a 	bl	1a0004bc <fatFsTest>
    count = 0;
1a0007e8:	2500      	movs	r5, #0
1a0007ea:	e095      	b.n	1a000918 <main+0x280>
        logError("No device ADC128D818 or device busy");
1a0007ec:	4862      	ldr	r0, [pc, #392]	; (1a000978 <main+0x2e0>)
1a0007ee:	f7ff fe39 	bl	1a000464 <logError>
1a0007f2:	e7b1      	b.n	1a000758 <main+0xc0>
        logError("No device ADC128D818 or device busy");
1a0007f4:	4860      	ldr	r0, [pc, #384]	; (1a000978 <main+0x2e0>)
1a0007f6:	f7ff fe35 	bl	1a000464 <logError>
1a0007fa:	e7b8      	b.n	1a00076e <main+0xd6>
        log("SDCard init: success" );
1a0007fc:	485f      	ldr	r0, [pc, #380]	; (1a00097c <main+0x2e4>)
1a0007fe:	f7ff fe03 	bl	1a000408 <log>
1a000802:	e7ef      	b.n	1a0007e4 <main+0x14c>
    // ---------- REPETIR POR SIEMPRE --------------------------
    while( TRUE ) {
      
        for (i=0; i<8; i++) {
            strcpy(buff, "Chip U15.  AN#");
1a000804:	495e      	ldr	r1, [pc, #376]	; (1a000980 <main+0x2e8>)
1a000806:	a802      	add	r0, sp, #8
1a000808:	f005 fc4d 	bl	1a0060a6 <strcpy>
            p=intToString(i);
1a00080c:	4620      	mov	r0, r4
1a00080e:	17e1      	asrs	r1, r4, #31
1a000810:	f003 f83c 	bl	1a00388c <intToString>
1a000814:	4601      	mov	r1, r0
            strcat(buff, p);
1a000816:	a802      	add	r0, sp, #8
1a000818:	f005 fc36 	bl	1a006088 <strcat>
            strcat(buff, ": ");
1a00081c:	4959      	ldr	r1, [pc, #356]	; (1a000984 <main+0x2ec>)
1a00081e:	a802      	add	r0, sp, #8
1a000820:	f005 fc32 	bl	1a006088 <strcat>
            int16_t v = ADC128D818_readChannel(ADC128D818_ADDRESS_HIGH_HIGH, i);
1a000824:	b2e1      	uxtb	r1, r4
1a000826:	2037      	movs	r0, #55	; 0x37
1a000828:	f002 feb9 	bl	1a00359e <ADC128D818_readChannel>
            p=intToString(v);
1a00082c:	b200      	sxth	r0, r0
1a00082e:	17c1      	asrs	r1, r0, #31
1a000830:	f003 f82c 	bl	1a00388c <intToString>
1a000834:	4601      	mov	r1, r0
            strcat(buff, p);
1a000836:	a802      	add	r0, sp, #8
1a000838:	f005 fc26 	bl	1a006088 <strcat>
            strcat(buff, "                              ");
1a00083c:	4952      	ldr	r1, [pc, #328]	; (1a000988 <main+0x2f0>)
1a00083e:	a802      	add	r0, sp, #8
1a000840:	f005 fc22 	bl	1a006088 <strcat>
            log(buff);
1a000844:	a802      	add	r0, sp, #8
1a000846:	f7ff fddf 	bl	1a000408 <log>
        for (i=0; i<8; i++) {
1a00084a:	3401      	adds	r4, #1
1a00084c:	2c07      	cmp	r4, #7
1a00084e:	ddd9      	ble.n	1a000804 <main+0x16c>
        }

        for (i=0; i<8; i++) {
1a000850:	2400      	movs	r4, #0
1a000852:	e023      	b.n	1a00089c <main+0x204>
            if (i<2)
              strcpy(buff, "Chip U13.  AN#");
1a000854:	494d      	ldr	r1, [pc, #308]	; (1a00098c <main+0x2f4>)
1a000856:	a802      	add	r0, sp, #8
1a000858:	f005 fc25 	bl	1a0060a6 <strcpy>
            else
              strcpy(buff, "Chip U13. AN#");
            p=intToString(i+8);
1a00085c:	f104 0008 	add.w	r0, r4, #8
1a000860:	17c1      	asrs	r1, r0, #31
1a000862:	f003 f813 	bl	1a00388c <intToString>
1a000866:	4601      	mov	r1, r0
            strcat(buff, p);
1a000868:	a802      	add	r0, sp, #8
1a00086a:	f005 fc0d 	bl	1a006088 <strcat>
            strcat(buff, ": ");
1a00086e:	4945      	ldr	r1, [pc, #276]	; (1a000984 <main+0x2ec>)
1a000870:	a802      	add	r0, sp, #8
1a000872:	f005 fc09 	bl	1a006088 <strcat>
            p=intToString(ADC128D818_readChannel(ADC128D818_ADDRESS_LOW_LOW, i));
1a000876:	b2e1      	uxtb	r1, r4
1a000878:	201d      	movs	r0, #29
1a00087a:	f002 fe90 	bl	1a00359e <ADC128D818_readChannel>
1a00087e:	2100      	movs	r1, #0
1a000880:	f003 f804 	bl	1a00388c <intToString>
1a000884:	4601      	mov	r1, r0
            strcat(buff, p);
1a000886:	a802      	add	r0, sp, #8
1a000888:	f005 fbfe 	bl	1a006088 <strcat>
            strcat(buff, "     ");
1a00088c:	4940      	ldr	r1, [pc, #256]	; (1a000990 <main+0x2f8>)
1a00088e:	a802      	add	r0, sp, #8
1a000890:	f005 fbfa 	bl	1a006088 <strcat>
            log(buff);
1a000894:	a802      	add	r0, sp, #8
1a000896:	f7ff fdb7 	bl	1a000408 <log>
        for (i=0; i<8; i++) {
1a00089a:	3401      	adds	r4, #1
1a00089c:	2c07      	cmp	r4, #7
1a00089e:	dc06      	bgt.n	1a0008ae <main+0x216>
            if (i<2)
1a0008a0:	2c01      	cmp	r4, #1
1a0008a2:	ddd7      	ble.n	1a000854 <main+0x1bc>
              strcpy(buff, "Chip U13. AN#");
1a0008a4:	493b      	ldr	r1, [pc, #236]	; (1a000994 <main+0x2fc>)
1a0008a6:	a802      	add	r0, sp, #8
1a0008a8:	f005 fbfd 	bl	1a0060a6 <strcpy>
1a0008ac:	e7d6      	b.n	1a00085c <main+0x1c4>
        }
        log("=============================================");
1a0008ae:	483a      	ldr	r0, [pc, #232]	; (1a000998 <main+0x300>)
1a0008b0:	f7ff fdaa 	bl	1a000408 <log>
        log(" Start/Stop: press space");
1a0008b4:	4839      	ldr	r0, [pc, #228]	; (1a00099c <main+0x304>)
1a0008b6:	f7ff fda7 	bl	1a000408 <log>

        while (uartRxReady( UART_USB )) {
1a0008ba:	2003      	movs	r0, #3
1a0008bc:	f003 fa10 	bl	1a003ce0 <uartRxReady>
1a0008c0:	4604      	mov	r4, r0
1a0008c2:	b168      	cbz	r0, 1a0008e0 <main+0x248>
            k = uartRxRead( UART_USB );
1a0008c4:	2003      	movs	r0, #3
1a0008c6:	f003 fa23 	bl	1a003d10 <uartRxRead>
            wait_key = TRUE;
            while (wait_key) {
                if (uartRxReady( UART_USB )) {
1a0008ca:	2003      	movs	r0, #3
1a0008cc:	f003 fa08 	bl	1a003ce0 <uartRxReady>
1a0008d0:	2800      	cmp	r0, #0
1a0008d2:	d0fa      	beq.n	1a0008ca <main+0x232>
                    char k = uartRxRead( UART_USB );
1a0008d4:	2003      	movs	r0, #3
1a0008d6:	f003 fa1b 	bl	1a003d10 <uartRxRead>
                    if (k == 32 ) wait_key = FALSE;
1a0008da:	2820      	cmp	r0, #32
1a0008dc:	d1f5      	bne.n	1a0008ca <main+0x232>
1a0008de:	e7ec      	b.n	1a0008ba <main+0x222>
                }
            }
        }
        delay(150);
1a0008e0:	2096      	movs	r0, #150	; 0x96
1a0008e2:	2100      	movs	r1, #0
1a0008e4:	f003 fab0 	bl	1a003e48 <delay>
        literal("\e[100D");   // Escape command: go left 100 (line start)
1a0008e8:	482d      	ldr	r0, [pc, #180]	; (1a0009a0 <main+0x308>)
1a0008ea:	f7ff fdb5 	bl	1a000458 <literal>
        literal("\e[18A");    // Escape command: go up 18
1a0008ee:	482d      	ldr	r0, [pc, #180]	; (1a0009a4 <main+0x30c>)
1a0008f0:	f7ff fdb2 	bl	1a000458 <literal>
        reset_all_douts();
1a0008f4:	f7ff fd3a 	bl	1a00036c <reset_all_douts>
        switch (count) {
1a0008f8:	2d03      	cmp	r5, #3
1a0008fa:	d807      	bhi.n	1a00090c <main+0x274>
1a0008fc:	e8df f005 	tbb	[pc, r5]
1a000900:	18130e02 	.word	0x18130e02
            case 0: gpioWrite( DO4, ON ); break;
1a000904:	2101      	movs	r1, #1
1a000906:	203a      	movs	r0, #58	; 0x3a
1a000908:	f003 f8be 	bl	1a003a88 <gpioWrite>
            case 1: gpioWrite( DO5, ON ); break;
            case 2: gpioWrite( DO6, ON ); break;
            case 3: gpioWrite( DO7, ON ); break;
        }
        count++;
1a00090c:	1c6b      	adds	r3, r5, #1
1a00090e:	b2db      	uxtb	r3, r3
        if (count>=4) count = 0;
1a000910:	2b03      	cmp	r3, #3
1a000912:	d800      	bhi.n	1a000916 <main+0x27e>
        count++;
1a000914:	461c      	mov	r4, r3
1a000916:	4625      	mov	r5, r4
        for (i=0; i<8; i++) {
1a000918:	2400      	movs	r4, #0
1a00091a:	e797      	b.n	1a00084c <main+0x1b4>
            case 1: gpioWrite( DO5, ON ); break;
1a00091c:	2101      	movs	r1, #1
1a00091e:	203b      	movs	r0, #59	; 0x3b
1a000920:	f003 f8b2 	bl	1a003a88 <gpioWrite>
1a000924:	e7f2      	b.n	1a00090c <main+0x274>
            case 2: gpioWrite( DO6, ON ); break;
1a000926:	2101      	movs	r1, #1
1a000928:	203c      	movs	r0, #60	; 0x3c
1a00092a:	f003 f8ad 	bl	1a003a88 <gpioWrite>
1a00092e:	e7ed      	b.n	1a00090c <main+0x274>
            case 3: gpioWrite( DO7, ON ); break;
1a000930:	2101      	movs	r1, #1
1a000932:	203d      	movs	r0, #61	; 0x3d
1a000934:	f003 f8a8 	bl	1a003a88 <gpioWrite>
1a000938:	e7e8      	b.n	1a00090c <main+0x274>
1a00093a:	bf00      	nop
1a00093c:	f3af 8000 	nop.w
	...
1a000948:	1a000301 	.word	0x1a000301
1a00094c:	1a006b7c 	.word	0x1a006b7c
1a000950:	1a00719c 	.word	0x1a00719c
1a000954:	1a006b84 	.word	0x1a006b84
1a000958:	1a006b90 	.word	0x1a006b90
1a00095c:	000186a0 	.word	0x000186a0
1a000960:	1a006bc4 	.word	0x1a006bc4
1a000964:	1a006be8 	.word	0x1a006be8
1a000968:	1a006bfc 	.word	0x1a006bfc
1a00096c:	1a006c00 	.word	0x1a006c00
1a000970:	10000600 	.word	0x10000600
1a000974:	1a006c14 	.word	0x1a006c14
1a000978:	1a006ba0 	.word	0x1a006ba0
1a00097c:	1a006c28 	.word	0x1a006c28
1a000980:	1a006c40 	.word	0x1a006c40
1a000984:	1a006c50 	.word	0x1a006c50
1a000988:	1a006c54 	.word	0x1a006c54
1a00098c:	1a006c74 	.word	0x1a006c74
1a000990:	1a006c94 	.word	0x1a006c94
1a000994:	1a006c84 	.word	0x1a006c84
1a000998:	1a006c9c 	.word	0x1a006c9c
1a00099c:	1a006ccc 	.word	0x1a006ccc
1a0009a0:	1a006ce8 	.word	0x1a006ce8
1a0009a4:	1a006cf0 	.word	0x1a006cf0

1a0009a8 <ld_word>:

static WORD ld_word (const BYTE* ptr)	/*	 Load a 2-byte little-endian word */
{
	WORD rv;

	rv = ptr[1];
1a0009a8:	7842      	ldrb	r2, [r0, #1]
	rv = rv << 8 | ptr[0];
1a0009aa:	7800      	ldrb	r0, [r0, #0]
	return rv;
}
1a0009ac:	ea40 2002 	orr.w	r0, r0, r2, lsl #8
1a0009b0:	4770      	bx	lr

1a0009b2 <ld_dword>:

static DWORD ld_dword (const BYTE* ptr)	/* Load a 4-byte little-endian word */
{
	DWORD rv;

	rv = ptr[3];
1a0009b2:	78c2      	ldrb	r2, [r0, #3]
	rv = rv << 8 | ptr[2];
1a0009b4:	7883      	ldrb	r3, [r0, #2]
1a0009b6:	ea43 2202 	orr.w	r2, r3, r2, lsl #8
	rv = rv << 8 | ptr[1];
1a0009ba:	7843      	ldrb	r3, [r0, #1]
1a0009bc:	ea43 2302 	orr.w	r3, r3, r2, lsl #8
	rv = rv << 8 | ptr[0];
1a0009c0:	7800      	ldrb	r0, [r0, #0]
	return rv;
}
1a0009c2:	ea40 2003 	orr.w	r0, r0, r3, lsl #8
1a0009c6:	4770      	bx	lr

1a0009c8 <ld_qword>:

#if FF_FS_EXFAT
static QWORD ld_qword (const BYTE* ptr)	/* Load an 8-byte little-endian word */
{
1a0009c8:	b430      	push	{r4, r5}
	QWORD rv;

	rv = ptr[7];
1a0009ca:	79c4      	ldrb	r4, [r0, #7]
	rv = rv << 8 | ptr[6];
1a0009cc:	7982      	ldrb	r2, [r0, #6]
1a0009ce:	ea42 2204 	orr.w	r2, r2, r4, lsl #8
	rv = rv << 8 | ptr[5];
1a0009d2:	7944      	ldrb	r4, [r0, #5]
1a0009d4:	ea44 2102 	orr.w	r1, r4, r2, lsl #8
	rv = rv << 8 | ptr[4];
1a0009d8:	f3c2 4307 	ubfx	r3, r2, #16, #8
1a0009dc:	7904      	ldrb	r4, [r0, #4]
1a0009de:	ea44 2101 	orr.w	r1, r4, r1, lsl #8
	rv = rv << 8 | ptr[3];
1a0009e2:	021b      	lsls	r3, r3, #8
1a0009e4:	ea43 6311 	orr.w	r3, r3, r1, lsr #24
1a0009e8:	78c4      	ldrb	r4, [r0, #3]
1a0009ea:	ea44 2101 	orr.w	r1, r4, r1, lsl #8
	rv = rv << 8 | ptr[2];
1a0009ee:	021b      	lsls	r3, r3, #8
1a0009f0:	ea43 6311 	orr.w	r3, r3, r1, lsr #24
1a0009f4:	7884      	ldrb	r4, [r0, #2]
1a0009f6:	ea44 2101 	orr.w	r1, r4, r1, lsl #8
	rv = rv << 8 | ptr[1];
1a0009fa:	021b      	lsls	r3, r3, #8
1a0009fc:	ea43 6311 	orr.w	r3, r3, r1, lsr #24
1a000a00:	7844      	ldrb	r4, [r0, #1]
1a000a02:	ea44 2101 	orr.w	r1, r4, r1, lsl #8
	rv = rv << 8 | ptr[0];
1a000a06:	021b      	lsls	r3, r3, #8
1a000a08:	7804      	ldrb	r4, [r0, #0]
	return rv;
}
1a000a0a:	ea44 2001 	orr.w	r0, r4, r1, lsl #8
1a000a0e:	ea43 6111 	orr.w	r1, r3, r1, lsr #24
1a000a12:	bc30      	pop	{r4, r5}
1a000a14:	4770      	bx	lr

1a000a16 <st_word>:
#endif

#if !FF_FS_READONLY
static void st_word (BYTE* ptr, WORD val)	/* Store a 2-byte word in little-endian */
{
	*ptr++ = (BYTE)val; val >>= 8;
1a000a16:	7001      	strb	r1, [r0, #0]
	*ptr++ = (BYTE)val;
1a000a18:	0a09      	lsrs	r1, r1, #8
1a000a1a:	7041      	strb	r1, [r0, #1]
}
1a000a1c:	4770      	bx	lr

1a000a1e <st_dword>:

static void st_dword (BYTE* ptr, DWORD val)	/* Store a 4-byte word in little-endian */
{
	*ptr++ = (BYTE)val; val >>= 8;
1a000a1e:	7001      	strb	r1, [r0, #0]
	*ptr++ = (BYTE)val; val >>= 8;
1a000a20:	f3c1 2307 	ubfx	r3, r1, #8, #8
1a000a24:	7043      	strb	r3, [r0, #1]
	*ptr++ = (BYTE)val; val >>= 8;
1a000a26:	f3c1 4307 	ubfx	r3, r1, #16, #8
1a000a2a:	7083      	strb	r3, [r0, #2]
	*ptr++ = (BYTE)val;
1a000a2c:	0e09      	lsrs	r1, r1, #24
1a000a2e:	70c1      	strb	r1, [r0, #3]
}
1a000a30:	4770      	bx	lr

1a000a32 <st_qword>:

#if FF_FS_EXFAT
static void st_qword (BYTE* ptr, QWORD val)	/* Store an 8-byte word in little-endian */
{
	*ptr++ = (BYTE)val; val >>= 8;
1a000a32:	7002      	strb	r2, [r0, #0]
	*ptr++ = (BYTE)val; val >>= 8;
1a000a34:	f3c2 2107 	ubfx	r1, r2, #8, #8
1a000a38:	7041      	strb	r1, [r0, #1]
	*ptr++ = (BYTE)val; val >>= 8;
1a000a3a:	f3c2 4107 	ubfx	r1, r2, #16, #8
1a000a3e:	7081      	strb	r1, [r0, #2]
	*ptr++ = (BYTE)val; val >>= 8;
1a000a40:	0e12      	lsrs	r2, r2, #24
1a000a42:	70c2      	strb	r2, [r0, #3]
	*ptr++ = (BYTE)val; val >>= 8;
1a000a44:	7103      	strb	r3, [r0, #4]
	*ptr++ = (BYTE)val; val >>= 8;
1a000a46:	f3c3 2207 	ubfx	r2, r3, #8, #8
1a000a4a:	7142      	strb	r2, [r0, #5]
	*ptr++ = (BYTE)val; val >>= 8;
1a000a4c:	f3c3 4207 	ubfx	r2, r3, #16, #8
1a000a50:	7182      	strb	r2, [r0, #6]
	*ptr++ = (BYTE)val;
1a000a52:	0e1b      	lsrs	r3, r3, #24
1a000a54:	71c3      	strb	r3, [r0, #7]
}
1a000a56:	4770      	bx	lr

1a000a58 <mem_cpy>:
/* String functions                                                      */
/*-----------------------------------------------------------------------*/

/* Copy memory to memory */
static void mem_cpy (void* dst, const void* src, UINT cnt)
{
1a000a58:	b410      	push	{r4}
	BYTE *d = (BYTE*)dst;
	const BYTE *s = (const BYTE*)src;

	if (cnt != 0) {
1a000a5a:	4614      	mov	r4, r2
1a000a5c:	b12a      	cbz	r2, 1a000a6a <mem_cpy+0x12>
		do {
			*d++ = *s++;
1a000a5e:	780a      	ldrb	r2, [r1, #0]
1a000a60:	3101      	adds	r1, #1
1a000a62:	7002      	strb	r2, [r0, #0]
1a000a64:	3001      	adds	r0, #1
		} while (--cnt);
1a000a66:	3c01      	subs	r4, #1
1a000a68:	d1f9      	bne.n	1a000a5e <mem_cpy+0x6>
	}
}
1a000a6a:	f85d 4b04 	ldr.w	r4, [sp], #4
1a000a6e:	4770      	bx	lr

1a000a70 <mem_set>:
static void mem_set (void* dst, int val, UINT cnt)
{
	BYTE *d = (BYTE*)dst;

	do {
		*d++ = (BYTE)val;
1a000a70:	7001      	strb	r1, [r0, #0]
1a000a72:	3001      	adds	r0, #1
	} while (--cnt);
1a000a74:	3a01      	subs	r2, #1
1a000a76:	d1fb      	bne.n	1a000a70 <mem_set>
}
1a000a78:	4770      	bx	lr

1a000a7a <mem_cmp>:


/* Compare memory block */
static int mem_cmp (const void* dst, const void* src, UINT cnt)	/* ZR:same, NZ:different */
{
1a000a7a:	b410      	push	{r4}
1a000a7c:	4604      	mov	r4, r0
	const BYTE *d = (const BYTE *)dst, *s = (const BYTE *)src;
	int r = 0;

	do {
		r = *d++ - *s++;
1a000a7e:	7820      	ldrb	r0, [r4, #0]
1a000a80:	3401      	adds	r4, #1
1a000a82:	780b      	ldrb	r3, [r1, #0]
1a000a84:	3101      	adds	r1, #1
1a000a86:	1ac0      	subs	r0, r0, r3
	} while (--cnt && r == 0);
1a000a88:	3a01      	subs	r2, #1
1a000a8a:	d001      	beq.n	1a000a90 <mem_cmp+0x16>
1a000a8c:	2800      	cmp	r0, #0
1a000a8e:	d0f6      	beq.n	1a000a7e <mem_cmp+0x4>

	return r;
}
1a000a90:	f85d 4b04 	ldr.w	r4, [sp], #4
1a000a94:	4770      	bx	lr

1a000a96 <chk_chr>:


/* Check if chr is contained in the string */
static int chk_chr (const char* str, int chr)	/* NZ:contained, ZR:not contained */
{
1a000a96:	4603      	mov	r3, r0
	while (*str && *str != chr) str++;
1a000a98:	7818      	ldrb	r0, [r3, #0]
1a000a9a:	b118      	cbz	r0, 1a000aa4 <chk_chr+0xe>
1a000a9c:	4288      	cmp	r0, r1
1a000a9e:	d001      	beq.n	1a000aa4 <chk_chr+0xe>
1a000aa0:	3301      	adds	r3, #1
1a000aa2:	e7f9      	b.n	1a000a98 <chk_chr+0x2>
	return *str;
}
1a000aa4:	4770      	bx	lr

1a000aa6 <dbc_1st>:
	}
#else						/* SBCS fixed code page */
	if (c != 0) return 0;	/* Always false */
#endif
	return 0;
}
1a000aa6:	2000      	movs	r0, #0
1a000aa8:	4770      	bx	lr
1a000aaa:	Address 0x000000001a000aaa is out of bounds.


1a000aac <tchar2uni>:

/* Get a character from TCHAR string in defined API encodeing */
static DWORD tchar2uni (	/* Returns character in UTF-16 encoding (>=0x10000 on double encoding unit, 0xFFFFFFFF on decode error) */
	const TCHAR** str		/* Pointer to pointer to TCHAR string in configured encoding */
)
{
1a000aac:	b430      	push	{r4, r5}
1a000aae:	4605      	mov	r5, r0

#elif FF_LFN_UNICODE == 2	/* UTF-8 input */
	BYTE b;
	int nf;

	uc = (BYTE)*p++;	/* Get a unit */
1a000ab0:	6802      	ldr	r2, [r0, #0]
1a000ab2:	f812 3b01 	ldrb.w	r3, [r2], #1
1a000ab6:	4618      	mov	r0, r3
	if (uc & 0x80) {	/* Multiple byte code? */
1a000ab8:	f013 0f80 	tst.w	r3, #128	; 0x80
1a000abc:	d102      	bne.n	1a000ac4 <tchar2uni+0x18>
		if (wc == 0) return 0xFFFFFFFF;	/* Invalid code? */
	}
	uc = wc;

#endif
	*str = p;	/* Next read pointer */
1a000abe:	602a      	str	r2, [r5, #0]
	return uc;
}
1a000ac0:	bc30      	pop	{r4, r5}
1a000ac2:	4770      	bx	lr
		if ((uc & 0xE0) == 0xC0) {	/* 2-byte sequence? */
1a000ac4:	f003 01e0 	and.w	r1, r3, #224	; 0xe0
1a000ac8:	29c0      	cmp	r1, #192	; 0xc0
1a000aca:	d00b      	beq.n	1a000ae4 <tchar2uni+0x38>
			if ((uc & 0xF0) == 0xE0) {	/* 3-byte sequence? */
1a000acc:	f003 01f0 	and.w	r1, r3, #240	; 0xf0
1a000ad0:	29e0      	cmp	r1, #224	; 0xe0
1a000ad2:	d031      	beq.n	1a000b38 <tchar2uni+0x8c>
				if ((uc & 0xF8) == 0xF0) {	/* 4-byte sequence? */
1a000ad4:	f003 01f8 	and.w	r1, r3, #248	; 0xf8
1a000ad8:	29f0      	cmp	r1, #240	; 0xf0
1a000ada:	d131      	bne.n	1a000b40 <tchar2uni+0x94>
					uc &= 0x07; nf = 3;
1a000adc:	f003 0007 	and.w	r0, r3, #7
1a000ae0:	2103      	movs	r1, #3
1a000ae2:	e002      	b.n	1a000aea <tchar2uni+0x3e>
			uc &= 0x1F; nf = 1;
1a000ae4:	f003 001f 	and.w	r0, r3, #31
1a000ae8:	2101      	movs	r1, #1
			b = (BYTE)*p++;
1a000aea:	7813      	ldrb	r3, [r2, #0]
1a000aec:	3201      	adds	r2, #1
			if ((b & 0xC0) != 0x80) return 0xFFFFFFFF;	/* Wrong sequence? */
1a000aee:	f003 04c0 	and.w	r4, r3, #192	; 0xc0
1a000af2:	2c80      	cmp	r4, #128	; 0x80
1a000af4:	d127      	bne.n	1a000b46 <tchar2uni+0x9a>
			uc = uc << 6 | (b & 0x3F);
1a000af6:	f003 033f 	and.w	r3, r3, #63	; 0x3f
1a000afa:	ea43 1080 	orr.w	r0, r3, r0, lsl #6
		} while (--nf != 0);
1a000afe:	3901      	subs	r1, #1
1a000b00:	d1f3      	bne.n	1a000aea <tchar2uni+0x3e>
		if (uc < 0x80 || IsSurrogate(uc) || uc >= 0x110000) return 0xFFFFFFFF;	/* Wrong code? */
1a000b02:	287f      	cmp	r0, #127	; 0x7f
1a000b04:	d922      	bls.n	1a000b4c <tchar2uni+0xa0>
1a000b06:	f5a0 4358 	sub.w	r3, r0, #55296	; 0xd800
1a000b0a:	f5b3 6f00 	cmp.w	r3, #2048	; 0x800
1a000b0e:	d320      	bcc.n	1a000b52 <tchar2uni+0xa6>
1a000b10:	f5b0 1f88 	cmp.w	r0, #1114112	; 0x110000
1a000b14:	d220      	bcs.n	1a000b58 <tchar2uni+0xac>
		if (uc >= 0x010000) uc = 0xD800DC00 | ((uc - 0x10000) << 6 & 0x3FF0000) | (uc & 0x3FF);	/* Make a surrogate pair if needed */
1a000b16:	f5b0 3f80 	cmp.w	r0, #65536	; 0x10000
1a000b1a:	d3d0      	bcc.n	1a000abe <tchar2uni+0x12>
1a000b1c:	f5a0 3380 	sub.w	r3, r0, #65536	; 0x10000
1a000b20:	490f      	ldr	r1, [pc, #60]	; (1a000b60 <tchar2uni+0xb4>)
1a000b22:	ea01 1183 	and.w	r1, r1, r3, lsl #6
1a000b26:	f3c0 0309 	ubfx	r3, r0, #0, #10
1a000b2a:	ea41 0003 	orr.w	r0, r1, r3
1a000b2e:	f040 4058 	orr.w	r0, r0, #3623878656	; 0xd8000000
1a000b32:	f440 405c 	orr.w	r0, r0, #56320	; 0xdc00
1a000b36:	e7c2      	b.n	1a000abe <tchar2uni+0x12>
				uc &= 0x0F; nf = 2;
1a000b38:	f003 000f 	and.w	r0, r3, #15
1a000b3c:	2102      	movs	r1, #2
1a000b3e:	e7d4      	b.n	1a000aea <tchar2uni+0x3e>
					return 0xFFFFFFFF;
1a000b40:	f04f 30ff 	mov.w	r0, #4294967295	; 0xffffffff
1a000b44:	e7bc      	b.n	1a000ac0 <tchar2uni+0x14>
			if ((b & 0xC0) != 0x80) return 0xFFFFFFFF;	/* Wrong sequence? */
1a000b46:	f04f 30ff 	mov.w	r0, #4294967295	; 0xffffffff
1a000b4a:	e7b9      	b.n	1a000ac0 <tchar2uni+0x14>
		if (uc < 0x80 || IsSurrogate(uc) || uc >= 0x110000) return 0xFFFFFFFF;	/* Wrong code? */
1a000b4c:	f04f 30ff 	mov.w	r0, #4294967295	; 0xffffffff
1a000b50:	e7b6      	b.n	1a000ac0 <tchar2uni+0x14>
1a000b52:	f04f 30ff 	mov.w	r0, #4294967295	; 0xffffffff
1a000b56:	e7b3      	b.n	1a000ac0 <tchar2uni+0x14>
1a000b58:	f04f 30ff 	mov.w	r0, #4294967295	; 0xffffffff
1a000b5c:	e7b0      	b.n	1a000ac0 <tchar2uni+0x14>
1a000b5e:	bf00      	nop
1a000b60:	03ff0000 	.word	0x03ff0000

1a000b64 <clst2sect>:
static DWORD clst2sect (	/* !=0:Sector number, 0:Failed (invalid cluster#) */
	FATFS* fs,		/* Filesystem object */
	DWORD clst		/* Cluster# to be converted */
)
{
	clst -= 2;		/* Cluster number is origin from 2 */
1a000b64:	3902      	subs	r1, #2
	if (clst >= fs->n_fatent - 2) return 0;		/* Is it invalid cluster number? */
1a000b66:	69c3      	ldr	r3, [r0, #28]
1a000b68:	3b02      	subs	r3, #2
1a000b6a:	428b      	cmp	r3, r1
1a000b6c:	d904      	bls.n	1a000b78 <clst2sect+0x14>
	return fs->database + fs->csize * clst;		/* Start sector number of the cluster */
1a000b6e:	6b03      	ldr	r3, [r0, #48]	; 0x30
1a000b70:	8940      	ldrh	r0, [r0, #10]
1a000b72:	fb01 3000 	mla	r0, r1, r0, r3
1a000b76:	4770      	bx	lr
	if (clst >= fs->n_fatent - 2) return 0;		/* Is it invalid cluster number? */
1a000b78:	2000      	movs	r0, #0
}
1a000b7a:	4770      	bx	lr

1a000b7c <ld_clust>:

static DWORD ld_clust (	/* Returns the top cluster value of the SFN entry */
	FATFS* fs,			/* Pointer to the fs object */
	const BYTE* dir		/* Pointer to the key entry */
)
{
1a000b7c:	b570      	push	{r4, r5, r6, lr}
1a000b7e:	4606      	mov	r6, r0
1a000b80:	460d      	mov	r5, r1
	DWORD cl;

	cl = ld_word(dir + DIR_FstClusLO);
1a000b82:	f101 001a 	add.w	r0, r1, #26
1a000b86:	f7ff ff0f 	bl	1a0009a8 <ld_word>
	if (fs->fs_type == FS_FAT32) {
1a000b8a:	7833      	ldrb	r3, [r6, #0]
1a000b8c:	2b03      	cmp	r3, #3
1a000b8e:	d000      	beq.n	1a000b92 <ld_clust+0x16>
		cl |= (DWORD)ld_word(dir + DIR_FstClusHI) << 16;
	}

	return cl;
}
1a000b90:	bd70      	pop	{r4, r5, r6, pc}
1a000b92:	4604      	mov	r4, r0
		cl |= (DWORD)ld_word(dir + DIR_FstClusHI) << 16;
1a000b94:	f105 0014 	add.w	r0, r5, #20
1a000b98:	f7ff ff06 	bl	1a0009a8 <ld_word>
1a000b9c:	ea44 4000 	orr.w	r0, r4, r0, lsl #16
	return cl;
1a000ba0:	e7f6      	b.n	1a000b90 <ld_clust+0x14>

1a000ba2 <st_clust>:
static void st_clust (
	FATFS* fs,	/* Pointer to the fs object */
	BYTE* dir,	/* Pointer to the key entry */
	DWORD cl	/* Value to be set */
)
{
1a000ba2:	b570      	push	{r4, r5, r6, lr}
1a000ba4:	4606      	mov	r6, r0
1a000ba6:	460c      	mov	r4, r1
1a000ba8:	4615      	mov	r5, r2
	st_word(dir + DIR_FstClusLO, (WORD)cl);
1a000baa:	b291      	uxth	r1, r2
1a000bac:	f104 001a 	add.w	r0, r4, #26
1a000bb0:	f7ff ff31 	bl	1a000a16 <st_word>
	if (fs->fs_type == FS_FAT32) {
1a000bb4:	7833      	ldrb	r3, [r6, #0]
1a000bb6:	2b03      	cmp	r3, #3
1a000bb8:	d000      	beq.n	1a000bbc <st_clust+0x1a>
		st_word(dir + DIR_FstClusHI, (WORD)(cl >> 16));
	}
}
1a000bba:	bd70      	pop	{r4, r5, r6, pc}
		st_word(dir + DIR_FstClusHI, (WORD)(cl >> 16));
1a000bbc:	0c29      	lsrs	r1, r5, #16
1a000bbe:	f104 0014 	add.w	r0, r4, #20
1a000bc2:	f7ff ff28 	bl	1a000a16 <st_word>
}
1a000bc6:	e7f8      	b.n	1a000bba <st_clust+0x18>

1a000bc8 <pick_lfn>:

static int pick_lfn (	/* 1:succeeded, 0:buffer overflow or invalid LFN entry */
	WCHAR* lfnbuf,		/* Pointer to the LFN working buffer */
	BYTE* dir			/* Pointer to the LFN entry */
)
{
1a000bc8:	e92d 41f0 	stmdb	sp!, {r4, r5, r6, r7, r8, lr}
1a000bcc:	4680      	mov	r8, r0
1a000bce:	460e      	mov	r6, r1
	UINT i, s;
	WCHAR wc, uc;


	if (ld_word(dir + LDIR_FstClusLO) != 0) return 0;	/* Check LDIR_FstClusLO is 0 */
1a000bd0:	f101 001a 	add.w	r0, r1, #26
1a000bd4:	f7ff fee8 	bl	1a0009a8 <ld_word>
1a000bd8:	bb60      	cbnz	r0, 1a000c34 <pick_lfn+0x6c>

	i = ((dir[LDIR_Ord] & ~LLEF) - 1) * 13;	/* Offset in the LFN buffer */
1a000bda:	7835      	ldrb	r5, [r6, #0]
1a000bdc:	f025 0540 	bic.w	r5, r5, #64	; 0x40
1a000be0:	3d01      	subs	r5, #1
1a000be2:	eb05 0345 	add.w	r3, r5, r5, lsl #1
1a000be6:	eb05 0583 	add.w	r5, r5, r3, lsl #2

	for (wc = 1, s = 0; s < 13; s++) {		/* Process all characters in the entry */
1a000bea:	2701      	movs	r7, #1
1a000bec:	2400      	movs	r4, #0
1a000bee:	e004      	b.n	1a000bfa <pick_lfn+0x32>
		uc = ld_word(dir + LfnOfs[s]);		/* Pick an LFN character */
		if (wc != 0) {
			if (i >= FF_MAX_LFN) return 0;	/* Buffer overflow? */
			lfnbuf[i++] = wc = uc;			/* Store it */
1a000bf0:	f828 0015 	strh.w	r0, [r8, r5, lsl #1]
1a000bf4:	4607      	mov	r7, r0
1a000bf6:	3501      	adds	r5, #1
	for (wc = 1, s = 0; s < 13; s++) {		/* Process all characters in the entry */
1a000bf8:	3401      	adds	r4, #1
1a000bfa:	2c0c      	cmp	r4, #12
1a000bfc:	d80f      	bhi.n	1a000c1e <pick_lfn+0x56>
		uc = ld_word(dir + LfnOfs[s]);		/* Pick an LFN character */
1a000bfe:	4b11      	ldr	r3, [pc, #68]	; (1a000c44 <pick_lfn+0x7c>)
1a000c00:	5d18      	ldrb	r0, [r3, r4]
1a000c02:	4430      	add	r0, r6
1a000c04:	f7ff fed0 	bl	1a0009a8 <ld_word>
		if (wc != 0) {
1a000c08:	b11f      	cbz	r7, 1a000c12 <pick_lfn+0x4a>
			if (i >= FF_MAX_LFN) return 0;	/* Buffer overflow? */
1a000c0a:	2dfe      	cmp	r5, #254	; 0xfe
1a000c0c:	d9f0      	bls.n	1a000bf0 <pick_lfn+0x28>
1a000c0e:	2000      	movs	r0, #0
1a000c10:	e011      	b.n	1a000c36 <pick_lfn+0x6e>
		} else {
			if (uc != 0xFFFF) return 0;		/* Check filler */
1a000c12:	f64f 73ff 	movw	r3, #65535	; 0xffff
1a000c16:	4298      	cmp	r0, r3
1a000c18:	d0ee      	beq.n	1a000bf8 <pick_lfn+0x30>
1a000c1a:	2000      	movs	r0, #0
1a000c1c:	e00b      	b.n	1a000c36 <pick_lfn+0x6e>
		}
	}

	if (dir[LDIR_Ord] & LLEF) {				/* Put terminator if it is the last LFN part */
1a000c1e:	7833      	ldrb	r3, [r6, #0]
1a000c20:	f013 0f40 	tst.w	r3, #64	; 0x40
1a000c24:	d009      	beq.n	1a000c3a <pick_lfn+0x72>
		if (i >= FF_MAX_LFN) return 0;		/* Buffer overflow? */
1a000c26:	2dfe      	cmp	r5, #254	; 0xfe
1a000c28:	d809      	bhi.n	1a000c3e <pick_lfn+0x76>
		lfnbuf[i] = 0;
1a000c2a:	2300      	movs	r3, #0
1a000c2c:	f828 3015 	strh.w	r3, [r8, r5, lsl #1]
	}

	return 1;		/* The part of LFN is valid */
1a000c30:	2001      	movs	r0, #1
1a000c32:	e000      	b.n	1a000c36 <pick_lfn+0x6e>
	if (ld_word(dir + LDIR_FstClusLO) != 0) return 0;	/* Check LDIR_FstClusLO is 0 */
1a000c34:	2000      	movs	r0, #0
}
1a000c36:	e8bd 81f0 	ldmia.w	sp!, {r4, r5, r6, r7, r8, pc}
	return 1;		/* The part of LFN is valid */
1a000c3a:	2001      	movs	r0, #1
1a000c3c:	e7fb      	b.n	1a000c36 <pick_lfn+0x6e>
		if (i >= FF_MAX_LFN) return 0;		/* Buffer overflow? */
1a000c3e:	2000      	movs	r0, #0
1a000c40:	e7f9      	b.n	1a000c36 <pick_lfn+0x6e>
1a000c42:	bf00      	nop
1a000c44:	1a006dac 	.word	0x1a006dac

1a000c48 <put_lfn>:
	const WCHAR* lfn,	/* Pointer to the LFN */
	BYTE* dir,			/* Pointer to the LFN entry to be created */
	BYTE ord,			/* LFN order (1-20) */
	BYTE sum			/* Checksum of the corresponding SFN */
)
{
1a000c48:	e92d 43f8 	stmdb	sp!, {r3, r4, r5, r6, r7, r8, r9, lr}
1a000c4c:	4680      	mov	r8, r0
1a000c4e:	460f      	mov	r7, r1
1a000c50:	4691      	mov	r9, r2
	UINT i, s;
	WCHAR wc;


	dir[LDIR_Chksum] = sum;			/* Set checksum */
1a000c52:	734b      	strb	r3, [r1, #13]
	dir[LDIR_Attr] = AM_LFN;		/* Set attribute. LFN entry */
1a000c54:	230f      	movs	r3, #15
1a000c56:	72cb      	strb	r3, [r1, #11]
	dir[LDIR_Type] = 0;
1a000c58:	2400      	movs	r4, #0
1a000c5a:	730c      	strb	r4, [r1, #12]
	st_word(dir + LDIR_FstClusLO, 0);
1a000c5c:	4621      	mov	r1, r4
1a000c5e:	f107 001a 	add.w	r0, r7, #26
1a000c62:	f7ff fed8 	bl	1a000a16 <st_word>

	i = (ord - 1) * 13;				/* Get offset in the LFN working buffer */
1a000c66:	f109 36ff 	add.w	r6, r9, #4294967295	; 0xffffffff
1a000c6a:	eb06 0346 	add.w	r3, r6, r6, lsl #1
1a000c6e:	eb06 0683 	add.w	r6, r6, r3, lsl #2
	s = wc = 0;
1a000c72:	4625      	mov	r5, r4
1a000c74:	e002      	b.n	1a000c7c <put_lfn+0x34>
	do {
		if (wc != 0xFFFF) wc = lfn[i++];	/* Get an effective character */
		st_word(dir + LfnOfs[s], wc);		/* Put it */
		if (wc == 0) wc = 0xFFFF;		/* Padding characters for left locations */
	} while (++s < 13);
1a000c76:	3401      	adds	r4, #1
1a000c78:	2c0c      	cmp	r4, #12
1a000c7a:	d811      	bhi.n	1a000ca0 <put_lfn+0x58>
		if (wc != 0xFFFF) wc = lfn[i++];	/* Get an effective character */
1a000c7c:	f64f 73ff 	movw	r3, #65535	; 0xffff
1a000c80:	429d      	cmp	r5, r3
1a000c82:	d002      	beq.n	1a000c8a <put_lfn+0x42>
1a000c84:	f838 5016 	ldrh.w	r5, [r8, r6, lsl #1]
1a000c88:	3601      	adds	r6, #1
		st_word(dir + LfnOfs[s], wc);		/* Put it */
1a000c8a:	4b0c      	ldr	r3, [pc, #48]	; (1a000cbc <put_lfn+0x74>)
1a000c8c:	5d18      	ldrb	r0, [r3, r4]
1a000c8e:	4629      	mov	r1, r5
1a000c90:	4438      	add	r0, r7
1a000c92:	f7ff fec0 	bl	1a000a16 <st_word>
		if (wc == 0) wc = 0xFFFF;		/* Padding characters for left locations */
1a000c96:	2d00      	cmp	r5, #0
1a000c98:	d1ed      	bne.n	1a000c76 <put_lfn+0x2e>
1a000c9a:	f64f 75ff 	movw	r5, #65535	; 0xffff
1a000c9e:	e7ea      	b.n	1a000c76 <put_lfn+0x2e>
	if (wc == 0xFFFF || !lfn[i]) ord |= LLEF;	/* Last LFN part is the start of LFN sequence */
1a000ca0:	f64f 73ff 	movw	r3, #65535	; 0xffff
1a000ca4:	429d      	cmp	r5, r3
1a000ca6:	d002      	beq.n	1a000cae <put_lfn+0x66>
1a000ca8:	f838 3016 	ldrh.w	r3, [r8, r6, lsl #1]
1a000cac:	b90b      	cbnz	r3, 1a000cb2 <put_lfn+0x6a>
1a000cae:	f049 0940 	orr.w	r9, r9, #64	; 0x40
	dir[LDIR_Ord] = ord;			/* Set the LFN order */
1a000cb2:	f887 9000 	strb.w	r9, [r7]
}
1a000cb6:	e8bd 83f8 	ldmia.w	sp!, {r3, r4, r5, r6, r7, r8, r9, pc}
1a000cba:	bf00      	nop
1a000cbc:	1a006dac 	.word	0x1a006dac

1a000cc0 <gen_numname>:
	BYTE* dst,			/* Pointer to the buffer to store numbered SFN */
	const BYTE* src,	/* Pointer to SFN */
	const WCHAR* lfn,	/* Pointer to LFN */
	UINT seq			/* Sequence number */
)
{
1a000cc0:	b5f0      	push	{r4, r5, r6, r7, lr}
1a000cc2:	b083      	sub	sp, #12
1a000cc4:	4606      	mov	r6, r0
1a000cc6:	4617      	mov	r7, r2
1a000cc8:	461c      	mov	r4, r3
	UINT i, j;
	WCHAR wc;
	DWORD sr;


	mem_cpy(dst, src, 11);
1a000cca:	220b      	movs	r2, #11
1a000ccc:	f7ff fec4 	bl	1a000a58 <mem_cpy>

	if (seq > 5) {	/* In case of many collisions, generate a hash number instead of sequential number */
1a000cd0:	2c05      	cmp	r4, #5
1a000cd2:	d811      	bhi.n	1a000cf8 <gen_numname+0x38>
		sr = seq;
		while (*lfn) {	/* Create a CRC as hash value */
			wc = *lfn++;
			for (i = 0; i < 16; i++) {
1a000cd4:	2707      	movs	r7, #7
1a000cd6:	e01f      	b.n	1a000d18 <gen_numname+0x58>
1a000cd8:	3101      	adds	r1, #1
1a000cda:	290f      	cmp	r1, #15
1a000cdc:	d80c      	bhi.n	1a000cf8 <gen_numname+0x38>
				sr = (sr << 1) + (wc & 1);
1a000cde:	f003 0501 	and.w	r5, r3, #1
1a000ce2:	eb05 0444 	add.w	r4, r5, r4, lsl #1
				wc >>= 1;
1a000ce6:	085b      	lsrs	r3, r3, #1
				if (sr & 0x10000) sr ^= 0x11021;
1a000ce8:	f414 3f80 	tst.w	r4, #65536	; 0x10000
1a000cec:	d0f4      	beq.n	1a000cd8 <gen_numname+0x18>
1a000cee:	f484 3488 	eor.w	r4, r4, #69632	; 0x11000
1a000cf2:	f084 0421 	eor.w	r4, r4, #33	; 0x21
1a000cf6:	e7ef      	b.n	1a000cd8 <gen_numname+0x18>
		while (*lfn) {	/* Create a CRC as hash value */
1a000cf8:	883b      	ldrh	r3, [r7, #0]
1a000cfa:	2b00      	cmp	r3, #0
1a000cfc:	d0ea      	beq.n	1a000cd4 <gen_numname+0x14>
			wc = *lfn++;
1a000cfe:	3702      	adds	r7, #2
			for (i = 0; i < 16; i++) {
1a000d00:	2100      	movs	r1, #0
1a000d02:	e7ea      	b.n	1a000cda <gen_numname+0x1a>
	/* itoa (hexdecimal) */
	i = 7;
	do {
		c = (BYTE)((seq % 16) + '0');
		if (c > '9') c += 7;
		ns[i--] = c;
1a000d04:	1e7d      	subs	r5, r7, #1
1a000d06:	aa02      	add	r2, sp, #8
1a000d08:	443a      	add	r2, r7
1a000d0a:	f802 3c08 	strb.w	r3, [r2, #-8]
		seq /= 16;
1a000d0e:	0923      	lsrs	r3, r4, #4
	} while (seq);
1a000d10:	2c0f      	cmp	r4, #15
1a000d12:	d90a      	bls.n	1a000d2a <gen_numname+0x6a>
		ns[i--] = c;
1a000d14:	462f      	mov	r7, r5
		seq /= 16;
1a000d16:	461c      	mov	r4, r3
		c = (BYTE)((seq % 16) + '0');
1a000d18:	f004 020f 	and.w	r2, r4, #15
1a000d1c:	f102 0330 	add.w	r3, r2, #48	; 0x30
		if (c > '9') c += 7;
1a000d20:	2b39      	cmp	r3, #57	; 0x39
1a000d22:	d9ef      	bls.n	1a000d04 <gen_numname+0x44>
1a000d24:	f102 0337 	add.w	r3, r2, #55	; 0x37
1a000d28:	e7ec      	b.n	1a000d04 <gen_numname+0x44>
	ns[i] = '~';
1a000d2a:	227e      	movs	r2, #126	; 0x7e
1a000d2c:	ab02      	add	r3, sp, #8
1a000d2e:	442b      	add	r3, r5
1a000d30:	f803 2c08 	strb.w	r2, [r3, #-8]

	/* Append the number to the SFN body */
	for (j = 0; j < i && dst[j] != ' '; j++) {
1a000d34:	2400      	movs	r4, #0
1a000d36:	e000      	b.n	1a000d3a <gen_numname+0x7a>
1a000d38:	3401      	adds	r4, #1
1a000d3a:	42ac      	cmp	r4, r5
1a000d3c:	d211      	bcs.n	1a000d62 <gen_numname+0xa2>
1a000d3e:	5d30      	ldrb	r0, [r6, r4]
1a000d40:	2820      	cmp	r0, #32
1a000d42:	d00e      	beq.n	1a000d62 <gen_numname+0xa2>
		if (dbc_1st(dst[j])) {
1a000d44:	f7ff feaf 	bl	1a000aa6 <dbc_1st>
1a000d48:	2800      	cmp	r0, #0
1a000d4a:	d0f5      	beq.n	1a000d38 <gen_numname+0x78>
			if (j == i - 1) break;
1a000d4c:	1ebb      	subs	r3, r7, #2
1a000d4e:	42a3      	cmp	r3, r4
1a000d50:	d007      	beq.n	1a000d62 <gen_numname+0xa2>
			j++;
1a000d52:	3401      	adds	r4, #1
1a000d54:	e7f0      	b.n	1a000d38 <gen_numname+0x78>
		}
	}
	do {
		dst[j++] = (i < 8) ? ns[i++] : ' ';
1a000d56:	2220      	movs	r2, #32
1a000d58:	1c63      	adds	r3, r4, #1
1a000d5a:	5532      	strb	r2, [r6, r4]
	} while (j < 8);
1a000d5c:	2b07      	cmp	r3, #7
1a000d5e:	d808      	bhi.n	1a000d72 <gen_numname+0xb2>
		dst[j++] = (i < 8) ? ns[i++] : ' ';
1a000d60:	461c      	mov	r4, r3
1a000d62:	2d07      	cmp	r5, #7
1a000d64:	d8f7      	bhi.n	1a000d56 <gen_numname+0x96>
1a000d66:	ab02      	add	r3, sp, #8
1a000d68:	442b      	add	r3, r5
1a000d6a:	f813 2c08 	ldrb.w	r2, [r3, #-8]
1a000d6e:	3501      	adds	r5, #1
1a000d70:	e7f2      	b.n	1a000d58 <gen_numname+0x98>
}
1a000d72:	b003      	add	sp, #12
1a000d74:	bdf0      	pop	{r4, r5, r6, r7, pc}

1a000d76 <sum_sfn>:
/*-----------------------------------------------------------------------*/

static BYTE sum_sfn (
	const BYTE* dir		/* Pointer to the SFN entry */
)
{
1a000d76:	b410      	push	{r4}
1a000d78:	4601      	mov	r1, r0
	BYTE sum = 0;
	UINT n = 11;
1a000d7a:	240b      	movs	r4, #11
	BYTE sum = 0;
1a000d7c:	2000      	movs	r0, #0

	do {
		sum = (sum >> 1) + (sum << 7) + *dir++;
1a000d7e:	01c3      	lsls	r3, r0, #7
1a000d80:	ea43 0350 	orr.w	r3, r3, r0, lsr #1
1a000d84:	7808      	ldrb	r0, [r1, #0]
1a000d86:	3101      	adds	r1, #1
1a000d88:	fa50 f383 	uxtab	r3, r0, r3
1a000d8c:	b2d8      	uxtb	r0, r3
	} while (--n);
1a000d8e:	3c01      	subs	r4, #1
1a000d90:	d1f5      	bne.n	1a000d7e <sum_sfn+0x8>
	return sum;
}
1a000d92:	f85d 4b04 	ldr.w	r4, [sp], #4
1a000d96:	4770      	bx	lr

1a000d98 <xdir_sum>:
/*-----------------------------------------------------------------------*/

static WORD xdir_sum (	/* Get checksum of the directoly entry block */
	const BYTE* dir		/* Directory entry block to be calculated */
)
{
1a000d98:	b430      	push	{r4, r5}
1a000d9a:	4605      	mov	r5, r0
	UINT i, szblk;
	WORD sum;


	szblk = (dir[XDIR_NumSec] + 1) * SZDIRE;	/* Number of bytes of the entry block */
1a000d9c:	7841      	ldrb	r1, [r0, #1]
1a000d9e:	3101      	adds	r1, #1
1a000da0:	0149      	lsls	r1, r1, #5
	for (i = sum = 0; i < szblk; i++) {
1a000da2:	2000      	movs	r0, #0
1a000da4:	4603      	mov	r3, r0
1a000da6:	e007      	b.n	1a000db8 <xdir_sum+0x20>
		if (i == XDIR_SetSum) {	/* Skip 2-byte sum field */
			i++;
		} else {
			sum = ((sum & 1) ? 0x8000 : 0) + (sum >> 1) + dir[i];
1a000da8:	0842      	lsrs	r2, r0, #1
1a000daa:	eb02 32c0 	add.w	r2, r2, r0, lsl #15
1a000dae:	5cec      	ldrb	r4, [r5, r3]
1a000db0:	fa14 f282 	uxtah	r2, r4, r2
1a000db4:	b290      	uxth	r0, r2
	for (i = sum = 0; i < szblk; i++) {
1a000db6:	3301      	adds	r3, #1
1a000db8:	428b      	cmp	r3, r1
1a000dba:	d203      	bcs.n	1a000dc4 <xdir_sum+0x2c>
		if (i == XDIR_SetSum) {	/* Skip 2-byte sum field */
1a000dbc:	2b02      	cmp	r3, #2
1a000dbe:	d1f3      	bne.n	1a000da8 <xdir_sum+0x10>
			i++;
1a000dc0:	3301      	adds	r3, #1
1a000dc2:	e7f8      	b.n	1a000db6 <xdir_sum+0x1e>
		}
	}
	return sum;
}
1a000dc4:	bc30      	pop	{r4, r5}
1a000dc6:	4770      	bx	lr

1a000dc8 <init_alloc_info>:

static void init_alloc_info (
	FATFS* fs,		/* Filesystem object */
	FFOBJID* obj	/* Object allocation information to be initialized */
)
{
1a000dc8:	b538      	push	{r3, r4, r5, lr}
1a000dca:	4605      	mov	r5, r0
1a000dcc:	460c      	mov	r4, r1
	obj->sclust = ld_dword(fs->dirbuf + XDIR_FstClus);		/* Start cluster */
1a000dce:	6900      	ldr	r0, [r0, #16]
1a000dd0:	3034      	adds	r0, #52	; 0x34
1a000dd2:	f7ff fdee 	bl	1a0009b2 <ld_dword>
1a000dd6:	60a0      	str	r0, [r4, #8]
	obj->objsize = ld_qword(fs->dirbuf + XDIR_FileSize);	/* Size */
1a000dd8:	6928      	ldr	r0, [r5, #16]
1a000dda:	3038      	adds	r0, #56	; 0x38
1a000ddc:	f7ff fdf4 	bl	1a0009c8 <ld_qword>
1a000de0:	e9c4 0104 	strd	r0, r1, [r4, #16]
	obj->stat = fs->dirbuf[XDIR_GenFlags] & 2;				/* Allocation status */
1a000de4:	692b      	ldr	r3, [r5, #16]
1a000de6:	f893 3021 	ldrb.w	r3, [r3, #33]	; 0x21
1a000dea:	f003 0302 	and.w	r3, r3, #2
1a000dee:	71e3      	strb	r3, [r4, #7]
	obj->n_frag = 0;										/* No last fragment info */
1a000df0:	2300      	movs	r3, #0
1a000df2:	61e3      	str	r3, [r4, #28]
}
1a000df4:	bd38      	pop	{r3, r4, r5, pc}
1a000df6:	Address 0x000000001a000df6 is out of bounds.


1a000df8 <get_ldnumber>:
/*-----------------------------------------------------------------------*/

static int get_ldnumber (	/* Returns logical drive number (-1:invalid drive number or null pointer) */
	const TCHAR** path		/* Pointer to pointer to the path name */
)
{
1a000df8:	b4f0      	push	{r4, r5, r6, r7}
#if FF_STR_VOLUME_ID		/* Find string volume ID */
	const char *sp;
	char c;
#endif

	tt = tp = *path;
1a000dfa:	6806      	ldr	r6, [r0, #0]
	if (!tp) return vol;	/* Invalid path name? */
1a000dfc:	2e00      	cmp	r6, #0
1a000dfe:	d044      	beq.n	1a000e8a <get_ldnumber+0x92>
1a000e00:	4605      	mov	r5, r0
	tt = tp = *path;
1a000e02:	4632      	mov	r2, r6
	do tc = *tt++; while ((UINT)tc >= (FF_USE_LFN ? ' ' : '!') && tc != ':');	/* Find a colon in the path */
1a000e04:	7813      	ldrb	r3, [r2, #0]
1a000e06:	3201      	adds	r2, #1
1a000e08:	2b1f      	cmp	r3, #31
1a000e0a:	d901      	bls.n	1a000e10 <get_ldnumber+0x18>
1a000e0c:	2b3a      	cmp	r3, #58	; 0x3a
1a000e0e:	d1f9      	bne.n	1a000e04 <get_ldnumber+0xc>

	if (tc == ':') {	/* DOS/Windows style volume ID? */
1a000e10:	2b3a      	cmp	r3, #58	; 0x3a
1a000e12:	d002      	beq.n	1a000e1a <get_ldnumber+0x22>
#if FF_FS_RPATH != 0
	vol = CurrVol;	/* Default drive is current drive */
#else
	vol = 0;		/* Default drive is 0 */
#endif
	return vol;		/* Return the default drive */
1a000e14:	2000      	movs	r0, #0
}
1a000e16:	bcf0      	pop	{r4, r5, r6, r7}
1a000e18:	4770      	bx	lr
		if (IsDigit(*tp) && tp + 2 == tt) {	/* Is there a numeric volume ID + colon? */
1a000e1a:	7830      	ldrb	r0, [r6, #0]
1a000e1c:	f1a0 0330 	sub.w	r3, r0, #48	; 0x30
1a000e20:	b2db      	uxtb	r3, r3
1a000e22:	2b09      	cmp	r3, #9
1a000e24:	d806      	bhi.n	1a000e34 <get_ldnumber+0x3c>
1a000e26:	1cb3      	adds	r3, r6, #2
1a000e28:	4293      	cmp	r3, r2
1a000e2a:	d001      	beq.n	1a000e30 <get_ldnumber+0x38>
1a000e2c:	2000      	movs	r0, #0
1a000e2e:	e002      	b.n	1a000e36 <get_ldnumber+0x3e>
			i = (int)*tp - '0';	/* Get the LD number */
1a000e30:	3830      	subs	r0, #48	; 0x30
1a000e32:	e023      	b.n	1a000e7c <get_ldnumber+0x84>
1a000e34:	2000      	movs	r0, #0
				sp = VolumeStr[i]; tp = *path;	/* This string volume ID and path name */
1a000e36:	4b16      	ldr	r3, [pc, #88]	; (1a000e90 <get_ldnumber+0x98>)
1a000e38:	f853 c020 	ldr.w	ip, [r3, r0, lsl #2]
1a000e3c:	4637      	mov	r7, r6
1a000e3e:	e002      	b.n	1a000e46 <get_ldnumber+0x4e>
				} while (c && (TCHAR)c == tc);
1a000e40:	b1b3      	cbz	r3, 1a000e70 <get_ldnumber+0x78>
1a000e42:	4299      	cmp	r1, r3
1a000e44:	d114      	bne.n	1a000e70 <get_ldnumber+0x78>
					c = *sp++; tc = *tp++;
1a000e46:	f89c 3000 	ldrb.w	r3, [ip]
1a000e4a:	f10c 0c01 	add.w	ip, ip, #1
1a000e4e:	7839      	ldrb	r1, [r7, #0]
1a000e50:	3701      	adds	r7, #1
					if (IsLower(c)) c -= 0x20;
1a000e52:	f1a3 0461 	sub.w	r4, r3, #97	; 0x61
1a000e56:	b2e4      	uxtb	r4, r4
1a000e58:	2c19      	cmp	r4, #25
1a000e5a:	d801      	bhi.n	1a000e60 <get_ldnumber+0x68>
1a000e5c:	3b20      	subs	r3, #32
1a000e5e:	b2db      	uxtb	r3, r3
					if (IsLower(tc)) tc -= 0x20;
1a000e60:	f1a1 0461 	sub.w	r4, r1, #97	; 0x61
1a000e64:	b2e4      	uxtb	r4, r4
1a000e66:	2c19      	cmp	r4, #25
1a000e68:	d8ea      	bhi.n	1a000e40 <get_ldnumber+0x48>
1a000e6a:	3920      	subs	r1, #32
1a000e6c:	b2c9      	uxtb	r1, r1
1a000e6e:	e7e7      	b.n	1a000e40 <get_ldnumber+0x48>
			} while ((c || tp != tt) && ++i < FF_VOLUMES);	/* Repeat for each id until pattern match */
1a000e70:	b90b      	cbnz	r3, 1a000e76 <get_ldnumber+0x7e>
1a000e72:	42ba      	cmp	r2, r7
1a000e74:	d002      	beq.n	1a000e7c <get_ldnumber+0x84>
1a000e76:	3001      	adds	r0, #1
1a000e78:	2801      	cmp	r0, #1
1a000e7a:	dddc      	ble.n	1a000e36 <get_ldnumber+0x3e>
		if (i < FF_VOLUMES) {	/* If a volume ID is found, get the drive number and strip it */
1a000e7c:	2801      	cmp	r0, #1
1a000e7e:	dd02      	ble.n	1a000e86 <get_ldnumber+0x8e>
	int i, vol = -1;
1a000e80:	f04f 30ff 	mov.w	r0, #4294967295	; 0xffffffff
		return vol;
1a000e84:	e7c7      	b.n	1a000e16 <get_ldnumber+0x1e>
			*path = tt;		/* Snip the drive prefix off */
1a000e86:	602a      	str	r2, [r5, #0]
1a000e88:	e7c5      	b.n	1a000e16 <get_ldnumber+0x1e>
	if (!tp) return vol;	/* Invalid path name? */
1a000e8a:	f04f 30ff 	mov.w	r0, #4294967295	; 0xffffffff
1a000e8e:	e7c2      	b.n	1a000e16 <get_ldnumber+0x1e>
1a000e90:	1a006dbc 	.word	0x1a006dbc

1a000e94 <putc_init>:
static
void putc_init (		/* Initialize write buffer */
	putbuff* pb,
	FIL* fp
)
{
1a000e94:	b538      	push	{r3, r4, r5, lr}
1a000e96:	4604      	mov	r4, r0
1a000e98:	460d      	mov	r5, r1
	mem_set(pb, 0, sizeof (putbuff));
1a000e9a:	2258      	movs	r2, #88	; 0x58
1a000e9c:	2100      	movs	r1, #0
1a000e9e:	f7ff fde7 	bl	1a000a70 <mem_set>
	pb->fp = fp;
1a000ea2:	6025      	str	r5, [r4, #0]
}
1a000ea4:	bd38      	pop	{r3, r4, r5, pc}

1a000ea6 <validate>:
{
1a000ea6:	b538      	push	{r3, r4, r5, lr}
1a000ea8:	460d      	mov	r5, r1
	if (obj && obj->fs && obj->fs->fs_type && obj->id == obj->fs->id) {	/* Test if the object is valid */
1a000eaa:	4604      	mov	r4, r0
1a000eac:	b198      	cbz	r0, 1a000ed6 <validate+0x30>
1a000eae:	6803      	ldr	r3, [r0, #0]
1a000eb0:	b19b      	cbz	r3, 1a000eda <validate+0x34>
1a000eb2:	781a      	ldrb	r2, [r3, #0]
1a000eb4:	b1a2      	cbz	r2, 1a000ee0 <validate+0x3a>
1a000eb6:	8881      	ldrh	r1, [r0, #4]
1a000eb8:	88da      	ldrh	r2, [r3, #6]
1a000eba:	4291      	cmp	r1, r2
1a000ebc:	d003      	beq.n	1a000ec6 <validate+0x20>
	FRESULT res = FR_INVALID_OBJECT;
1a000ebe:	2009      	movs	r0, #9
	*rfs = (res == FR_OK) ? obj->fs : 0;	/* Corresponding filesystem object */
1a000ec0:	2400      	movs	r4, #0
1a000ec2:	602c      	str	r4, [r5, #0]
}
1a000ec4:	bd38      	pop	{r3, r4, r5, pc}
		if (!(disk_status(obj->fs->pdrv) & STA_NOINIT)) { /* Test if the phsical drive is kept initialized */
1a000ec6:	7858      	ldrb	r0, [r3, #1]
1a000ec8:	f004 fe7c 	bl	1a005bc4 <disk_status>
1a000ecc:	f010 0001 	ands.w	r0, r0, #1
1a000ed0:	d109      	bne.n	1a000ee6 <validate+0x40>
	*rfs = (res == FR_OK) ? obj->fs : 0;	/* Corresponding filesystem object */
1a000ed2:	6824      	ldr	r4, [r4, #0]
1a000ed4:	e7f5      	b.n	1a000ec2 <validate+0x1c>
	FRESULT res = FR_INVALID_OBJECT;
1a000ed6:	2009      	movs	r0, #9
1a000ed8:	e7f3      	b.n	1a000ec2 <validate+0x1c>
	*rfs = (res == FR_OK) ? obj->fs : 0;	/* Corresponding filesystem object */
1a000eda:	461c      	mov	r4, r3
	FRESULT res = FR_INVALID_OBJECT;
1a000edc:	2009      	movs	r0, #9
1a000ede:	e7f0      	b.n	1a000ec2 <validate+0x1c>
1a000ee0:	2009      	movs	r0, #9
	*rfs = (res == FR_OK) ? obj->fs : 0;	/* Corresponding filesystem object */
1a000ee2:	2400      	movs	r4, #0
1a000ee4:	e7ed      	b.n	1a000ec2 <validate+0x1c>
	FRESULT res = FR_INVALID_OBJECT;
1a000ee6:	2009      	movs	r0, #9
	*rfs = (res == FR_OK) ? obj->fs : 0;	/* Corresponding filesystem object */
1a000ee8:	2400      	movs	r4, #0
1a000eea:	e7ea      	b.n	1a000ec2 <validate+0x1c>

1a000eec <sync_window>:
{
1a000eec:	b570      	push	{r4, r5, r6, lr}
	if (fs->wflag) {	/* Is the disk access window dirty */
1a000eee:	78c5      	ldrb	r5, [r0, #3]
1a000ef0:	b90d      	cbnz	r5, 1a000ef6 <sync_window+0xa>
}
1a000ef2:	4628      	mov	r0, r5
1a000ef4:	bd70      	pop	{r4, r5, r6, pc}
1a000ef6:	4604      	mov	r4, r0
		if (disk_write(fs->pdrv, fs->win, fs->winsect, 1) == RES_OK) {	/* Write back the window */
1a000ef8:	f100 0638 	add.w	r6, r0, #56	; 0x38
1a000efc:	2301      	movs	r3, #1
1a000efe:	6b42      	ldr	r2, [r0, #52]	; 0x34
1a000f00:	4631      	mov	r1, r6
1a000f02:	7840      	ldrb	r0, [r0, #1]
1a000f04:	f004 fe7e 	bl	1a005c04 <disk_write>
1a000f08:	4605      	mov	r5, r0
1a000f0a:	b988      	cbnz	r0, 1a000f30 <sync_window+0x44>
			fs->wflag = 0;	/* Clear window dirty flag */
1a000f0c:	2300      	movs	r3, #0
1a000f0e:	70e3      	strb	r3, [r4, #3]
			if (fs->winsect - fs->fatbase < fs->fsize) {	/* Is it in the 1st FAT? */
1a000f10:	6b61      	ldr	r1, [r4, #52]	; 0x34
1a000f12:	6aa3      	ldr	r3, [r4, #40]	; 0x28
1a000f14:	1acb      	subs	r3, r1, r3
1a000f16:	6a22      	ldr	r2, [r4, #32]
1a000f18:	4293      	cmp	r3, r2
1a000f1a:	d2ea      	bcs.n	1a000ef2 <sync_window+0x6>
				if (fs->n_fats == 2) disk_write(fs->pdrv, fs->win, fs->winsect + fs->fsize, 1);	/* Reflect it to 2nd FAT if needed */
1a000f1c:	78a3      	ldrb	r3, [r4, #2]
1a000f1e:	2b02      	cmp	r3, #2
1a000f20:	d1e7      	bne.n	1a000ef2 <sync_window+0x6>
1a000f22:	2301      	movs	r3, #1
1a000f24:	440a      	add	r2, r1
1a000f26:	4631      	mov	r1, r6
1a000f28:	7860      	ldrb	r0, [r4, #1]
1a000f2a:	f004 fe6b 	bl	1a005c04 <disk_write>
1a000f2e:	e7e0      	b.n	1a000ef2 <sync_window+0x6>
			res = FR_DISK_ERR;
1a000f30:	2501      	movs	r5, #1
1a000f32:	e7de      	b.n	1a000ef2 <sync_window+0x6>

1a000f34 <move_window>:
{
1a000f34:	b570      	push	{r4, r5, r6, lr}
	if (sector != fs->winsect) {	/* Window offset changed? */
1a000f36:	6b43      	ldr	r3, [r0, #52]	; 0x34
1a000f38:	428b      	cmp	r3, r1
1a000f3a:	d102      	bne.n	1a000f42 <move_window+0xe>
	FRESULT res = FR_OK;
1a000f3c:	2600      	movs	r6, #0
}
1a000f3e:	4630      	mov	r0, r6
1a000f40:	bd70      	pop	{r4, r5, r6, pc}
1a000f42:	4604      	mov	r4, r0
1a000f44:	460d      	mov	r5, r1
		res = sync_window(fs);		/* Write-back changes */
1a000f46:	f7ff ffd1 	bl	1a000eec <sync_window>
		if (res == FR_OK) {			/* Fill sector window with new data */
1a000f4a:	4606      	mov	r6, r0
1a000f4c:	2800      	cmp	r0, #0
1a000f4e:	d1f6      	bne.n	1a000f3e <move_window+0xa>
			if (disk_read(fs->pdrv, fs->win, sector, 1) != RES_OK) {
1a000f50:	2301      	movs	r3, #1
1a000f52:	462a      	mov	r2, r5
1a000f54:	f104 0138 	add.w	r1, r4, #56	; 0x38
1a000f58:	7860      	ldrb	r0, [r4, #1]
1a000f5a:	f004 fe41 	bl	1a005be0 <disk_read>
1a000f5e:	b110      	cbz	r0, 1a000f66 <move_window+0x32>
				res = FR_DISK_ERR;
1a000f60:	2601      	movs	r6, #1
				sector = 0xFFFFFFFF;	/* Invalidate window if read data is not valid */
1a000f62:	f04f 35ff 	mov.w	r5, #4294967295	; 0xffffffff
			fs->winsect = sector;
1a000f66:	6365      	str	r5, [r4, #52]	; 0x34
1a000f68:	e7e9      	b.n	1a000f3e <move_window+0xa>
1a000f6a:	Address 0x000000001a000f6a is out of bounds.


1a000f6c <check_fs>:
{
1a000f6c:	b538      	push	{r3, r4, r5, lr}
1a000f6e:	4604      	mov	r4, r0
	fs->wflag = 0; fs->winsect = 0xFFFFFFFF;		/* Invaidate window */
1a000f70:	2300      	movs	r3, #0
1a000f72:	70c3      	strb	r3, [r0, #3]
1a000f74:	f04f 33ff 	mov.w	r3, #4294967295	; 0xffffffff
1a000f78:	6343      	str	r3, [r0, #52]	; 0x34
	if (move_window(fs, sect) != FR_OK) return 4;	/* Load boot record */
1a000f7a:	f7ff ffdb 	bl	1a000f34 <move_window>
1a000f7e:	bb48      	cbnz	r0, 1a000fd4 <check_fs+0x68>
1a000f80:	4605      	mov	r5, r0
	if (ld_word(fs->win + BS_55AA) != 0xAA55) return 3;	/* Check boot record signature (always here regardless of the sector size) */
1a000f82:	f204 2036 	addw	r0, r4, #566	; 0x236
1a000f86:	f7ff fd0f 	bl	1a0009a8 <ld_word>
1a000f8a:	f64a 2355 	movw	r3, #43605	; 0xaa55
1a000f8e:	4298      	cmp	r0, r3
1a000f90:	d122      	bne.n	1a000fd8 <check_fs+0x6c>
	if (!mem_cmp(fs->win + BS_JmpBoot, "\xEB\x76\x90" "EXFAT   ", 11)) return 1;	/* Check if exFAT VBR */
1a000f92:	220b      	movs	r2, #11
1a000f94:	4913      	ldr	r1, [pc, #76]	; (1a000fe4 <check_fs+0x78>)
1a000f96:	f104 0038 	add.w	r0, r4, #56	; 0x38
1a000f9a:	f7ff fd6e 	bl	1a000a7a <mem_cmp>
1a000f9e:	b1f0      	cbz	r0, 1a000fde <check_fs+0x72>
	if (fs->win[BS_JmpBoot] == 0xE9 || fs->win[BS_JmpBoot] == 0xEB || fs->win[BS_JmpBoot] == 0xE8) {	/* Valid JumpBoot code? */
1a000fa0:	f894 3038 	ldrb.w	r3, [r4, #56]	; 0x38
1a000fa4:	2be9      	cmp	r3, #233	; 0xe9
1a000fa6:	d005      	beq.n	1a000fb4 <check_fs+0x48>
1a000fa8:	2beb      	cmp	r3, #235	; 0xeb
1a000faa:	d003      	beq.n	1a000fb4 <check_fs+0x48>
1a000fac:	2be8      	cmp	r3, #232	; 0xe8
1a000fae:	d001      	beq.n	1a000fb4 <check_fs+0x48>
	return 2;	/* Valid BS but not FAT */
1a000fb0:	2502      	movs	r5, #2
1a000fb2:	e012      	b.n	1a000fda <check_fs+0x6e>
		if (!mem_cmp(fs->win + BS_FilSysType, "FAT", 3)) return 0;		/* Is it an FAT VBR? */
1a000fb4:	2203      	movs	r2, #3
1a000fb6:	490c      	ldr	r1, [pc, #48]	; (1a000fe8 <check_fs+0x7c>)
1a000fb8:	f104 006e 	add.w	r0, r4, #110	; 0x6e
1a000fbc:	f7ff fd5d 	bl	1a000a7a <mem_cmp>
1a000fc0:	b158      	cbz	r0, 1a000fda <check_fs+0x6e>
		if (!mem_cmp(fs->win + BS_FilSysType32, "FAT32", 5)) return 0;	/* Is it an FAT32 VBR? */
1a000fc2:	2205      	movs	r2, #5
1a000fc4:	4909      	ldr	r1, [pc, #36]	; (1a000fec <check_fs+0x80>)
1a000fc6:	f104 008a 	add.w	r0, r4, #138	; 0x8a
1a000fca:	f7ff fd56 	bl	1a000a7a <mem_cmp>
1a000fce:	b120      	cbz	r0, 1a000fda <check_fs+0x6e>
	return 2;	/* Valid BS but not FAT */
1a000fd0:	2502      	movs	r5, #2
1a000fd2:	e002      	b.n	1a000fda <check_fs+0x6e>
	if (move_window(fs, sect) != FR_OK) return 4;	/* Load boot record */
1a000fd4:	2504      	movs	r5, #4
1a000fd6:	e000      	b.n	1a000fda <check_fs+0x6e>
	if (ld_word(fs->win + BS_55AA) != 0xAA55) return 3;	/* Check boot record signature (always here regardless of the sector size) */
1a000fd8:	2503      	movs	r5, #3
}
1a000fda:	4628      	mov	r0, r5
1a000fdc:	bd38      	pop	{r3, r4, r5, pc}
	if (!mem_cmp(fs->win + BS_JmpBoot, "\xEB\x76\x90" "EXFAT   ", 11)) return 1;	/* Check if exFAT VBR */
1a000fde:	2501      	movs	r5, #1
1a000fe0:	e7fb      	b.n	1a000fda <check_fs+0x6e>
1a000fe2:	bf00      	nop
1a000fe4:	1a006cf8 	.word	0x1a006cf8
1a000fe8:	1a006d04 	.word	0x1a006d04
1a000fec:	1a006d08 	.word	0x1a006d08

1a000ff0 <find_volume>:
{
1a000ff0:	e92d 4ff0 	stmdb	sp!, {r4, r5, r6, r7, r8, r9, sl, fp, lr}
1a000ff4:	b087      	sub	sp, #28
1a000ff6:	460d      	mov	r5, r1
1a000ff8:	4616      	mov	r6, r2
	*rfs = 0;
1a000ffa:	2300      	movs	r3, #0
1a000ffc:	600b      	str	r3, [r1, #0]
	vol = get_ldnumber(path);
1a000ffe:	f7ff fefb 	bl	1a000df8 <get_ldnumber>
	if (vol < 0) return FR_INVALID_DRIVE;
1a001002:	1e07      	subs	r7, r0, #0
1a001004:	f2c0 820e 	blt.w	1a001424 <find_volume+0x434>
	fs = FatFs[vol];					/* Get pointer to the filesystem object */
1a001008:	4bc4      	ldr	r3, [pc, #784]	; (1a00131c <find_volume+0x32c>)
1a00100a:	f853 4027 	ldr.w	r4, [r3, r7, lsl #2]
	if (!fs) return FR_NOT_ENABLED;		/* Is the filesystem object available? */
1a00100e:	2c00      	cmp	r4, #0
1a001010:	f000 820d 	beq.w	1a00142e <find_volume+0x43e>
	*rfs = fs;							/* Return pointer to the filesystem object */
1a001014:	602c      	str	r4, [r5, #0]
	mode &= (BYTE)~FA_READ;				/* Desired access mode, write access or not */
1a001016:	f006 05fe 	and.w	r5, r6, #254	; 0xfe
	if (fs->fs_type != 0) {				/* If the volume has been mounted */
1a00101a:	7823      	ldrb	r3, [r4, #0]
1a00101c:	b173      	cbz	r3, 1a00103c <find_volume+0x4c>
		stat = disk_status(fs->pdrv);
1a00101e:	7860      	ldrb	r0, [r4, #1]
1a001020:	f004 fdd0 	bl	1a005bc4 <disk_status>
		if (!(stat & STA_NOINIT)) {		/* and the physical drive is kept initialized */
1a001024:	f010 0601 	ands.w	r6, r0, #1
1a001028:	d108      	bne.n	1a00103c <find_volume+0x4c>
			if (!FF_FS_READONLY && mode && (stat & STA_PROTECT)) {	/* Check write protection if needed */
1a00102a:	2d00      	cmp	r5, #0
1a00102c:	f000 81fb 	beq.w	1a001426 <find_volume+0x436>
1a001030:	f010 0f04 	tst.w	r0, #4
1a001034:	f000 81f7 	beq.w	1a001426 <find_volume+0x436>
				return FR_WRITE_PROTECTED;
1a001038:	260a      	movs	r6, #10
1a00103a:	e1f4      	b.n	1a001426 <find_volume+0x436>
	fs->fs_type = 0;					/* Clear the filesystem object */
1a00103c:	2300      	movs	r3, #0
1a00103e:	7023      	strb	r3, [r4, #0]
	fs->pdrv = LD2PD(vol);				/* Bind the logical drive and a physical drive */
1a001040:	4bb7      	ldr	r3, [pc, #732]	; (1a001320 <find_volume+0x330>)
1a001042:	f813 0017 	ldrb.w	r0, [r3, r7, lsl #1]
1a001046:	7060      	strb	r0, [r4, #1]
	stat = disk_initialize(fs->pdrv);	/* Initialize the physical drive */
1a001048:	f004 fdc3 	bl	1a005bd2 <disk_initialize>
	if (stat & STA_NOINIT) { 			/* Check if the initialization succeeded */
1a00104c:	f010 0601 	ands.w	r6, r0, #1
1a001050:	f040 81ef 	bne.w	1a001432 <find_volume+0x442>
	if (!FF_FS_READONLY && mode && (stat & STA_PROTECT)) { /* Check disk write protection if needed */
1a001054:	b11d      	cbz	r5, 1a00105e <find_volume+0x6e>
1a001056:	f010 0f04 	tst.w	r0, #4
1a00105a:	f040 81ec 	bne.w	1a001436 <find_volume+0x446>
	fmt = check_fs(fs, bsect);			/* Load sector 0 and check if it is an FAT-VBR as SFD */
1a00105e:	2100      	movs	r1, #0
1a001060:	4620      	mov	r0, r4
1a001062:	f7ff ff83 	bl	1a000f6c <check_fs>
	if (fmt == 2 || (fmt < 2 && LD2PT(vol) != 0)) {	/* Not an FAT-VBR or forced partition number */
1a001066:	2802      	cmp	r0, #2
1a001068:	f000 8095 	beq.w	1a001196 <find_volume+0x1a6>
1a00106c:	2801      	cmp	r0, #1
1a00106e:	d975      	bls.n	1a00115c <find_volume+0x16c>
	bsect = 0;
1a001070:	2500      	movs	r5, #0
	if (fmt == 4) return FR_DISK_ERR;		/* An error occured in the disk I/O layer */
1a001072:	2804      	cmp	r0, #4
1a001074:	f000 81e1 	beq.w	1a00143a <find_volume+0x44a>
	if (fmt >= 2) return FR_NO_FILESYSTEM;	/* No FAT volume is found */
1a001078:	2801      	cmp	r0, #1
1a00107a:	f200 81e0 	bhi.w	1a00143e <find_volume+0x44e>
	if (fmt == 1) {
1a00107e:	f000 80b6 	beq.w	1a0011ee <find_volume+0x1fe>
		if (ld_word(fs->win + BPB_BytsPerSec) != SS(fs)) return FR_NO_FILESYSTEM;	/* (BPB_BytsPerSec must be equal to the physical sector size) */
1a001082:	f104 0043 	add.w	r0, r4, #67	; 0x43
1a001086:	f7ff fc8f 	bl	1a0009a8 <ld_word>
1a00108a:	f5b0 7f00 	cmp.w	r0, #512	; 0x200
1a00108e:	f040 81ec 	bne.w	1a00146a <find_volume+0x47a>
		fasize = ld_word(fs->win + BPB_FATSz16);		/* Number of sectors per FAT */
1a001092:	f104 004e 	add.w	r0, r4, #78	; 0x4e
1a001096:	f7ff fc87 	bl	1a0009a8 <ld_word>
1a00109a:	4607      	mov	r7, r0
		if (fasize == 0) fasize = ld_dword(fs->win + BPB_FATSz32);
1a00109c:	b920      	cbnz	r0, 1a0010a8 <find_volume+0xb8>
1a00109e:	f104 005c 	add.w	r0, r4, #92	; 0x5c
1a0010a2:	f7ff fc86 	bl	1a0009b2 <ld_dword>
1a0010a6:	4607      	mov	r7, r0
		fs->fsize = fasize;
1a0010a8:	6227      	str	r7, [r4, #32]
		fs->n_fats = fs->win[BPB_NumFATs];				/* Number of FATs */
1a0010aa:	f894 2048 	ldrb.w	r2, [r4, #72]	; 0x48
1a0010ae:	70a2      	strb	r2, [r4, #2]
		if (fs->n_fats != 1 && fs->n_fats != 2) return FR_NO_FILESYSTEM;	/* (Must be 1 or 2) */
1a0010b0:	1e53      	subs	r3, r2, #1
1a0010b2:	b2db      	uxtb	r3, r3
1a0010b4:	2b01      	cmp	r3, #1
1a0010b6:	f200 81da 	bhi.w	1a00146e <find_volume+0x47e>
		fasize *= fs->n_fats;							/* Number of sectors for FAT area */
1a0010ba:	fb07 f802 	mul.w	r8, r7, r2
		fs->csize = fs->win[BPB_SecPerClus];			/* Cluster size */
1a0010be:	f894 9045 	ldrb.w	r9, [r4, #69]	; 0x45
1a0010c2:	f8a4 900a 	strh.w	r9, [r4, #10]
		if (fs->csize == 0 || (fs->csize & (fs->csize - 1))) return FR_NO_FILESYSTEM;	/* (Must be power of 2) */
1a0010c6:	f1b9 0f00 	cmp.w	r9, #0
1a0010ca:	f000 81d2 	beq.w	1a001472 <find_volume+0x482>
1a0010ce:	f109 33ff 	add.w	r3, r9, #4294967295	; 0xffffffff
1a0010d2:	ea19 0f03 	tst.w	r9, r3
1a0010d6:	f040 81ce 	bne.w	1a001476 <find_volume+0x486>
		fs->n_rootdir = ld_word(fs->win + BPB_RootEntCnt);	/* Number of root directory entries */
1a0010da:	f104 0049 	add.w	r0, r4, #73	; 0x49
1a0010de:	f7ff fc63 	bl	1a0009a8 <ld_word>
1a0010e2:	4682      	mov	sl, r0
1a0010e4:	8120      	strh	r0, [r4, #8]
		if (fs->n_rootdir % (SS(fs) / SZDIRE)) return FR_NO_FILESYSTEM;	/* (Must be sector aligned) */
1a0010e6:	f010 0f0f 	tst.w	r0, #15
1a0010ea:	f040 81c6 	bne.w	1a00147a <find_volume+0x48a>
		tsect = ld_word(fs->win + BPB_TotSec16);		/* Number of sectors on the volume */
1a0010ee:	f104 004b 	add.w	r0, r4, #75	; 0x4b
1a0010f2:	f7ff fc59 	bl	1a0009a8 <ld_word>
1a0010f6:	4683      	mov	fp, r0
		if (tsect == 0) tsect = ld_dword(fs->win + BPB_TotSec32);
1a0010f8:	b920      	cbnz	r0, 1a001104 <find_volume+0x114>
1a0010fa:	f104 0058 	add.w	r0, r4, #88	; 0x58
1a0010fe:	f7ff fc58 	bl	1a0009b2 <ld_dword>
1a001102:	4683      	mov	fp, r0
		nrsv = ld_word(fs->win + BPB_RsvdSecCnt);		/* Number of reserved sectors */
1a001104:	f104 0046 	add.w	r0, r4, #70	; 0x46
1a001108:	f7ff fc4e 	bl	1a0009a8 <ld_word>
		if (nrsv == 0) return FR_NO_FILESYSTEM;			/* (Must not be 0) */
1a00110c:	4602      	mov	r2, r0
1a00110e:	2800      	cmp	r0, #0
1a001110:	f000 81b5 	beq.w	1a00147e <find_volume+0x48e>
		sysect = nrsv + fasize + fs->n_rootdir / (SS(fs) / SZDIRE);	/* RSV + FAT + DIR */
1a001114:	eb00 0308 	add.w	r3, r0, r8
1a001118:	eb03 131a 	add.w	r3, r3, sl, lsr #4
		if (tsect < sysect) return FR_NO_FILESYSTEM;	/* (Invalid volume size) */
1a00111c:	459b      	cmp	fp, r3
1a00111e:	f0c0 81b0 	bcc.w	1a001482 <find_volume+0x492>
		nclst = (tsect - sysect) / fs->csize;			/* Number of clusters */
1a001122:	ebab 0b03 	sub.w	fp, fp, r3
1a001126:	fbbb f1f9 	udiv	r1, fp, r9
		if (nclst == 0) return FR_NO_FILESYSTEM;		/* (Invalid volume size) */
1a00112a:	45cb      	cmp	fp, r9
1a00112c:	f0c0 81ab 	bcc.w	1a001486 <find_volume+0x496>
		if (nclst <= MAX_FAT32) fmt = FS_FAT32;
1a001130:	487c      	ldr	r0, [pc, #496]	; (1a001324 <find_volume+0x334>)
1a001132:	4281      	cmp	r1, r0
1a001134:	f240 80ef 	bls.w	1a001316 <find_volume+0x326>
		fmt = 0;
1a001138:	46b3      	mov	fp, r6
		if (nclst <= MAX_FAT16) fmt = FS_FAT16;
1a00113a:	f64f 70f5 	movw	r0, #65525	; 0xfff5
1a00113e:	4281      	cmp	r1, r0
1a001140:	d801      	bhi.n	1a001146 <find_volume+0x156>
1a001142:	f04f 0b02 	mov.w	fp, #2
		if (nclst <= MAX_FAT12) fmt = FS_FAT12;
1a001146:	f640 70f5 	movw	r0, #4085	; 0xff5
1a00114a:	4281      	cmp	r1, r0
1a00114c:	f240 80ee 	bls.w	1a00132c <find_volume+0x33c>
		if (fmt == 0) return FR_NO_FILESYSTEM;
1a001150:	f1bb 0f00 	cmp.w	fp, #0
1a001154:	f040 80ec 	bne.w	1a001330 <find_volume+0x340>
1a001158:	260d      	movs	r6, #13
1a00115a:	e164      	b.n	1a001426 <find_volume+0x436>
	if (fmt == 2 || (fmt < 2 && LD2PT(vol) != 0)) {	/* Not an FAT-VBR or forced partition number */
1a00115c:	4b70      	ldr	r3, [pc, #448]	; (1a001320 <find_volume+0x330>)
1a00115e:	eb03 0347 	add.w	r3, r3, r7, lsl #1
1a001162:	785b      	ldrb	r3, [r3, #1]
1a001164:	b9cb      	cbnz	r3, 1a00119a <find_volume+0x1aa>
	bsect = 0;
1a001166:	2500      	movs	r5, #0
1a001168:	e783      	b.n	1a001072 <find_volume+0x82>
			br[i] = pt[PTE_System] ? ld_dword(pt + PTE_StLba) : 0;
1a00116a:	2000      	movs	r0, #0
1a00116c:	ab06      	add	r3, sp, #24
1a00116e:	eb03 0385 	add.w	r3, r3, r5, lsl #2
1a001172:	f843 0c10 	str.w	r0, [r3, #-16]
		for (i = 0; i < 4; i++) {		/* Get partition offset */
1a001176:	3501      	adds	r5, #1
1a001178:	2d03      	cmp	r5, #3
1a00117a:	d810      	bhi.n	1a00119e <find_volume+0x1ae>
			pt = fs->win + (MBR_Table + i * SZ_PTE);
1a00117c:	f104 0038 	add.w	r0, r4, #56	; 0x38
1a001180:	012b      	lsls	r3, r5, #4
1a001182:	f503 73df 	add.w	r3, r3, #446	; 0x1be
1a001186:	4418      	add	r0, r3
			br[i] = pt[PTE_System] ? ld_dword(pt + PTE_StLba) : 0;
1a001188:	7903      	ldrb	r3, [r0, #4]
1a00118a:	2b00      	cmp	r3, #0
1a00118c:	d0ed      	beq.n	1a00116a <find_volume+0x17a>
1a00118e:	3008      	adds	r0, #8
1a001190:	f7ff fc0f 	bl	1a0009b2 <ld_dword>
1a001194:	e7ea      	b.n	1a00116c <find_volume+0x17c>
1a001196:	2500      	movs	r5, #0
1a001198:	e7ee      	b.n	1a001178 <find_volume+0x188>
1a00119a:	2500      	movs	r5, #0
1a00119c:	e7ec      	b.n	1a001178 <find_volume+0x188>
		i = LD2PT(vol);					/* Partition number: 0:auto, 1-4:forced */
1a00119e:	4b60      	ldr	r3, [pc, #384]	; (1a001320 <find_volume+0x330>)
1a0011a0:	eb03 0347 	add.w	r3, r3, r7, lsl #1
1a0011a4:	f893 8001 	ldrb.w	r8, [r3, #1]
		if (i != 0) i--;
1a0011a8:	f1b8 0f00 	cmp.w	r8, #0
1a0011ac:	d016      	beq.n	1a0011dc <find_volume+0x1ec>
1a0011ae:	f108 38ff 	add.w	r8, r8, #4294967295	; 0xffffffff
1a0011b2:	e013      	b.n	1a0011dc <find_volume+0x1ec>
			fmt = bsect ? check_fs(fs, bsect) : 3;	/* Check the partition */
1a0011b4:	4629      	mov	r1, r5
1a0011b6:	4620      	mov	r0, r4
1a0011b8:	f7ff fed8 	bl	1a000f6c <check_fs>
		} while (LD2PT(vol) == 0 && fmt >= 2 && ++i < 4);
1a0011bc:	4b58      	ldr	r3, [pc, #352]	; (1a001320 <find_volume+0x330>)
1a0011be:	eb03 0347 	add.w	r3, r3, r7, lsl #1
1a0011c2:	785b      	ldrb	r3, [r3, #1]
1a0011c4:	2b00      	cmp	r3, #0
1a0011c6:	f47f af54 	bne.w	1a001072 <find_volume+0x82>
1a0011ca:	2801      	cmp	r0, #1
1a0011cc:	f67f af51 	bls.w	1a001072 <find_volume+0x82>
1a0011d0:	f108 0801 	add.w	r8, r8, #1
1a0011d4:	f1b8 0f03 	cmp.w	r8, #3
1a0011d8:	f63f af4b 	bhi.w	1a001072 <find_volume+0x82>
			bsect = br[i];
1a0011dc:	ab06      	add	r3, sp, #24
1a0011de:	eb03 0388 	add.w	r3, r3, r8, lsl #2
1a0011e2:	f853 5c10 	ldr.w	r5, [r3, #-16]
			fmt = bsect ? check_fs(fs, bsect) : 3;	/* Check the partition */
1a0011e6:	2d00      	cmp	r5, #0
1a0011e8:	d1e4      	bne.n	1a0011b4 <find_volume+0x1c4>
1a0011ea:	2003      	movs	r0, #3
1a0011ec:	e7e6      	b.n	1a0011bc <find_volume+0x1cc>
		for (i = BPB_ZeroedEx; i < BPB_ZeroedEx + 53 && fs->win[i] == 0; i++) ;	/* Check zero filler */
1a0011ee:	230b      	movs	r3, #11
1a0011f0:	2b3f      	cmp	r3, #63	; 0x3f
1a0011f2:	d805      	bhi.n	1a001200 <find_volume+0x210>
1a0011f4:	18e2      	adds	r2, r4, r3
1a0011f6:	f892 2038 	ldrb.w	r2, [r2, #56]	; 0x38
1a0011fa:	b90a      	cbnz	r2, 1a001200 <find_volume+0x210>
1a0011fc:	3301      	adds	r3, #1
1a0011fe:	e7f7      	b.n	1a0011f0 <find_volume+0x200>
		if (i < BPB_ZeroedEx + 53) return FR_NO_FILESYSTEM;
1a001200:	2b3f      	cmp	r3, #63	; 0x3f
1a001202:	f240 811e 	bls.w	1a001442 <find_volume+0x452>
		if (ld_word(fs->win + BPB_FSVerEx) != 0x100) return FR_NO_FILESYSTEM;	/* Check exFAT version (must be version 1.0) */
1a001206:	f104 00a0 	add.w	r0, r4, #160	; 0xa0
1a00120a:	f7ff fbcd 	bl	1a0009a8 <ld_word>
1a00120e:	f5b0 7f80 	cmp.w	r0, #256	; 0x100
1a001212:	f040 8118 	bne.w	1a001446 <find_volume+0x456>
		if (1 << fs->win[BPB_BytsPerSecEx] != SS(fs)) {	/* (BPB_BytsPerSecEx must be equal to the physical sector size) */
1a001216:	f894 30a4 	ldrb.w	r3, [r4, #164]	; 0xa4
1a00121a:	2b09      	cmp	r3, #9
1a00121c:	f040 8115 	bne.w	1a00144a <find_volume+0x45a>
		maxlba = ld_qword(fs->win + BPB_TotSecEx) + bsect;	/* Last LBA + 1 of the volume */
1a001220:	f104 0080 	add.w	r0, r4, #128	; 0x80
1a001224:	f7ff fbd0 	bl	1a0009c8 <ld_qword>
1a001228:	eb10 0805 	adds.w	r8, r0, r5
1a00122c:	f141 0900 	adc.w	r9, r1, #0
		if (maxlba >= 0x100000000) return FR_NO_FILESYSTEM;	/* (It cannot be handled in 32-bit LBA) */
1a001230:	f1b9 0f01 	cmp.w	r9, #1
1a001234:	bf08      	it	eq
1a001236:	f1b8 0f00 	cmpeq.w	r8, #0
1a00123a:	f080 8108 	bcs.w	1a00144e <find_volume+0x45e>
		fs->fsize = ld_dword(fs->win + BPB_FatSzEx);	/* Number of sectors per FAT */
1a00123e:	f104 008c 	add.w	r0, r4, #140	; 0x8c
1a001242:	f7ff fbb6 	bl	1a0009b2 <ld_dword>
1a001246:	6220      	str	r0, [r4, #32]
		fs->n_fats = fs->win[BPB_NumFATsEx];			/* Number of FATs */
1a001248:	f894 b0a6 	ldrb.w	fp, [r4, #166]	; 0xa6
1a00124c:	f884 b002 	strb.w	fp, [r4, #2]
		if (fs->n_fats != 1) return FR_NO_FILESYSTEM;	/* (Supports only 1 FAT) */
1a001250:	f1bb 0f01 	cmp.w	fp, #1
1a001254:	f040 80fd 	bne.w	1a001452 <find_volume+0x462>
		fs->csize = 1 << fs->win[BPB_SecPerClusEx];		/* Cluster size */
1a001258:	f894 30a5 	ldrb.w	r3, [r4, #165]	; 0xa5
1a00125c:	2701      	movs	r7, #1
1a00125e:	409f      	lsls	r7, r3
1a001260:	b2bf      	uxth	r7, r7
1a001262:	8167      	strh	r7, [r4, #10]
		if (fs->csize == 0)	return FR_NO_FILESYSTEM;	/* (Must be 1..32768) */
1a001264:	2f00      	cmp	r7, #0
1a001266:	f000 80f6 	beq.w	1a001456 <find_volume+0x466>
		nclst = ld_dword(fs->win + BPB_NumClusEx);		/* Number of clusters */
1a00126a:	f104 0094 	add.w	r0, r4, #148	; 0x94
1a00126e:	f7ff fba0 	bl	1a0009b2 <ld_dword>
1a001272:	4682      	mov	sl, r0
		if (nclst > MAX_EXFAT) return FR_NO_FILESYSTEM;	/* (Too many clusters) */
1a001274:	4b2c      	ldr	r3, [pc, #176]	; (1a001328 <find_volume+0x338>)
1a001276:	4298      	cmp	r0, r3
1a001278:	f200 80ef 	bhi.w	1a00145a <find_volume+0x46a>
		fs->n_fatent = nclst + 2;
1a00127c:	1c83      	adds	r3, r0, #2
1a00127e:	61e3      	str	r3, [r4, #28]
		fs->volbase = bsect;
1a001280:	6265      	str	r5, [r4, #36]	; 0x24
		fs->database = bsect + ld_dword(fs->win + BPB_DataOfsEx);
1a001282:	f104 0090 	add.w	r0, r4, #144	; 0x90
1a001286:	f7ff fb94 	bl	1a0009b2 <ld_dword>
1a00128a:	1943      	adds	r3, r0, r5
1a00128c:	9301      	str	r3, [sp, #4]
1a00128e:	6323      	str	r3, [r4, #48]	; 0x30
		fs->fatbase = bsect + ld_dword(fs->win + BPB_FatOfsEx);
1a001290:	f104 0088 	add.w	r0, r4, #136	; 0x88
1a001294:	f7ff fb8d 	bl	1a0009b2 <ld_dword>
1a001298:	4405      	add	r5, r0
1a00129a:	62a5      	str	r5, [r4, #40]	; 0x28
		if (maxlba < (QWORD)fs->database + nclst * fs->csize) return FR_NO_FILESYSTEM;	/* (Volume size must not be smaller than the size requiered) */
1a00129c:	fb0a f207 	mul.w	r2, sl, r7
1a0012a0:	2300      	movs	r3, #0
1a0012a2:	4611      	mov	r1, r2
1a0012a4:	461a      	mov	r2, r3
1a0012a6:	9b01      	ldr	r3, [sp, #4]
1a0012a8:	18c9      	adds	r1, r1, r3
1a0012aa:	f142 0200 	adc.w	r2, r2, #0
1a0012ae:	4591      	cmp	r9, r2
1a0012b0:	bf08      	it	eq
1a0012b2:	4588      	cmpeq	r8, r1
1a0012b4:	f0c0 80d3 	bcc.w	1a00145e <find_volume+0x46e>
		fs->dirbase = ld_dword(fs->win + BPB_RootClusEx);
1a0012b8:	f104 0098 	add.w	r0, r4, #152	; 0x98
1a0012bc:	f7ff fb79 	bl	1a0009b2 <ld_dword>
1a0012c0:	4601      	mov	r1, r0
1a0012c2:	62e0      	str	r0, [r4, #44]	; 0x2c
		if (move_window(fs, clst2sect(fs, fs->dirbase)) != FR_OK) return FR_DISK_ERR;
1a0012c4:	4620      	mov	r0, r4
1a0012c6:	f7ff fc4d 	bl	1a000b64 <clst2sect>
1a0012ca:	4601      	mov	r1, r0
1a0012cc:	4620      	mov	r0, r4
1a0012ce:	f7ff fe31 	bl	1a000f34 <move_window>
1a0012d2:	2800      	cmp	r0, #0
1a0012d4:	f040 80c5 	bne.w	1a001462 <find_volume+0x472>
		for (i = 0; i < SS(fs); i += SZDIRE) {
1a0012d8:	2500      	movs	r5, #0
1a0012da:	e000      	b.n	1a0012de <find_volume+0x2ee>
1a0012dc:	3520      	adds	r5, #32
1a0012de:	f5b5 7f00 	cmp.w	r5, #512	; 0x200
1a0012e2:	d20d      	bcs.n	1a001300 <find_volume+0x310>
			if (fs->win[i] == 0x81 && ld_dword(fs->win + i + 20) == 2) break;	/* 81 entry with cluster #2? */
1a0012e4:	1963      	adds	r3, r4, r5
1a0012e6:	f893 3038 	ldrb.w	r3, [r3, #56]	; 0x38
1a0012ea:	2b81      	cmp	r3, #129	; 0x81
1a0012ec:	d1f6      	bne.n	1a0012dc <find_volume+0x2ec>
1a0012ee:	f104 0338 	add.w	r3, r4, #56	; 0x38
1a0012f2:	f105 0014 	add.w	r0, r5, #20
1a0012f6:	4418      	add	r0, r3
1a0012f8:	f7ff fb5b 	bl	1a0009b2 <ld_dword>
1a0012fc:	2802      	cmp	r0, #2
1a0012fe:	d1ed      	bne.n	1a0012dc <find_volume+0x2ec>
		if (i == SS(fs)) return FR_NO_FILESYSTEM;
1a001300:	f5b5 7f00 	cmp.w	r5, #512	; 0x200
1a001304:	f000 80af 	beq.w	1a001466 <find_volume+0x476>
		fs->last_clst = fs->free_clst = 0xFFFFFFFF;		/* Initialize cluster allocation information */
1a001308:	f04f 33ff 	mov.w	r3, #4294967295	; 0xffffffff
1a00130c:	61a3      	str	r3, [r4, #24]
1a00130e:	6163      	str	r3, [r4, #20]
		fmt = FS_EXFAT;			/* FAT sub-type */
1a001310:	f04f 0b04 	mov.w	fp, #4
1a001314:	e036      	b.n	1a001384 <find_volume+0x394>
		if (nclst <= MAX_FAT32) fmt = FS_FAT32;
1a001316:	f04f 0b03 	mov.w	fp, #3
1a00131a:	e70e      	b.n	1a00113a <find_volume+0x14a>
1a00131c:	100003a0 	.word	0x100003a0
1a001320:	100000d4 	.word	0x100000d4
1a001324:	0ffffff5 	.word	0x0ffffff5
1a001328:	7ffffffd 	.word	0x7ffffffd
		if (nclst <= MAX_FAT12) fmt = FS_FAT12;
1a00132c:	f04f 0b01 	mov.w	fp, #1
		fs->n_fatent = nclst + 2;						/* Number of FAT entries */
1a001330:	f101 0902 	add.w	r9, r1, #2
1a001334:	f8c4 901c 	str.w	r9, [r4, #28]
		fs->volbase = bsect;							/* Volume start sector */
1a001338:	6265      	str	r5, [r4, #36]	; 0x24
		fs->fatbase = bsect + nrsv; 					/* FAT start sector */
1a00133a:	442a      	add	r2, r5
1a00133c:	62a2      	str	r2, [r4, #40]	; 0x28
		fs->database = bsect + sysect;					/* Data start sector */
1a00133e:	442b      	add	r3, r5
1a001340:	6323      	str	r3, [r4, #48]	; 0x30
		if (fmt == FS_FAT32) {
1a001342:	f1bb 0f03 	cmp.w	fp, #3
1a001346:	d02a      	beq.n	1a00139e <find_volume+0x3ae>
			if (fs->n_rootdir == 0)	return FR_NO_FILESYSTEM;	/* (BPB_RootEntCnt must not be 0) */
1a001348:	f1ba 0f00 	cmp.w	sl, #0
1a00134c:	f000 80a1 	beq.w	1a001492 <find_volume+0x4a2>
			fs->dirbase = fs->fatbase + fasize;			/* Root directory start sector */
1a001350:	4442      	add	r2, r8
1a001352:	62e2      	str	r2, [r4, #44]	; 0x2c
				fs->n_fatent * 2 : fs->n_fatent * 3 / 2 + (fs->n_fatent & 1);
1a001354:	f1bb 0f02 	cmp.w	fp, #2
1a001358:	d032      	beq.n	1a0013c0 <find_volume+0x3d0>
1a00135a:	eb09 0349 	add.w	r3, r9, r9, lsl #1
1a00135e:	f009 0901 	and.w	r9, r9, #1
1a001362:	eb09 0953 	add.w	r9, r9, r3, lsr #1
		if (fs->fsize < (szbfat + (SS(fs) - 1)) / SS(fs)) return FR_NO_FILESYSTEM;	/* (BPB_FATSz must not be less than the size needed) */
1a001366:	f209 13ff 	addw	r3, r9, #511	; 0x1ff
1a00136a:	ebb7 2f53 	cmp.w	r7, r3, lsr #9
1a00136e:	f0c0 8092 	bcc.w	1a001496 <find_volume+0x4a6>
		fs->last_clst = fs->free_clst = 0xFFFFFFFF;		/* Initialize cluster allocation information */
1a001372:	f04f 33ff 	mov.w	r3, #4294967295	; 0xffffffff
1a001376:	61a3      	str	r3, [r4, #24]
1a001378:	6163      	str	r3, [r4, #20]
		fs->fsi_flag = 0x80;
1a00137a:	2380      	movs	r3, #128	; 0x80
1a00137c:	7123      	strb	r3, [r4, #4]
		if (fmt == FS_FAT32				/* Allow to update FSInfo only if BPB_FSInfo32 == 1 */
1a00137e:	f1bb 0f03 	cmp.w	fp, #3
1a001382:	d020      	beq.n	1a0013c6 <find_volume+0x3d6>
	fs->fs_type = fmt;		/* FAT sub-type */
1a001384:	f884 b000 	strb.w	fp, [r4]
	fs->id = ++Fsid;		/* Volume mount ID */
1a001388:	4a44      	ldr	r2, [pc, #272]	; (1a00149c <find_volume+0x4ac>)
1a00138a:	8813      	ldrh	r3, [r2, #0]
1a00138c:	3301      	adds	r3, #1
1a00138e:	b29b      	uxth	r3, r3
1a001390:	8013      	strh	r3, [r2, #0]
1a001392:	80e3      	strh	r3, [r4, #6]
	fs->lfnbuf = LfnBuf;	/* Static LFN working buffer */
1a001394:	4b42      	ldr	r3, [pc, #264]	; (1a0014a0 <find_volume+0x4b0>)
1a001396:	60e3      	str	r3, [r4, #12]
	fs->dirbuf = DirBuf;	/* Static directory block scratchpad buuffer */
1a001398:	4b42      	ldr	r3, [pc, #264]	; (1a0014a4 <find_volume+0x4b4>)
1a00139a:	6123      	str	r3, [r4, #16]
	return FR_OK;
1a00139c:	e043      	b.n	1a001426 <find_volume+0x436>
			if (ld_word(fs->win + BPB_FSVer32) != 0) return FR_NO_FILESYSTEM;	/* (Must be FAT32 revision 0.0) */
1a00139e:	f104 0062 	add.w	r0, r4, #98	; 0x62
1a0013a2:	f7ff fb01 	bl	1a0009a8 <ld_word>
1a0013a6:	2800      	cmp	r0, #0
1a0013a8:	d16f      	bne.n	1a00148a <find_volume+0x49a>
			if (fs->n_rootdir != 0) return FR_NO_FILESYSTEM;	/* (BPB_RootEntCnt must be 0) */
1a0013aa:	f1ba 0f00 	cmp.w	sl, #0
1a0013ae:	d16e      	bne.n	1a00148e <find_volume+0x49e>
			fs->dirbase = ld_dword(fs->win + BPB_RootClus32);	/* Root directory start cluster */
1a0013b0:	f104 0064 	add.w	r0, r4, #100	; 0x64
1a0013b4:	f7ff fafd 	bl	1a0009b2 <ld_dword>
1a0013b8:	62e0      	str	r0, [r4, #44]	; 0x2c
			szbfat = fs->n_fatent * 4;					/* (Needed FAT size) */
1a0013ba:	ea4f 0989 	mov.w	r9, r9, lsl #2
1a0013be:	e7d2      	b.n	1a001366 <find_volume+0x376>
				fs->n_fatent * 2 : fs->n_fatent * 3 / 2 + (fs->n_fatent & 1);
1a0013c0:	ea4f 0949 	mov.w	r9, r9, lsl #1
1a0013c4:	e7cf      	b.n	1a001366 <find_volume+0x376>
			&& ld_word(fs->win + BPB_FSInfo32) == 1
1a0013c6:	f104 0068 	add.w	r0, r4, #104	; 0x68
1a0013ca:	f7ff faed 	bl	1a0009a8 <ld_word>
1a0013ce:	2801      	cmp	r0, #1
1a0013d0:	d1d8      	bne.n	1a001384 <find_volume+0x394>
			&& move_window(fs, bsect + 1) == FR_OK)
1a0013d2:	1c69      	adds	r1, r5, #1
1a0013d4:	4620      	mov	r0, r4
1a0013d6:	f7ff fdad 	bl	1a000f34 <move_window>
1a0013da:	2800      	cmp	r0, #0
1a0013dc:	d1d2      	bne.n	1a001384 <find_volume+0x394>
			fs->fsi_flag = 0;
1a0013de:	2300      	movs	r3, #0
1a0013e0:	7123      	strb	r3, [r4, #4]
			if (ld_word(fs->win + BS_55AA) == 0xAA55	/* Load FSInfo data if available */
1a0013e2:	f204 2036 	addw	r0, r4, #566	; 0x236
1a0013e6:	f7ff fadf 	bl	1a0009a8 <ld_word>
1a0013ea:	f64a 2355 	movw	r3, #43605	; 0xaa55
1a0013ee:	4298      	cmp	r0, r3
1a0013f0:	d1c8      	bne.n	1a001384 <find_volume+0x394>
				&& ld_dword(fs->win + FSI_LeadSig) == 0x41615252
1a0013f2:	f104 0038 	add.w	r0, r4, #56	; 0x38
1a0013f6:	f7ff fadc 	bl	1a0009b2 <ld_dword>
1a0013fa:	4b2b      	ldr	r3, [pc, #172]	; (1a0014a8 <find_volume+0x4b8>)
1a0013fc:	4298      	cmp	r0, r3
1a0013fe:	d1c1      	bne.n	1a001384 <find_volume+0x394>
				&& ld_dword(fs->win + FSI_StrucSig) == 0x61417272)
1a001400:	f504 7007 	add.w	r0, r4, #540	; 0x21c
1a001404:	f7ff fad5 	bl	1a0009b2 <ld_dword>
1a001408:	4b28      	ldr	r3, [pc, #160]	; (1a0014ac <find_volume+0x4bc>)
1a00140a:	4298      	cmp	r0, r3
1a00140c:	d1ba      	bne.n	1a001384 <find_volume+0x394>
				fs->free_clst = ld_dword(fs->win + FSI_Free_Count);
1a00140e:	f504 7008 	add.w	r0, r4, #544	; 0x220
1a001412:	f7ff face 	bl	1a0009b2 <ld_dword>
1a001416:	61a0      	str	r0, [r4, #24]
				fs->last_clst = ld_dword(fs->win + FSI_Nxt_Free);
1a001418:	f504 7009 	add.w	r0, r4, #548	; 0x224
1a00141c:	f7ff fac9 	bl	1a0009b2 <ld_dword>
1a001420:	6160      	str	r0, [r4, #20]
1a001422:	e7af      	b.n	1a001384 <find_volume+0x394>
	if (vol < 0) return FR_INVALID_DRIVE;
1a001424:	260b      	movs	r6, #11
}
1a001426:	4630      	mov	r0, r6
1a001428:	b007      	add	sp, #28
1a00142a:	e8bd 8ff0 	ldmia.w	sp!, {r4, r5, r6, r7, r8, r9, sl, fp, pc}
	if (!fs) return FR_NOT_ENABLED;		/* Is the filesystem object available? */
1a00142e:	260c      	movs	r6, #12
1a001430:	e7f9      	b.n	1a001426 <find_volume+0x436>
		return FR_NOT_READY;			/* Failed to initialize due to no medium or hard error */
1a001432:	2603      	movs	r6, #3
1a001434:	e7f7      	b.n	1a001426 <find_volume+0x436>
		return FR_WRITE_PROTECTED;
1a001436:	260a      	movs	r6, #10
1a001438:	e7f5      	b.n	1a001426 <find_volume+0x436>
	if (fmt == 4) return FR_DISK_ERR;		/* An error occured in the disk I/O layer */
1a00143a:	2601      	movs	r6, #1
1a00143c:	e7f3      	b.n	1a001426 <find_volume+0x436>
	if (fmt >= 2) return FR_NO_FILESYSTEM;	/* No FAT volume is found */
1a00143e:	260d      	movs	r6, #13
1a001440:	e7f1      	b.n	1a001426 <find_volume+0x436>
		if (i < BPB_ZeroedEx + 53) return FR_NO_FILESYSTEM;
1a001442:	260d      	movs	r6, #13
1a001444:	e7ef      	b.n	1a001426 <find_volume+0x436>
		if (ld_word(fs->win + BPB_FSVerEx) != 0x100) return FR_NO_FILESYSTEM;	/* Check exFAT version (must be version 1.0) */
1a001446:	260d      	movs	r6, #13
1a001448:	e7ed      	b.n	1a001426 <find_volume+0x436>
			return FR_NO_FILESYSTEM;
1a00144a:	260d      	movs	r6, #13
1a00144c:	e7eb      	b.n	1a001426 <find_volume+0x436>
		if (maxlba >= 0x100000000) return FR_NO_FILESYSTEM;	/* (It cannot be handled in 32-bit LBA) */
1a00144e:	260d      	movs	r6, #13
1a001450:	e7e9      	b.n	1a001426 <find_volume+0x436>
		if (fs->n_fats != 1) return FR_NO_FILESYSTEM;	/* (Supports only 1 FAT) */
1a001452:	260d      	movs	r6, #13
1a001454:	e7e7      	b.n	1a001426 <find_volume+0x436>
		if (fs->csize == 0)	return FR_NO_FILESYSTEM;	/* (Must be 1..32768) */
1a001456:	260d      	movs	r6, #13
1a001458:	e7e5      	b.n	1a001426 <find_volume+0x436>
		if (nclst > MAX_EXFAT) return FR_NO_FILESYSTEM;	/* (Too many clusters) */
1a00145a:	260d      	movs	r6, #13
1a00145c:	e7e3      	b.n	1a001426 <find_volume+0x436>
		if (maxlba < (QWORD)fs->database + nclst * fs->csize) return FR_NO_FILESYSTEM;	/* (Volume size must not be smaller than the size requiered) */
1a00145e:	260d      	movs	r6, #13
1a001460:	e7e1      	b.n	1a001426 <find_volume+0x436>
		if (move_window(fs, clst2sect(fs, fs->dirbase)) != FR_OK) return FR_DISK_ERR;
1a001462:	465e      	mov	r6, fp
1a001464:	e7df      	b.n	1a001426 <find_volume+0x436>
		if (i == SS(fs)) return FR_NO_FILESYSTEM;
1a001466:	260d      	movs	r6, #13
1a001468:	e7dd      	b.n	1a001426 <find_volume+0x436>
		if (ld_word(fs->win + BPB_BytsPerSec) != SS(fs)) return FR_NO_FILESYSTEM;	/* (BPB_BytsPerSec must be equal to the physical sector size) */
1a00146a:	260d      	movs	r6, #13
1a00146c:	e7db      	b.n	1a001426 <find_volume+0x436>
		if (fs->n_fats != 1 && fs->n_fats != 2) return FR_NO_FILESYSTEM;	/* (Must be 1 or 2) */
1a00146e:	260d      	movs	r6, #13
1a001470:	e7d9      	b.n	1a001426 <find_volume+0x436>
		if (fs->csize == 0 || (fs->csize & (fs->csize - 1))) return FR_NO_FILESYSTEM;	/* (Must be power of 2) */
1a001472:	260d      	movs	r6, #13
1a001474:	e7d7      	b.n	1a001426 <find_volume+0x436>
1a001476:	260d      	movs	r6, #13
1a001478:	e7d5      	b.n	1a001426 <find_volume+0x436>
		if (fs->n_rootdir % (SS(fs) / SZDIRE)) return FR_NO_FILESYSTEM;	/* (Must be sector aligned) */
1a00147a:	260d      	movs	r6, #13
1a00147c:	e7d3      	b.n	1a001426 <find_volume+0x436>
		if (nrsv == 0) return FR_NO_FILESYSTEM;			/* (Must not be 0) */
1a00147e:	260d      	movs	r6, #13
1a001480:	e7d1      	b.n	1a001426 <find_volume+0x436>
		if (tsect < sysect) return FR_NO_FILESYSTEM;	/* (Invalid volume size) */
1a001482:	260d      	movs	r6, #13
1a001484:	e7cf      	b.n	1a001426 <find_volume+0x436>
		if (nclst == 0) return FR_NO_FILESYSTEM;		/* (Invalid volume size) */
1a001486:	260d      	movs	r6, #13
1a001488:	e7cd      	b.n	1a001426 <find_volume+0x436>
			if (ld_word(fs->win + BPB_FSVer32) != 0) return FR_NO_FILESYSTEM;	/* (Must be FAT32 revision 0.0) */
1a00148a:	260d      	movs	r6, #13
1a00148c:	e7cb      	b.n	1a001426 <find_volume+0x436>
			if (fs->n_rootdir != 0) return FR_NO_FILESYSTEM;	/* (BPB_RootEntCnt must be 0) */
1a00148e:	260d      	movs	r6, #13
1a001490:	e7c9      	b.n	1a001426 <find_volume+0x436>
			if (fs->n_rootdir == 0)	return FR_NO_FILESYSTEM;	/* (BPB_RootEntCnt must not be 0) */
1a001492:	260d      	movs	r6, #13
1a001494:	e7c7      	b.n	1a001426 <find_volume+0x436>
		if (fs->fsize < (szbfat + (SS(fs) - 1)) / SS(fs)) return FR_NO_FILESYSTEM;	/* (BPB_FATSz must not be less than the size needed) */
1a001496:	260d      	movs	r6, #13
1a001498:	e7c5      	b.n	1a001426 <find_volume+0x436>
1a00149a:	bf00      	nop
1a00149c:	100003a8 	.word	0x100003a8
1a0014a0:	100003ac 	.word	0x100003ac
1a0014a4:	10000140 	.word	0x10000140
1a0014a8:	41615252 	.word	0x41615252
1a0014ac:	61417272 	.word	0x61417272

1a0014b0 <find_bitmap>:
{
1a0014b0:	e92d 43f8 	stmdb	sp!, {r3, r4, r5, r6, r7, r8, r9, lr}
1a0014b4:	4605      	mov	r5, r0
1a0014b6:	4691      	mov	r9, r2
	clst -= 2;	/* The first bit in the bitmap corresponds to cluster #2 */
1a0014b8:	1e8f      	subs	r7, r1, #2
	if (clst >= fs->n_fatent - 2) clst = 0;
1a0014ba:	69c3      	ldr	r3, [r0, #28]
1a0014bc:	3b02      	subs	r3, #2
1a0014be:	42bb      	cmp	r3, r7
1a0014c0:	d800      	bhi.n	1a0014c4 <find_bitmap+0x14>
1a0014c2:	2700      	movs	r7, #0
	scl = val = clst; ctr = 0;
1a0014c4:	46b8      	mov	r8, r7
1a0014c6:	463c      	mov	r4, r7
1a0014c8:	2600      	movs	r6, #0
		if (move_window(fs, fs->database + val / 8 / SS(fs)) != FR_OK) return 0xFFFFFFFF;	/* (assuming bitmap is located top of the cluster heap) */
1a0014ca:	6b29      	ldr	r1, [r5, #48]	; 0x30
1a0014cc:	eb01 3114 	add.w	r1, r1, r4, lsr #12
1a0014d0:	4628      	mov	r0, r5
1a0014d2:	f7ff fd2f 	bl	1a000f34 <move_window>
1a0014d6:	4684      	mov	ip, r0
1a0014d8:	bb40      	cbnz	r0, 1a00152c <find_bitmap+0x7c>
		i = val / 8 % SS(fs); bm = 1 << (val % 8);
1a0014da:	f3c4 00c8 	ubfx	r0, r4, #3, #9
1a0014de:	f004 0207 	and.w	r2, r4, #7
1a0014e2:	2301      	movs	r3, #1
1a0014e4:	4093      	lsls	r3, r2
1a0014e6:	b2db      	uxtb	r3, r3
1a0014e8:	e009      	b.n	1a0014fe <find_bitmap+0x4e>
					scl = val; ctr = 0;		/* Encountered a cluster in-use, restart to scan */
1a0014ea:	46a0      	mov	r8, r4
1a0014ec:	2600      	movs	r6, #0
				if (val == clst) return 0;	/* All cluster scanned? */
1a0014ee:	42a7      	cmp	r7, r4
1a0014f0:	d01f      	beq.n	1a001532 <find_bitmap+0x82>
			} while (bm != 0);
1a0014f2:	b923      	cbnz	r3, 1a0014fe <find_bitmap+0x4e>
		} while (++i < SS(fs));
1a0014f4:	3001      	adds	r0, #1
1a0014f6:	f5b0 7f00 	cmp.w	r0, #512	; 0x200
1a0014fa:	d2e6      	bcs.n	1a0014ca <find_bitmap+0x1a>
			bm = 1;
1a0014fc:	2301      	movs	r3, #1
				bv = fs->win[i] & bm; bm <<= 1;		/* Get bit value */
1a0014fe:	182a      	adds	r2, r5, r0
1a001500:	f892 2038 	ldrb.w	r2, [r2, #56]	; 0x38
1a001504:	401a      	ands	r2, r3
1a001506:	005b      	lsls	r3, r3, #1
1a001508:	b2db      	uxtb	r3, r3
				if (++val >= fs->n_fatent - 2) {	/* Next cluster (with wrap-around) */
1a00150a:	3401      	adds	r4, #1
1a00150c:	69e9      	ldr	r1, [r5, #28]
1a00150e:	3902      	subs	r1, #2
1a001510:	42a1      	cmp	r1, r4
1a001512:	d803      	bhi.n	1a00151c <find_bitmap+0x6c>
					val = 0; bm = 0; i = SS(fs);
1a001514:	4663      	mov	r3, ip
1a001516:	2400      	movs	r4, #0
1a001518:	f44f 7000 	mov.w	r0, #512	; 0x200
				if (bv == 0) {	/* Is it a free cluster? */
1a00151c:	2a00      	cmp	r2, #0
1a00151e:	d1e4      	bne.n	1a0014ea <find_bitmap+0x3a>
					if (++ctr == ncl) return scl + 2;	/* Check if run length is sufficient for required */
1a001520:	3601      	adds	r6, #1
1a001522:	454e      	cmp	r6, r9
1a001524:	d1e3      	bne.n	1a0014ee <find_bitmap+0x3e>
1a001526:	f108 0002 	add.w	r0, r8, #2
1a00152a:	e003      	b.n	1a001534 <find_bitmap+0x84>
		if (move_window(fs, fs->database + val / 8 / SS(fs)) != FR_OK) return 0xFFFFFFFF;	/* (assuming bitmap is located top of the cluster heap) */
1a00152c:	f04f 30ff 	mov.w	r0, #4294967295	; 0xffffffff
1a001530:	e000      	b.n	1a001534 <find_bitmap+0x84>
				if (val == clst) return 0;	/* All cluster scanned? */
1a001532:	2000      	movs	r0, #0
}
1a001534:	e8bd 83f8 	ldmia.w	sp!, {r3, r4, r5, r6, r7, r8, r9, pc}

1a001538 <change_bitmap>:
{
1a001538:	e92d 43f8 	stmdb	sp!, {r3, r4, r5, r6, r7, r8, r9, lr}
1a00153c:	4606      	mov	r6, r0
1a00153e:	4617      	mov	r7, r2
1a001540:	4698      	mov	r8, r3
	clst -= 2;	/* The first bit corresponds to cluster #2 */
1a001542:	1e8c      	subs	r4, r1, #2
	sect = fs->database + clst / 8 / SS(fs);	/* Sector address (assuming bitmap is located top of the cluster heap) */
1a001544:	6b01      	ldr	r1, [r0, #48]	; 0x30
1a001546:	eb01 3114 	add.w	r1, r1, r4, lsr #12
	i = clst / 8 % SS(fs);						/* Byte offset in the sector */
1a00154a:	f3c4 05c8 	ubfx	r5, r4, #3, #9
	bm = 1 << (clst % 8);						/* Bit mask in the byte */
1a00154e:	f004 0407 	and.w	r4, r4, #7
1a001552:	2301      	movs	r3, #1
1a001554:	fa03 f404 	lsl.w	r4, r3, r4
1a001558:	b2e4      	uxtb	r4, r4
		if (move_window(fs, sect++) != FR_OK) return FR_DISK_ERR;
1a00155a:	f101 0901 	add.w	r9, r1, #1
1a00155e:	4630      	mov	r0, r6
1a001560:	f7ff fce8 	bl	1a000f34 <move_window>
1a001564:	4602      	mov	r2, r0
1a001566:	b110      	cbz	r0, 1a00156e <change_bitmap+0x36>
1a001568:	2201      	movs	r2, #1
1a00156a:	e01e      	b.n	1a0015aa <change_bitmap+0x72>
			bm = 1;
1a00156c:	2401      	movs	r4, #1
				if (bv == (int)((fs->win[i] & bm) != 0)) return FR_INT_ERR;	/* Is the bit expected value? */
1a00156e:	1973      	adds	r3, r6, r5
1a001570:	f893 1038 	ldrb.w	r1, [r3, #56]	; 0x38
1a001574:	4221      	tst	r1, r4
1a001576:	bf14      	ite	ne
1a001578:	2301      	movne	r3, #1
1a00157a:	2300      	moveq	r3, #0
1a00157c:	4543      	cmp	r3, r8
1a00157e:	d013      	beq.n	1a0015a8 <change_bitmap+0x70>
				fs->win[i] ^= bm;	/* Flip the bit */
1a001580:	1973      	adds	r3, r6, r5
1a001582:	4061      	eors	r1, r4
1a001584:	f883 1038 	strb.w	r1, [r3, #56]	; 0x38
				fs->wflag = 1;
1a001588:	2301      	movs	r3, #1
1a00158a:	70f3      	strb	r3, [r6, #3]
				if (--ncl == 0) return FR_OK;	/* All bits processed? */
1a00158c:	3f01      	subs	r7, #1
1a00158e:	d00c      	beq.n	1a0015aa <change_bitmap+0x72>
			} while (bm <<= 1);		/* Next bit */
1a001590:	409c      	lsls	r4, r3
1a001592:	f014 04ff 	ands.w	r4, r4, #255	; 0xff
1a001596:	d1ea      	bne.n	1a00156e <change_bitmap+0x36>
		} while (++i < SS(fs));		/* Next byte */
1a001598:	441d      	add	r5, r3
			bm = 1;
1a00159a:	461c      	mov	r4, r3
		} while (++i < SS(fs));		/* Next byte */
1a00159c:	f5b5 7f00 	cmp.w	r5, #512	; 0x200
1a0015a0:	d3e4      	bcc.n	1a00156c <change_bitmap+0x34>
		if (move_window(fs, sect++) != FR_OK) return FR_DISK_ERR;
1a0015a2:	4649      	mov	r1, r9
		i = 0;
1a0015a4:	2500      	movs	r5, #0
1a0015a6:	e7d8      	b.n	1a00155a <change_bitmap+0x22>
				if (bv == (int)((fs->win[i] & bm) != 0)) return FR_INT_ERR;	/* Is the bit expected value? */
1a0015a8:	2202      	movs	r2, #2
}
1a0015aa:	4610      	mov	r0, r2
1a0015ac:	e8bd 83f8 	ldmia.w	sp!, {r3, r4, r5, r6, r7, r8, r9, pc}

1a0015b0 <put_fat>:
{
1a0015b0:	e92d 47f0 	stmdb	sp!, {r4, r5, r6, r7, r8, r9, sl, lr}
	if (clst >= 2 && clst < fs->n_fatent) {	/* Check if in valid range */
1a0015b4:	2901      	cmp	r1, #1
1a0015b6:	f240 8087 	bls.w	1a0016c8 <put_fat+0x118>
1a0015ba:	4605      	mov	r5, r0
1a0015bc:	460c      	mov	r4, r1
1a0015be:	4616      	mov	r6, r2
1a0015c0:	69c3      	ldr	r3, [r0, #28]
1a0015c2:	428b      	cmp	r3, r1
1a0015c4:	f240 8084 	bls.w	1a0016d0 <put_fat+0x120>
		switch (fs->fs_type) {
1a0015c8:	7803      	ldrb	r3, [r0, #0]
1a0015ca:	2b02      	cmp	r3, #2
1a0015cc:	d069      	beq.n	1a0016a2 <put_fat+0xf2>
1a0015ce:	d836      	bhi.n	1a00163e <put_fat+0x8e>
1a0015d0:	2b01      	cmp	r3, #1
1a0015d2:	d132      	bne.n	1a00163a <put_fat+0x8a>
			bc = (UINT)clst; bc += bc / 2;	/* bc: byte offset of the entry */
1a0015d4:	eb01 0851 	add.w	r8, r1, r1, lsr #1
			res = move_window(fs, fs->fatbase + (bc / SS(fs)));
1a0015d8:	6a81      	ldr	r1, [r0, #40]	; 0x28
1a0015da:	eb01 2158 	add.w	r1, r1, r8, lsr #9
1a0015de:	f7ff fca9 	bl	1a000f34 <move_window>
			if (res != FR_OK) break;
1a0015e2:	4607      	mov	r7, r0
1a0015e4:	2800      	cmp	r0, #0
1a0015e6:	d170      	bne.n	1a0016ca <put_fat+0x11a>
			p = fs->win + bc++ % SS(fs);
1a0015e8:	f105 0a38 	add.w	sl, r5, #56	; 0x38
1a0015ec:	f108 0901 	add.w	r9, r8, #1
1a0015f0:	f3c8 0808 	ubfx	r8, r8, #0, #9
			*p = (clst & 1) ? ((*p & 0x0F) | ((BYTE)val << 4)) : (BYTE)val;		/* Put 1st byte */
1a0015f4:	f014 0401 	ands.w	r4, r4, #1
1a0015f8:	d048      	beq.n	1a00168c <put_fat+0xdc>
1a0015fa:	f91a 3008 	ldrsb.w	r3, [sl, r8]
1a0015fe:	f003 030f 	and.w	r3, r3, #15
1a001602:	0132      	lsls	r2, r6, #4
1a001604:	f402 627f 	and.w	r2, r2, #4080	; 0xff0
1a001608:	4313      	orrs	r3, r2
1a00160a:	b2db      	uxtb	r3, r3
1a00160c:	f80a 3008 	strb.w	r3, [sl, r8]
			fs->wflag = 1;
1a001610:	2301      	movs	r3, #1
1a001612:	70eb      	strb	r3, [r5, #3]
			res = move_window(fs, fs->fatbase + (bc / SS(fs)));
1a001614:	6aa9      	ldr	r1, [r5, #40]	; 0x28
1a001616:	eb01 2159 	add.w	r1, r1, r9, lsr #9
1a00161a:	4628      	mov	r0, r5
1a00161c:	f7ff fc8a 	bl	1a000f34 <move_window>
			if (res != FR_OK) break;
1a001620:	4607      	mov	r7, r0
1a001622:	2800      	cmp	r0, #0
1a001624:	d151      	bne.n	1a0016ca <put_fat+0x11a>
			p = fs->win + bc % SS(fs);
1a001626:	f3c9 0908 	ubfx	r9, r9, #0, #9
			*p = (clst & 1) ? (BYTE)(val >> 4) : ((*p & 0xF0) | ((BYTE)(val >> 8) & 0x0F));	/* Put 2nd byte */
1a00162a:	b38c      	cbz	r4, 1a001690 <put_fat+0xe0>
1a00162c:	f3c6 1607 	ubfx	r6, r6, #4, #8
1a001630:	f80a 6009 	strb.w	r6, [sl, r9]
			fs->wflag = 1;
1a001634:	2301      	movs	r3, #1
1a001636:	70eb      	strb	r3, [r5, #3]
			break;
1a001638:	e047      	b.n	1a0016ca <put_fat+0x11a>
		switch (fs->fs_type) {
1a00163a:	2702      	movs	r7, #2
1a00163c:	e045      	b.n	1a0016ca <put_fat+0x11a>
1a00163e:	3b03      	subs	r3, #3
1a001640:	b2db      	uxtb	r3, r3
1a001642:	2b01      	cmp	r3, #1
1a001644:	d846      	bhi.n	1a0016d4 <put_fat+0x124>
			res = move_window(fs, fs->fatbase + (clst / (SS(fs) / 4)));
1a001646:	6a81      	ldr	r1, [r0, #40]	; 0x28
1a001648:	eb01 11d4 	add.w	r1, r1, r4, lsr #7
1a00164c:	f7ff fc72 	bl	1a000f34 <move_window>
			if (res != FR_OK) break;
1a001650:	4607      	mov	r7, r0
1a001652:	bbd0      	cbnz	r0, 1a0016ca <put_fat+0x11a>
			if (!FF_FS_EXFAT || fs->fs_type != FS_EXFAT) {
1a001654:	782b      	ldrb	r3, [r5, #0]
1a001656:	2b04      	cmp	r3, #4
1a001658:	d00c      	beq.n	1a001674 <put_fat+0xc4>
				val = (val & 0x0FFFFFFF) | (ld_dword(fs->win + clst * 4 % SS(fs)) & 0xF0000000);
1a00165a:	f026 4670 	bic.w	r6, r6, #4026531840	; 0xf0000000
1a00165e:	f105 0038 	add.w	r0, r5, #56	; 0x38
1a001662:	00a3      	lsls	r3, r4, #2
1a001664:	f403 73fe 	and.w	r3, r3, #508	; 0x1fc
1a001668:	4418      	add	r0, r3
1a00166a:	f7ff f9a2 	bl	1a0009b2 <ld_dword>
1a00166e:	f000 4070 	and.w	r0, r0, #4026531840	; 0xf0000000
1a001672:	4306      	orrs	r6, r0
			st_dword(fs->win + clst * 4 % SS(fs), val);
1a001674:	f105 0038 	add.w	r0, r5, #56	; 0x38
1a001678:	00a4      	lsls	r4, r4, #2
1a00167a:	f404 74fe 	and.w	r4, r4, #508	; 0x1fc
1a00167e:	4631      	mov	r1, r6
1a001680:	4420      	add	r0, r4
1a001682:	f7ff f9cc 	bl	1a000a1e <st_dword>
			fs->wflag = 1;
1a001686:	2301      	movs	r3, #1
1a001688:	70eb      	strb	r3, [r5, #3]
			break;
1a00168a:	e01e      	b.n	1a0016ca <put_fat+0x11a>
			*p = (clst & 1) ? ((*p & 0x0F) | ((BYTE)val << 4)) : (BYTE)val;		/* Put 1st byte */
1a00168c:	b2f3      	uxtb	r3, r6
1a00168e:	e7bd      	b.n	1a00160c <put_fat+0x5c>
			*p = (clst & 1) ? (BYTE)(val >> 4) : ((*p & 0xF0) | ((BYTE)(val >> 8) & 0x0F));	/* Put 2nd byte */
1a001690:	f91a 3009 	ldrsb.w	r3, [sl, r9]
1a001694:	f023 030f 	bic.w	r3, r3, #15
1a001698:	f3c6 2603 	ubfx	r6, r6, #8, #4
1a00169c:	431e      	orrs	r6, r3
1a00169e:	b2f6      	uxtb	r6, r6
1a0016a0:	e7c6      	b.n	1a001630 <put_fat+0x80>
			res = move_window(fs, fs->fatbase + (clst / (SS(fs) / 2)));
1a0016a2:	6a81      	ldr	r1, [r0, #40]	; 0x28
1a0016a4:	eb01 2114 	add.w	r1, r1, r4, lsr #8
1a0016a8:	f7ff fc44 	bl	1a000f34 <move_window>
			if (res != FR_OK) break;
1a0016ac:	4607      	mov	r7, r0
1a0016ae:	b960      	cbnz	r0, 1a0016ca <put_fat+0x11a>
			st_word(fs->win + clst * 2 % SS(fs), (WORD)val);	/* Simple WORD array */
1a0016b0:	f105 0038 	add.w	r0, r5, #56	; 0x38
1a0016b4:	0064      	lsls	r4, r4, #1
1a0016b6:	f404 74ff 	and.w	r4, r4, #510	; 0x1fe
1a0016ba:	b2b1      	uxth	r1, r6
1a0016bc:	4420      	add	r0, r4
1a0016be:	f7ff f9aa 	bl	1a000a16 <st_word>
			fs->wflag = 1;
1a0016c2:	2301      	movs	r3, #1
1a0016c4:	70eb      	strb	r3, [r5, #3]
			break;
1a0016c6:	e000      	b.n	1a0016ca <put_fat+0x11a>
	FRESULT res = FR_INT_ERR;
1a0016c8:	2702      	movs	r7, #2
}
1a0016ca:	4638      	mov	r0, r7
1a0016cc:	e8bd 87f0 	ldmia.w	sp!, {r4, r5, r6, r7, r8, r9, sl, pc}
	FRESULT res = FR_INT_ERR;
1a0016d0:	2702      	movs	r7, #2
1a0016d2:	e7fa      	b.n	1a0016ca <put_fat+0x11a>
		switch (fs->fs_type) {
1a0016d4:	2702      	movs	r7, #2
1a0016d6:	e7f8      	b.n	1a0016ca <put_fat+0x11a>

1a0016d8 <fill_last_frag>:
{
1a0016d8:	b570      	push	{r4, r5, r6, lr}
1a0016da:	4604      	mov	r4, r0
1a0016dc:	460d      	mov	r5, r1
1a0016de:	4616      	mov	r6, r2
	while (obj->n_frag > 0) {	/* Create the chain of last fragment */
1a0016e0:	e007      	b.n	1a0016f2 <fill_last_frag+0x1a>
		res = put_fat(obj->fs, lcl - obj->n_frag + 1, (obj->n_frag > 1) ? lcl - obj->n_frag + 2 : term);
1a0016e2:	4632      	mov	r2, r6
1a0016e4:	f7ff ff64 	bl	1a0015b0 <put_fat>
		if (res != FR_OK) return res;
1a0016e8:	4603      	mov	r3, r0
1a0016ea:	b958      	cbnz	r0, 1a001704 <fill_last_frag+0x2c>
		obj->n_frag--;
1a0016ec:	69e3      	ldr	r3, [r4, #28]
1a0016ee:	3b01      	subs	r3, #1
1a0016f0:	61e3      	str	r3, [r4, #28]
	while (obj->n_frag > 0) {	/* Create the chain of last fragment */
1a0016f2:	69e3      	ldr	r3, [r4, #28]
1a0016f4:	b133      	cbz	r3, 1a001704 <fill_last_frag+0x2c>
		res = put_fat(obj->fs, lcl - obj->n_frag + 1, (obj->n_frag > 1) ? lcl - obj->n_frag + 2 : term);
1a0016f6:	6820      	ldr	r0, [r4, #0]
1a0016f8:	1aea      	subs	r2, r5, r3
1a0016fa:	1c51      	adds	r1, r2, #1
1a0016fc:	2b01      	cmp	r3, #1
1a0016fe:	d9f0      	bls.n	1a0016e2 <fill_last_frag+0xa>
1a001700:	3202      	adds	r2, #2
1a001702:	e7ef      	b.n	1a0016e4 <fill_last_frag+0xc>
}
1a001704:	4618      	mov	r0, r3
1a001706:	bd70      	pop	{r4, r5, r6, pc}

1a001708 <fill_first_frag>:
	if (obj->stat == 3) {	/* Has the object been changed 'fragmented' in this session? */
1a001708:	79c3      	ldrb	r3, [r0, #7]
1a00170a:	2b03      	cmp	r3, #3
1a00170c:	d002      	beq.n	1a001714 <fill_first_frag+0xc>
	return FR_OK;
1a00170e:	2300      	movs	r3, #0
}
1a001710:	4618      	mov	r0, r3
1a001712:	4770      	bx	lr
{
1a001714:	b570      	push	{r4, r5, r6, lr}
1a001716:	4606      	mov	r6, r0
		for (cl = obj->sclust, n = obj->n_cont; n; cl++, n--) {	/* Create cluster chain on the FAT */
1a001718:	6881      	ldr	r1, [r0, #8]
1a00171a:	6984      	ldr	r4, [r0, #24]
1a00171c:	b14c      	cbz	r4, 1a001732 <fill_first_frag+0x2a>
			res = put_fat(obj->fs, cl, cl + 1);
1a00171e:	1c4d      	adds	r5, r1, #1
1a001720:	462a      	mov	r2, r5
1a001722:	6830      	ldr	r0, [r6, #0]
1a001724:	f7ff ff44 	bl	1a0015b0 <put_fat>
			if (res != FR_OK) return res;
1a001728:	4603      	mov	r3, r0
1a00172a:	b920      	cbnz	r0, 1a001736 <fill_first_frag+0x2e>
		for (cl = obj->sclust, n = obj->n_cont; n; cl++, n--) {	/* Create cluster chain on the FAT */
1a00172c:	3c01      	subs	r4, #1
1a00172e:	4629      	mov	r1, r5
1a001730:	e7f4      	b.n	1a00171c <fill_first_frag+0x14>
		obj->stat = 0;	/* Change status 'FAT chain is valid' */
1a001732:	2300      	movs	r3, #0
1a001734:	71f3      	strb	r3, [r6, #7]
}
1a001736:	4618      	mov	r0, r3
1a001738:	bd70      	pop	{r4, r5, r6, pc}

1a00173a <get_fat>:
{
1a00173a:	b5f8      	push	{r3, r4, r5, r6, r7, lr}
	FATFS *fs = obj->fs;
1a00173c:	6805      	ldr	r5, [r0, #0]
	if (clst < 2 || clst >= fs->n_fatent) {	/* Check if in valid range */
1a00173e:	2901      	cmp	r1, #1
1a001740:	f240 8099 	bls.w	1a001876 <get_fat+0x13c>
1a001744:	460c      	mov	r4, r1
1a001746:	69eb      	ldr	r3, [r5, #28]
1a001748:	428b      	cmp	r3, r1
1a00174a:	f240 8096 	bls.w	1a00187a <get_fat+0x140>
		switch (fs->fs_type) {
1a00174e:	782b      	ldrb	r3, [r5, #0]
1a001750:	3b01      	subs	r3, #1
1a001752:	2b03      	cmp	r3, #3
1a001754:	f200 8093 	bhi.w	1a00187e <get_fat+0x144>
1a001758:	e8df f003 	tbb	[pc, r3]
1a00175c:	4f3c2b02 	.word	0x4f3c2b02
			bc = (UINT)clst; bc += bc / 2;
1a001760:	eb01 0651 	add.w	r6, r1, r1, lsr #1
			if (move_window(fs, fs->fatbase + (bc / SS(fs))) != FR_OK) break;
1a001764:	6aa9      	ldr	r1, [r5, #40]	; 0x28
1a001766:	eb01 2156 	add.w	r1, r1, r6, lsr #9
1a00176a:	4628      	mov	r0, r5
1a00176c:	f7ff fbe2 	bl	1a000f34 <move_window>
1a001770:	b110      	cbz	r0, 1a001778 <get_fat+0x3e>
		val = 0xFFFFFFFF;	/* Default value falls on disk error */
1a001772:	f04f 30ff 	mov.w	r0, #4294967295	; 0xffffffff
1a001776:	e07f      	b.n	1a001878 <get_fat+0x13e>
			wc = fs->win[bc++ % SS(fs)];		/* Get 1st byte of the entry */
1a001778:	1c77      	adds	r7, r6, #1
1a00177a:	f3c6 0608 	ubfx	r6, r6, #0, #9
1a00177e:	442e      	add	r6, r5
1a001780:	f896 6038 	ldrb.w	r6, [r6, #56]	; 0x38
			if (move_window(fs, fs->fatbase + (bc / SS(fs))) != FR_OK) break;
1a001784:	6aa9      	ldr	r1, [r5, #40]	; 0x28
1a001786:	eb01 2157 	add.w	r1, r1, r7, lsr #9
1a00178a:	4628      	mov	r0, r5
1a00178c:	f7ff fbd2 	bl	1a000f34 <move_window>
1a001790:	2800      	cmp	r0, #0
1a001792:	d176      	bne.n	1a001882 <get_fat+0x148>
			wc |= fs->win[bc % SS(fs)] << 8;	/* Merge 2nd byte of the entry */
1a001794:	f3c7 0008 	ubfx	r0, r7, #0, #9
1a001798:	4428      	add	r0, r5
1a00179a:	f890 0038 	ldrb.w	r0, [r0, #56]	; 0x38
1a00179e:	ea46 2000 	orr.w	r0, r6, r0, lsl #8
			val = (clst & 1) ? (wc >> 4) : (wc & 0xFFF);	/* Adjust bit position */
1a0017a2:	f014 0f01 	tst.w	r4, #1
1a0017a6:	d001      	beq.n	1a0017ac <get_fat+0x72>
1a0017a8:	0900      	lsrs	r0, r0, #4
1a0017aa:	e065      	b.n	1a001878 <get_fat+0x13e>
1a0017ac:	f3c0 000b 	ubfx	r0, r0, #0, #12
1a0017b0:	e062      	b.n	1a001878 <get_fat+0x13e>
			if (move_window(fs, fs->fatbase + (clst / (SS(fs) / 2))) != FR_OK) break;
1a0017b2:	6aa9      	ldr	r1, [r5, #40]	; 0x28
1a0017b4:	eb01 2114 	add.w	r1, r1, r4, lsr #8
1a0017b8:	4628      	mov	r0, r5
1a0017ba:	f7ff fbbb 	bl	1a000f34 <move_window>
1a0017be:	2800      	cmp	r0, #0
1a0017c0:	d162      	bne.n	1a001888 <get_fat+0x14e>
			val = ld_word(fs->win + clst * 2 % SS(fs));		/* Simple WORD array */
1a0017c2:	f105 0038 	add.w	r0, r5, #56	; 0x38
1a0017c6:	0064      	lsls	r4, r4, #1
1a0017c8:	f404 74ff 	and.w	r4, r4, #510	; 0x1fe
1a0017cc:	4420      	add	r0, r4
1a0017ce:	f7ff f8eb 	bl	1a0009a8 <ld_word>
			break;
1a0017d2:	e051      	b.n	1a001878 <get_fat+0x13e>
			if (move_window(fs, fs->fatbase + (clst / (SS(fs) / 4))) != FR_OK) break;
1a0017d4:	6aa9      	ldr	r1, [r5, #40]	; 0x28
1a0017d6:	eb01 11d4 	add.w	r1, r1, r4, lsr #7
1a0017da:	4628      	mov	r0, r5
1a0017dc:	f7ff fbaa 	bl	1a000f34 <move_window>
1a0017e0:	2800      	cmp	r0, #0
1a0017e2:	d154      	bne.n	1a00188e <get_fat+0x154>
			val = ld_dword(fs->win + clst * 4 % SS(fs)) & 0x0FFFFFFF;	/* Simple DWORD array but mask out upper 4 bits */
1a0017e4:	f105 0038 	add.w	r0, r5, #56	; 0x38
1a0017e8:	00a4      	lsls	r4, r4, #2
1a0017ea:	f404 74fe 	and.w	r4, r4, #508	; 0x1fc
1a0017ee:	4420      	add	r0, r4
1a0017f0:	f7ff f8df 	bl	1a0009b2 <ld_dword>
1a0017f4:	f020 4070 	bic.w	r0, r0, #4026531840	; 0xf0000000
			break;
1a0017f8:	e03e      	b.n	1a001878 <get_fat+0x13e>
			if ((obj->objsize != 0 && obj->sclust != 0) || obj->stat == 0) {	/* Object except root dir must have valid data length */
1a0017fa:	e9d0 6704 	ldrd	r6, r7, [r0, #16]
1a0017fe:	ea56 0307 	orrs.w	r3, r6, r7
1a001802:	d001      	beq.n	1a001808 <get_fat+0xce>
1a001804:	6883      	ldr	r3, [r0, #8]
1a001806:	b913      	cbnz	r3, 1a00180e <get_fat+0xd4>
1a001808:	79c3      	ldrb	r3, [r0, #7]
1a00180a:	2b00      	cmp	r3, #0
1a00180c:	d142      	bne.n	1a001894 <get_fat+0x15a>
				DWORD cofs = clst - obj->sclust;	/* Offset from start cluster */
1a00180e:	6883      	ldr	r3, [r0, #8]
1a001810:	1ae2      	subs	r2, r4, r3
				DWORD clen = (DWORD)((obj->objsize - 1) / SS(fs)) / fs->csize;	/* Number of clusters - 1 */
1a001812:	f116 33ff 	adds.w	r3, r6, #4294967295	; 0xffffffff
1a001816:	f147 31ff 	adc.w	r1, r7, #4294967295	; 0xffffffff
1a00181a:	0a5b      	lsrs	r3, r3, #9
1a00181c:	ea43 53c1 	orr.w	r3, r3, r1, lsl #23
1a001820:	8969      	ldrh	r1, [r5, #10]
1a001822:	fbb3 f3f1 	udiv	r3, r3, r1
				if (obj->stat == 2 && cofs <= clen) {	/* Is it a contiguous chain? */
1a001826:	79c1      	ldrb	r1, [r0, #7]
1a001828:	2902      	cmp	r1, #2
1a00182a:	d008      	beq.n	1a00183e <get_fat+0x104>
				if (obj->stat == 3 && cofs < obj->n_cont) {	/* Is it in the 1st fragment? */
1a00182c:	2903      	cmp	r1, #3
1a00182e:	d00b      	beq.n	1a001848 <get_fat+0x10e>
				if (obj->stat != 2) {	/* Get value from FAT if FAT chain is valid */
1a001830:	2902      	cmp	r1, #2
1a001832:	d034      	beq.n	1a00189e <get_fat+0x164>
					if (obj->n_frag != 0) {	/* Is it on the growing edge? */
1a001834:	69c3      	ldr	r3, [r0, #28]
1a001836:	b163      	cbz	r3, 1a001852 <get_fat+0x118>
						val = 0x7FFFFFFF;	/* Generate EOC */
1a001838:	f06f 4000 	mvn.w	r0, #2147483648	; 0x80000000
1a00183c:	e01c      	b.n	1a001878 <get_fat+0x13e>
				if (obj->stat == 2 && cofs <= clen) {	/* Is it a contiguous chain? */
1a00183e:	429a      	cmp	r2, r3
1a001840:	d8f4      	bhi.n	1a00182c <get_fat+0xf2>
					val = (cofs == clen) ? 0x7FFFFFFF : clst + 1;	/* No data on the FAT, generate the value */
1a001842:	d029      	beq.n	1a001898 <get_fat+0x15e>
1a001844:	1c60      	adds	r0, r4, #1
1a001846:	e017      	b.n	1a001878 <get_fat+0x13e>
				if (obj->stat == 3 && cofs < obj->n_cont) {	/* Is it in the 1st fragment? */
1a001848:	6983      	ldr	r3, [r0, #24]
1a00184a:	4293      	cmp	r3, r2
1a00184c:	d9f0      	bls.n	1a001830 <get_fat+0xf6>
					val = clst + 1; 	/* Generate the value */
1a00184e:	1c60      	adds	r0, r4, #1
					break;
1a001850:	e012      	b.n	1a001878 <get_fat+0x13e>
						if (move_window(fs, fs->fatbase + (clst / (SS(fs) / 4))) != FR_OK) break;
1a001852:	6aa9      	ldr	r1, [r5, #40]	; 0x28
1a001854:	eb01 11d4 	add.w	r1, r1, r4, lsr #7
1a001858:	4628      	mov	r0, r5
1a00185a:	f7ff fb6b 	bl	1a000f34 <move_window>
1a00185e:	bb00      	cbnz	r0, 1a0018a2 <get_fat+0x168>
						val = ld_dword(fs->win + clst * 4 % SS(fs)) & 0x7FFFFFFF;
1a001860:	f105 0038 	add.w	r0, r5, #56	; 0x38
1a001864:	00a3      	lsls	r3, r4, #2
1a001866:	f403 73fe 	and.w	r3, r3, #508	; 0x1fc
1a00186a:	4418      	add	r0, r3
1a00186c:	f7ff f8a1 	bl	1a0009b2 <ld_dword>
1a001870:	f020 4000 	bic.w	r0, r0, #2147483648	; 0x80000000
1a001874:	e000      	b.n	1a001878 <get_fat+0x13e>
		val = 1;	/* Internal error */
1a001876:	2001      	movs	r0, #1
}
1a001878:	bdf8      	pop	{r3, r4, r5, r6, r7, pc}
		val = 1;	/* Internal error */
1a00187a:	2001      	movs	r0, #1
1a00187c:	e7fc      	b.n	1a001878 <get_fat+0x13e>
		switch (fs->fs_type) {
1a00187e:	2001      	movs	r0, #1
1a001880:	e7fa      	b.n	1a001878 <get_fat+0x13e>
		val = 0xFFFFFFFF;	/* Default value falls on disk error */
1a001882:	f04f 30ff 	mov.w	r0, #4294967295	; 0xffffffff
1a001886:	e7f7      	b.n	1a001878 <get_fat+0x13e>
1a001888:	f04f 30ff 	mov.w	r0, #4294967295	; 0xffffffff
1a00188c:	e7f4      	b.n	1a001878 <get_fat+0x13e>
1a00188e:	f04f 30ff 	mov.w	r0, #4294967295	; 0xffffffff
1a001892:	e7f1      	b.n	1a001878 <get_fat+0x13e>
			val = 1;	/* Internal error */
1a001894:	2001      	movs	r0, #1
1a001896:	e7ef      	b.n	1a001878 <get_fat+0x13e>
					val = (cofs == clen) ? 0x7FFFFFFF : clst + 1;	/* No data on the FAT, generate the value */
1a001898:	f06f 4000 	mvn.w	r0, #2147483648	; 0x80000000
1a00189c:	e7ec      	b.n	1a001878 <get_fat+0x13e>
			val = 1;	/* Internal error */
1a00189e:	2001      	movs	r0, #1
1a0018a0:	e7ea      	b.n	1a001878 <get_fat+0x13e>
		val = 0xFFFFFFFF;	/* Default value falls on disk error */
1a0018a2:	f04f 30ff 	mov.w	r0, #4294967295	; 0xffffffff
	return val;
1a0018a6:	e7e7      	b.n	1a001878 <get_fat+0x13e>

1a0018a8 <dir_sdi>:
{
1a0018a8:	e92d 41f0 	stmdb	sp!, {r4, r5, r6, r7, r8, lr}
1a0018ac:	4606      	mov	r6, r0
1a0018ae:	460f      	mov	r7, r1
	FATFS *fs = dp->obj.fs;
1a0018b0:	f8d0 8000 	ldr.w	r8, [r0]
	if (ofs >= (DWORD)((FF_FS_EXFAT && fs->fs_type == FS_EXFAT) ? MAX_DIR_EX : MAX_DIR) || ofs % SZDIRE) {	/* Check range of offset and alignment */
1a0018b4:	f898 3000 	ldrb.w	r3, [r8]
1a0018b8:	2b04      	cmp	r3, #4
1a0018ba:	d029      	beq.n	1a001910 <dir_sdi+0x68>
1a0018bc:	f44f 1300 	mov.w	r3, #2097152	; 0x200000
1a0018c0:	42bb      	cmp	r3, r7
1a0018c2:	d945      	bls.n	1a001950 <dir_sdi+0xa8>
1a0018c4:	f017 0f1f 	tst.w	r7, #31
1a0018c8:	d144      	bne.n	1a001954 <dir_sdi+0xac>
	dp->dptr = ofs;				/* Set current offset */
1a0018ca:	6337      	str	r7, [r6, #48]	; 0x30
	clst = dp->obj.sclust;		/* Table start cluster (0:root) */
1a0018cc:	68b4      	ldr	r4, [r6, #8]
	if (clst == 0 && fs->fs_type >= FS_FAT32) {	/* Replace cluster# 0 with root cluster# */
1a0018ce:	b93c      	cbnz	r4, 1a0018e0 <dir_sdi+0x38>
1a0018d0:	f898 3000 	ldrb.w	r3, [r8]
1a0018d4:	2b02      	cmp	r3, #2
1a0018d6:	d903      	bls.n	1a0018e0 <dir_sdi+0x38>
		clst = fs->dirbase;
1a0018d8:	f8d8 402c 	ldr.w	r4, [r8, #44]	; 0x2c
		if (FF_FS_EXFAT) dp->obj.stat = 0;	/* exFAT: Root dir has an FAT chain */
1a0018dc:	2300      	movs	r3, #0
1a0018de:	71f3      	strb	r3, [r6, #7]
	if (clst == 0) {	/* Static table (root-directory on the FAT volume) */
1a0018e0:	b9cc      	cbnz	r4, 1a001916 <dir_sdi+0x6e>
		if (ofs / SZDIRE >= fs->n_rootdir) return FR_INT_ERR;	/* Is index out of range? */
1a0018e2:	f8b8 3008 	ldrh.w	r3, [r8, #8]
1a0018e6:	ebb3 1f57 	cmp.w	r3, r7, lsr #5
1a0018ea:	d935      	bls.n	1a001958 <dir_sdi+0xb0>
		dp->sect = fs->dirbase;
1a0018ec:	f8d8 302c 	ldr.w	r3, [r8, #44]	; 0x2c
1a0018f0:	63b3      	str	r3, [r6, #56]	; 0x38
	dp->clust = clst;					/* Current cluster# */
1a0018f2:	6374      	str	r4, [r6, #52]	; 0x34
	if (dp->sect == 0) return FR_INT_ERR;
1a0018f4:	6bb3      	ldr	r3, [r6, #56]	; 0x38
1a0018f6:	b3ab      	cbz	r3, 1a001964 <dir_sdi+0xbc>
	dp->sect += ofs / SS(fs);			/* Sector# of the directory entry */
1a0018f8:	eb03 2357 	add.w	r3, r3, r7, lsr #9
1a0018fc:	63b3      	str	r3, [r6, #56]	; 0x38
	dp->dir = fs->win + (ofs % SS(fs));	/* Pointer to the entry in the win[] */
1a0018fe:	f108 0338 	add.w	r3, r8, #56	; 0x38
1a001902:	f3c7 0108 	ubfx	r1, r7, #0, #9
1a001906:	4419      	add	r1, r3
1a001908:	63f1      	str	r1, [r6, #60]	; 0x3c
	return FR_OK;
1a00190a:	2000      	movs	r0, #0
}
1a00190c:	e8bd 81f0 	ldmia.w	sp!, {r4, r5, r6, r7, r8, pc}
	if (ofs >= (DWORD)((FF_FS_EXFAT && fs->fs_type == FS_EXFAT) ? MAX_DIR_EX : MAX_DIR) || ofs % SZDIRE) {	/* Check range of offset and alignment */
1a001910:	f04f 5380 	mov.w	r3, #268435456	; 0x10000000
1a001914:	e7d4      	b.n	1a0018c0 <dir_sdi+0x18>
		csz = (DWORD)fs->csize * SS(fs);	/* Bytes per cluster */
1a001916:	f8b8 500a 	ldrh.w	r5, [r8, #10]
1a00191a:	026d      	lsls	r5, r5, #9
		while (ofs >= csz) {				/* Follow cluster chain */
1a00191c:	e000      	b.n	1a001920 <dir_sdi+0x78>
			ofs -= csz;
1a00191e:	1b7f      	subs	r7, r7, r5
		while (ofs >= csz) {				/* Follow cluster chain */
1a001920:	42af      	cmp	r7, r5
1a001922:	d30f      	bcc.n	1a001944 <dir_sdi+0x9c>
			clst = get_fat(&dp->obj, clst);				/* Get next cluster */
1a001924:	4621      	mov	r1, r4
1a001926:	4630      	mov	r0, r6
1a001928:	f7ff ff07 	bl	1a00173a <get_fat>
1a00192c:	4604      	mov	r4, r0
			if (clst == 0xFFFFFFFF) return FR_DISK_ERR;	/* Disk error */
1a00192e:	f1b0 3fff 	cmp.w	r0, #4294967295	; 0xffffffff
1a001932:	d013      	beq.n	1a00195c <dir_sdi+0xb4>
			if (clst < 2 || clst >= fs->n_fatent) return FR_INT_ERR;	/* Reached to end of table or internal error */
1a001934:	2801      	cmp	r0, #1
1a001936:	d913      	bls.n	1a001960 <dir_sdi+0xb8>
1a001938:	f8d8 301c 	ldr.w	r3, [r8, #28]
1a00193c:	4283      	cmp	r3, r0
1a00193e:	d8ee      	bhi.n	1a00191e <dir_sdi+0x76>
1a001940:	2002      	movs	r0, #2
1a001942:	e7e3      	b.n	1a00190c <dir_sdi+0x64>
		dp->sect = clst2sect(fs, clst);
1a001944:	4621      	mov	r1, r4
1a001946:	4640      	mov	r0, r8
1a001948:	f7ff f90c 	bl	1a000b64 <clst2sect>
1a00194c:	63b0      	str	r0, [r6, #56]	; 0x38
1a00194e:	e7d0      	b.n	1a0018f2 <dir_sdi+0x4a>
		return FR_INT_ERR;
1a001950:	2002      	movs	r0, #2
1a001952:	e7db      	b.n	1a00190c <dir_sdi+0x64>
1a001954:	2002      	movs	r0, #2
1a001956:	e7d9      	b.n	1a00190c <dir_sdi+0x64>
		if (ofs / SZDIRE >= fs->n_rootdir) return FR_INT_ERR;	/* Is index out of range? */
1a001958:	2002      	movs	r0, #2
1a00195a:	e7d7      	b.n	1a00190c <dir_sdi+0x64>
			if (clst == 0xFFFFFFFF) return FR_DISK_ERR;	/* Disk error */
1a00195c:	2001      	movs	r0, #1
1a00195e:	e7d5      	b.n	1a00190c <dir_sdi+0x64>
			if (clst < 2 || clst >= fs->n_fatent) return FR_INT_ERR;	/* Reached to end of table or internal error */
1a001960:	2002      	movs	r0, #2
1a001962:	e7d3      	b.n	1a00190c <dir_sdi+0x64>
	if (dp->sect == 0) return FR_INT_ERR;
1a001964:	2002      	movs	r0, #2
1a001966:	e7d1      	b.n	1a00190c <dir_sdi+0x64>

1a001968 <create_chain>:
{
1a001968:	e92d 43f8 	stmdb	sp!, {r3, r4, r5, r6, r7, r8, r9, lr}
1a00196c:	4607      	mov	r7, r0
	FATFS *fs = obj->fs;
1a00196e:	f8d0 8000 	ldr.w	r8, [r0]
	if (clst == 0) {	/* Create a new chain */
1a001972:	4689      	mov	r9, r1
1a001974:	b941      	cbnz	r1, 1a001988 <create_chain+0x20>
		scl = fs->last_clst;				/* Suggested cluster to start to find */
1a001976:	f8d8 6014 	ldr.w	r6, [r8, #20]
		if (scl == 0 || scl >= fs->n_fatent) scl = 1;
1a00197a:	b1b6      	cbz	r6, 1a0019aa <create_chain+0x42>
1a00197c:	f8d8 301c 	ldr.w	r3, [r8, #28]
1a001980:	42b3      	cmp	r3, r6
1a001982:	d813      	bhi.n	1a0019ac <create_chain+0x44>
1a001984:	2601      	movs	r6, #1
1a001986:	e011      	b.n	1a0019ac <create_chain+0x44>
		cs = get_fat(obj, clst);			/* Check the cluster status */
1a001988:	f7ff fed7 	bl	1a00173a <get_fat>
1a00198c:	4605      	mov	r5, r0
		if (cs < 2) return 1;				/* Test for insanity */
1a00198e:	2801      	cmp	r0, #1
1a001990:	f240 80c8 	bls.w	1a001b24 <create_chain+0x1bc>
		if (cs == 0xFFFFFFFF) return cs;	/* Test for disk error */
1a001994:	f1b0 3fff 	cmp.w	r0, #4294967295	; 0xffffffff
1a001998:	f000 80c5 	beq.w	1a001b26 <create_chain+0x1be>
		if (cs < fs->n_fatent) return cs;	/* It is already followed by next cluster */
1a00199c:	f8d8 301c 	ldr.w	r3, [r8, #28]
1a0019a0:	4283      	cmp	r3, r0
1a0019a2:	f200 80c0 	bhi.w	1a001b26 <create_chain+0x1be>
		scl = clst;							/* Cluster to start to find */
1a0019a6:	464e      	mov	r6, r9
1a0019a8:	e000      	b.n	1a0019ac <create_chain+0x44>
		if (scl == 0 || scl >= fs->n_fatent) scl = 1;
1a0019aa:	2601      	movs	r6, #1
	if (fs->free_clst == 0) return 0;		/* No free cluster */
1a0019ac:	f8d8 5018 	ldr.w	r5, [r8, #24]
1a0019b0:	2d00      	cmp	r5, #0
1a0019b2:	f000 80b8 	beq.w	1a001b26 <create_chain+0x1be>
	if (fs->fs_type == FS_EXFAT) {	/* On the exFAT volume */
1a0019b6:	f898 3000 	ldrb.w	r3, [r8]
1a0019ba:	2b04      	cmp	r3, #4
1a0019bc:	d003      	beq.n	1a0019c6 <create_chain+0x5e>
		if (scl == clst) {						/* Stretching an existing chain? */
1a0019be:	454e      	cmp	r6, r9
1a0019c0:	d04a      	beq.n	1a001a58 <create_chain+0xf0>
				if (cs >= 2 && cs < fs->n_fatent) scl = cs;
1a0019c2:	4634      	mov	r4, r6
1a0019c4:	e093      	b.n	1a001aee <create_chain+0x186>
		ncl = find_bitmap(fs, scl, 1);				/* Find a free cluster */
1a0019c6:	2201      	movs	r2, #1
1a0019c8:	4631      	mov	r1, r6
1a0019ca:	4640      	mov	r0, r8
1a0019cc:	f7ff fd70 	bl	1a0014b0 <find_bitmap>
1a0019d0:	4605      	mov	r5, r0
		if (ncl == 0 || ncl == 0xFFFFFFFF) return ncl;	/* No free cluster or hard error? */
1a0019d2:	1e43      	subs	r3, r0, #1
1a0019d4:	f113 0f03 	cmn.w	r3, #3
1a0019d8:	f200 80a5 	bhi.w	1a001b26 <create_chain+0x1be>
		res = change_bitmap(fs, ncl, 1, 1);			/* Mark the cluster 'in use' */
1a0019dc:	2301      	movs	r3, #1
1a0019de:	461a      	mov	r2, r3
1a0019e0:	4601      	mov	r1, r0
1a0019e2:	4640      	mov	r0, r8
1a0019e4:	f7ff fda8 	bl	1a001538 <change_bitmap>
1a0019e8:	4603      	mov	r3, r0
		if (res == FR_INT_ERR) return 1;
1a0019ea:	2802      	cmp	r0, #2
1a0019ec:	f000 809e 	beq.w	1a001b2c <create_chain+0x1c4>
		if (res == FR_DISK_ERR) return 0xFFFFFFFF;
1a0019f0:	2801      	cmp	r0, #1
1a0019f2:	f000 809d 	beq.w	1a001b30 <create_chain+0x1c8>
		if (clst == 0) {							/* Is it a new chain? */
1a0019f6:	f1b9 0f00 	cmp.w	r9, #0
1a0019fa:	d119      	bne.n	1a001a30 <create_chain+0xc8>
			obj->stat = 2;							/* Set status 'contiguous' */
1a0019fc:	2202      	movs	r2, #2
1a0019fe:	71fa      	strb	r2, [r7, #7]
		if (obj->stat != 2) {	/* Is the file non-contiguous? */
1a001a00:	79fa      	ldrb	r2, [r7, #7]
1a001a02:	2a02      	cmp	r2, #2
1a001a04:	f000 8083 	beq.w	1a001b0e <create_chain+0x1a6>
			if (ncl == clst + 1) {	/* Is the cluster next to previous one? */
1a001a08:	f109 0201 	add.w	r2, r9, #1
1a001a0c:	42aa      	cmp	r2, r5
1a001a0e:	d01b      	beq.n	1a001a48 <create_chain+0xe0>
				if (obj->n_frag == 0) obj->n_frag = 1;
1a001a10:	69fb      	ldr	r3, [r7, #28]
1a001a12:	b90b      	cbnz	r3, 1a001a18 <create_chain+0xb0>
1a001a14:	2301      	movs	r3, #1
1a001a16:	61fb      	str	r3, [r7, #28]
				res = fill_last_frag(obj, clst, ncl);	/* Fill last fragment on the FAT and link it to new one */
1a001a18:	462a      	mov	r2, r5
1a001a1a:	4649      	mov	r1, r9
1a001a1c:	4638      	mov	r0, r7
1a001a1e:	f7ff fe5b 	bl	1a0016d8 <fill_last_frag>
				if (res == FR_OK) obj->n_frag = 1;
1a001a22:	4603      	mov	r3, r0
1a001a24:	2800      	cmp	r0, #0
1a001a26:	d174      	bne.n	1a001b12 <create_chain+0x1aa>
1a001a28:	2201      	movs	r2, #1
1a001a2a:	61fa      	str	r2, [r7, #28]
		ncl = find_bitmap(fs, scl, 1);				/* Find a free cluster */
1a001a2c:	462c      	mov	r4, r5
1a001a2e:	e03b      	b.n	1a001aa8 <create_chain+0x140>
			if (obj->stat == 2 && ncl != scl + 1) {	/* Is the chain got fragmented? */
1a001a30:	79fa      	ldrb	r2, [r7, #7]
1a001a32:	2a02      	cmp	r2, #2
1a001a34:	d1e4      	bne.n	1a001a00 <create_chain+0x98>
1a001a36:	1c72      	adds	r2, r6, #1
1a001a38:	42aa      	cmp	r2, r5
1a001a3a:	d0e1      	beq.n	1a001a00 <create_chain+0x98>
				obj->n_cont = scl - obj->sclust;	/* Set size of the contiguous part */
1a001a3c:	68ba      	ldr	r2, [r7, #8]
1a001a3e:	1ab2      	subs	r2, r6, r2
1a001a40:	61ba      	str	r2, [r7, #24]
				obj->stat = 3;						/* Change status 'just fragmented' */
1a001a42:	2203      	movs	r2, #3
1a001a44:	71fa      	strb	r2, [r7, #7]
1a001a46:	e7db      	b.n	1a001a00 <create_chain+0x98>
				obj->n_frag = obj->n_frag ? obj->n_frag + 1 : 2;	/* Increment size of last framgent */
1a001a48:	69fa      	ldr	r2, [r7, #28]
1a001a4a:	b11a      	cbz	r2, 1a001a54 <create_chain+0xec>
1a001a4c:	3201      	adds	r2, #1
1a001a4e:	61fa      	str	r2, [r7, #28]
		ncl = find_bitmap(fs, scl, 1);				/* Find a free cluster */
1a001a50:	462c      	mov	r4, r5
1a001a52:	e029      	b.n	1a001aa8 <create_chain+0x140>
				obj->n_frag = obj->n_frag ? obj->n_frag + 1 : 2;	/* Increment size of last framgent */
1a001a54:	2202      	movs	r2, #2
1a001a56:	e7fa      	b.n	1a001a4e <create_chain+0xe6>
			ncl = scl + 1;						/* Test if next cluster is free */
1a001a58:	1c74      	adds	r4, r6, #1
			if (ncl >= fs->n_fatent) ncl = 2;
1a001a5a:	f8d8 301c 	ldr.w	r3, [r8, #28]
1a001a5e:	42a3      	cmp	r3, r4
1a001a60:	d800      	bhi.n	1a001a64 <create_chain+0xfc>
1a001a62:	2402      	movs	r4, #2
			cs = get_fat(obj, ncl);				/* Get next cluster status */
1a001a64:	4621      	mov	r1, r4
1a001a66:	4638      	mov	r0, r7
1a001a68:	f7ff fe67 	bl	1a00173a <get_fat>
1a001a6c:	4605      	mov	r5, r0
			if (cs == 1 || cs == 0xFFFFFFFF) return cs;	/* Test for error */
1a001a6e:	2801      	cmp	r0, #1
1a001a70:	d059      	beq.n	1a001b26 <create_chain+0x1be>
1a001a72:	f1b0 3fff 	cmp.w	r0, #4294967295	; 0xffffffff
1a001a76:	d056      	beq.n	1a001b26 <create_chain+0x1be>
			if (cs != 0) {						/* Not free? */
1a001a78:	b148      	cbz	r0, 1a001a8e <create_chain+0x126>
				cs = fs->last_clst;				/* Start at suggested cluster if it is valid */
1a001a7a:	f8d8 3014 	ldr.w	r3, [r8, #20]
				if (cs >= 2 && cs < fs->n_fatent) scl = cs;
1a001a7e:	2b01      	cmp	r3, #1
1a001a80:	d99f      	bls.n	1a0019c2 <create_chain+0x5a>
1a001a82:	f8d8 201c 	ldr.w	r2, [r8, #28]
1a001a86:	429a      	cmp	r2, r3
1a001a88:	d99b      	bls.n	1a0019c2 <create_chain+0x5a>
1a001a8a:	461e      	mov	r6, r3
1a001a8c:	e799      	b.n	1a0019c2 <create_chain+0x5a>
		if (ncl == 0) {	/* The new cluster cannot be contiguous and find another fragment */
1a001a8e:	2c00      	cmp	r4, #0
1a001a90:	d097      	beq.n	1a0019c2 <create_chain+0x5a>
		res = put_fat(fs, ncl, 0xFFFFFFFF);		/* Mark the new cluster 'EOC' */
1a001a92:	f04f 32ff 	mov.w	r2, #4294967295	; 0xffffffff
1a001a96:	4621      	mov	r1, r4
1a001a98:	4640      	mov	r0, r8
1a001a9a:	f7ff fd89 	bl	1a0015b0 <put_fat>
		if (res == FR_OK && clst != 0) {
1a001a9e:	4603      	mov	r3, r0
1a001aa0:	b910      	cbnz	r0, 1a001aa8 <create_chain+0x140>
1a001aa2:	f1b9 0f00 	cmp.w	r9, #0
1a001aa6:	d12b      	bne.n	1a001b00 <create_chain+0x198>
	if (res == FR_OK) {			/* Update FSINFO if function succeeded. */
1a001aa8:	bbab      	cbnz	r3, 1a001b16 <create_chain+0x1ae>
		fs->last_clst = ncl;
1a001aaa:	f8c8 4014 	str.w	r4, [r8, #20]
		if (fs->free_clst <= fs->n_fatent - 2) fs->free_clst--;
1a001aae:	f8d8 2018 	ldr.w	r2, [r8, #24]
1a001ab2:	f8d8 301c 	ldr.w	r3, [r8, #28]
1a001ab6:	3b02      	subs	r3, #2
1a001ab8:	429a      	cmp	r2, r3
1a001aba:	d802      	bhi.n	1a001ac2 <create_chain+0x15a>
1a001abc:	3a01      	subs	r2, #1
1a001abe:	f8c8 2018 	str.w	r2, [r8, #24]
		fs->fsi_flag |= 1;
1a001ac2:	f898 3004 	ldrb.w	r3, [r8, #4]
1a001ac6:	f043 0301 	orr.w	r3, r3, #1
1a001aca:	f888 3004 	strb.w	r3, [r8, #4]
1a001ace:	4625      	mov	r5, r4
1a001ad0:	e029      	b.n	1a001b26 <create_chain+0x1be>
				cs = get_fat(obj, ncl);			/* Get the cluster status */
1a001ad2:	4621      	mov	r1, r4
1a001ad4:	4638      	mov	r0, r7
1a001ad6:	f7ff fe30 	bl	1a00173a <get_fat>
				if (cs == 0) break;				/* Found a free cluster? */
1a001ada:	4605      	mov	r5, r0
1a001adc:	2800      	cmp	r0, #0
1a001ade:	d0d8      	beq.n	1a001a92 <create_chain+0x12a>
				if (cs == 1 || cs == 0xFFFFFFFF) return cs;	/* Test for error */
1a001ae0:	2801      	cmp	r0, #1
1a001ae2:	d020      	beq.n	1a001b26 <create_chain+0x1be>
1a001ae4:	f1b0 3fff 	cmp.w	r0, #4294967295	; 0xffffffff
1a001ae8:	d01d      	beq.n	1a001b26 <create_chain+0x1be>
				if (ncl == scl) return 0;		/* No free cluster found? */
1a001aea:	42b4      	cmp	r4, r6
1a001aec:	d025      	beq.n	1a001b3a <create_chain+0x1d2>
				ncl++;							/* Next cluster */
1a001aee:	3401      	adds	r4, #1
				if (ncl >= fs->n_fatent) {		/* Check wrap-around */
1a001af0:	f8d8 301c 	ldr.w	r3, [r8, #28]
1a001af4:	42a3      	cmp	r3, r4
1a001af6:	d8ec      	bhi.n	1a001ad2 <create_chain+0x16a>
					if (ncl > scl) return 0;	/* No free cluster found? */
1a001af8:	2e01      	cmp	r6, #1
1a001afa:	d91c      	bls.n	1a001b36 <create_chain+0x1ce>
					ncl = 2;
1a001afc:	2402      	movs	r4, #2
1a001afe:	e7e8      	b.n	1a001ad2 <create_chain+0x16a>
			res = put_fat(fs, clst, ncl);		/* Link it from the previous one if needed */
1a001b00:	4622      	mov	r2, r4
1a001b02:	4649      	mov	r1, r9
1a001b04:	4640      	mov	r0, r8
1a001b06:	f7ff fd53 	bl	1a0015b0 <put_fat>
1a001b0a:	4603      	mov	r3, r0
1a001b0c:	e7cc      	b.n	1a001aa8 <create_chain+0x140>
		ncl = find_bitmap(fs, scl, 1);				/* Find a free cluster */
1a001b0e:	462c      	mov	r4, r5
1a001b10:	e7ca      	b.n	1a001aa8 <create_chain+0x140>
1a001b12:	462c      	mov	r4, r5
1a001b14:	e7c8      	b.n	1a001aa8 <create_chain+0x140>
		ncl = (res == FR_DISK_ERR) ? 0xFFFFFFFF : 1;	/* Failed. Generate error status */
1a001b16:	2b01      	cmp	r3, #1
1a001b18:	d001      	beq.n	1a001b1e <create_chain+0x1b6>
1a001b1a:	2501      	movs	r5, #1
1a001b1c:	e003      	b.n	1a001b26 <create_chain+0x1be>
1a001b1e:	f04f 35ff 	mov.w	r5, #4294967295	; 0xffffffff
1a001b22:	e000      	b.n	1a001b26 <create_chain+0x1be>
		if (cs < 2) return 1;				/* Test for insanity */
1a001b24:	2501      	movs	r5, #1
}
1a001b26:	4628      	mov	r0, r5
1a001b28:	e8bd 83f8 	ldmia.w	sp!, {r3, r4, r5, r6, r7, r8, r9, pc}
		if (res == FR_INT_ERR) return 1;
1a001b2c:	2501      	movs	r5, #1
1a001b2e:	e7fa      	b.n	1a001b26 <create_chain+0x1be>
		if (res == FR_DISK_ERR) return 0xFFFFFFFF;
1a001b30:	f04f 35ff 	mov.w	r5, #4294967295	; 0xffffffff
1a001b34:	e7f7      	b.n	1a001b26 <create_chain+0x1be>
					if (ncl > scl) return 0;	/* No free cluster found? */
1a001b36:	2500      	movs	r5, #0
1a001b38:	e7f5      	b.n	1a001b26 <create_chain+0x1be>
				if (ncl == scl) return 0;		/* No free cluster found? */
1a001b3a:	2500      	movs	r5, #0
1a001b3c:	e7f3      	b.n	1a001b26 <create_chain+0x1be>

1a001b3e <remove_chain>:
{
1a001b3e:	e92d 47f0 	stmdb	sp!, {r4, r5, r6, r7, r8, r9, sl, lr}
	FATFS *fs = obj->fs;
1a001b42:	6805      	ldr	r5, [r0, #0]
	if (clst < 2 || clst >= fs->n_fatent) return FR_INT_ERR;	/* Check if in valid range */
1a001b44:	2901      	cmp	r1, #1
1a001b46:	f240 808e 	bls.w	1a001c66 <remove_chain+0x128>
1a001b4a:	4607      	mov	r7, r0
1a001b4c:	460c      	mov	r4, r1
1a001b4e:	4691      	mov	r9, r2
1a001b50:	69eb      	ldr	r3, [r5, #28]
1a001b52:	428b      	cmp	r3, r1
1a001b54:	f240 808a 	bls.w	1a001c6c <remove_chain+0x12e>
	if (pclst != 0 && (!FF_FS_EXFAT || fs->fs_type != FS_EXFAT || obj->stat != 2)) {
1a001b58:	b172      	cbz	r2, 1a001b78 <remove_chain+0x3a>
1a001b5a:	782b      	ldrb	r3, [r5, #0]
1a001b5c:	2b04      	cmp	r3, #4
1a001b5e:	d102      	bne.n	1a001b66 <remove_chain+0x28>
1a001b60:	79c3      	ldrb	r3, [r0, #7]
1a001b62:	2b02      	cmp	r3, #2
1a001b64:	d008      	beq.n	1a001b78 <remove_chain+0x3a>
		res = put_fat(fs, pclst, 0xFFFFFFFF);
1a001b66:	f04f 32ff 	mov.w	r2, #4294967295	; 0xffffffff
1a001b6a:	4649      	mov	r1, r9
1a001b6c:	4628      	mov	r0, r5
1a001b6e:	f7ff fd1f 	bl	1a0015b0 <put_fat>
		if (res != FR_OK) return res;
1a001b72:	4682      	mov	sl, r0
1a001b74:	2800      	cmp	r0, #0
1a001b76:	d17b      	bne.n	1a001c70 <remove_chain+0x132>
{
1a001b78:	46a0      	mov	r8, r4
1a001b7a:	e011      	b.n	1a001ba0 <remove_chain+0x62>
			res = put_fat(fs, clst, 0);		/* Mark the cluster 'free' on the FAT */
1a001b7c:	2200      	movs	r2, #0
1a001b7e:	4631      	mov	r1, r6
1a001b80:	4628      	mov	r0, r5
1a001b82:	f7ff fd15 	bl	1a0015b0 <put_fat>
			if (res != FR_OK) return res;
1a001b86:	4682      	mov	sl, r0
1a001b88:	b1c8      	cbz	r0, 1a001bbe <remove_chain+0x80>
1a001b8a:	e071      	b.n	1a001c70 <remove_chain+0x132>
		if (ecl + 1 == nxt) {	/* Is next cluster contiguous? */
1a001b8c:	1c73      	adds	r3, r6, #1
1a001b8e:	42a3      	cmp	r3, r4
1a001b90:	d003      	beq.n	1a001b9a <remove_chain+0x5c>
			if (fs->fs_type == FS_EXFAT) {
1a001b92:	782b      	ldrb	r3, [r5, #0]
1a001b94:	2b04      	cmp	r3, #4
1a001b96:	d01e      	beq.n	1a001bd6 <remove_chain+0x98>
			scl = ecl = nxt;
1a001b98:	46a0      	mov	r8, r4
	} while (clst < fs->n_fatent);	/* Repeat while not the last link */
1a001b9a:	69eb      	ldr	r3, [r5, #28]
1a001b9c:	42a3      	cmp	r3, r4
1a001b9e:	d927      	bls.n	1a001bf0 <remove_chain+0xb2>
		nxt = get_fat(obj, clst);			/* Get cluster status */
1a001ba0:	4626      	mov	r6, r4
1a001ba2:	4621      	mov	r1, r4
1a001ba4:	4638      	mov	r0, r7
1a001ba6:	f7ff fdc8 	bl	1a00173a <get_fat>
		if (nxt == 0) break;				/* Empty cluster? */
1a001baa:	4604      	mov	r4, r0
1a001bac:	b300      	cbz	r0, 1a001bf0 <remove_chain+0xb2>
		if (nxt == 1) return FR_INT_ERR;	/* Internal error? */
1a001bae:	2801      	cmp	r0, #1
1a001bb0:	d061      	beq.n	1a001c76 <remove_chain+0x138>
		if (nxt == 0xFFFFFFFF) return FR_DISK_ERR;	/* Disk error? */
1a001bb2:	f1b0 3fff 	cmp.w	r0, #4294967295	; 0xffffffff
1a001bb6:	d061      	beq.n	1a001c7c <remove_chain+0x13e>
		if (!FF_FS_EXFAT || fs->fs_type != FS_EXFAT) {
1a001bb8:	782b      	ldrb	r3, [r5, #0]
1a001bba:	2b04      	cmp	r3, #4
1a001bbc:	d1de      	bne.n	1a001b7c <remove_chain+0x3e>
		if (fs->free_clst < fs->n_fatent - 2) {	/* Update FSINFO */
1a001bbe:	69aa      	ldr	r2, [r5, #24]
1a001bc0:	69eb      	ldr	r3, [r5, #28]
1a001bc2:	3b02      	subs	r3, #2
1a001bc4:	429a      	cmp	r2, r3
1a001bc6:	d2e1      	bcs.n	1a001b8c <remove_chain+0x4e>
			fs->free_clst++;
1a001bc8:	3201      	adds	r2, #1
1a001bca:	61aa      	str	r2, [r5, #24]
			fs->fsi_flag |= 1;
1a001bcc:	792b      	ldrb	r3, [r5, #4]
1a001bce:	f043 0301 	orr.w	r3, r3, #1
1a001bd2:	712b      	strb	r3, [r5, #4]
1a001bd4:	e7da      	b.n	1a001b8c <remove_chain+0x4e>
				res = change_bitmap(fs, scl, ecl - scl + 1, 0);	/* Mark the cluster block 'free' on the bitmap */
1a001bd6:	eba6 0208 	sub.w	r2, r6, r8
1a001bda:	2300      	movs	r3, #0
1a001bdc:	3201      	adds	r2, #1
1a001bde:	4641      	mov	r1, r8
1a001be0:	4628      	mov	r0, r5
1a001be2:	f7ff fca9 	bl	1a001538 <change_bitmap>
				if (res != FR_OK) return res;
1a001be6:	4682      	mov	sl, r0
1a001be8:	2800      	cmp	r0, #0
1a001bea:	d141      	bne.n	1a001c70 <remove_chain+0x132>
			scl = ecl = nxt;
1a001bec:	46a0      	mov	r8, r4
1a001bee:	e7d4      	b.n	1a001b9a <remove_chain+0x5c>
	if (fs->fs_type == FS_EXFAT) {
1a001bf0:	782b      	ldrb	r3, [r5, #0]
1a001bf2:	2b04      	cmp	r3, #4
1a001bf4:	d002      	beq.n	1a001bfc <remove_chain+0xbe>
	return FR_OK;
1a001bf6:	f04f 0a00 	mov.w	sl, #0
1a001bfa:	e039      	b.n	1a001c70 <remove_chain+0x132>
		if (pclst == 0) {	/* Has the entire chain been removed? */
1a001bfc:	f1b9 0f00 	cmp.w	r9, #0
1a001c00:	d104      	bne.n	1a001c0c <remove_chain+0xce>
			obj->stat = 0;		/* Change the chain status 'initial' */
1a001c02:	f04f 0a00 	mov.w	sl, #0
1a001c06:	f887 a007 	strb.w	sl, [r7, #7]
1a001c0a:	e031      	b.n	1a001c70 <remove_chain+0x132>
			if (obj->stat == 0) {	/* Is it a fragmented chain from the beginning of this session? */
1a001c0c:	f897 a007 	ldrb.w	sl, [r7, #7]
1a001c10:	f1ba 0f00 	cmp.w	sl, #0
1a001c14:	d115      	bne.n	1a001c42 <remove_chain+0x104>
				clst = obj->sclust;		/* Follow the chain to check if it gets contiguous */
1a001c16:	68bc      	ldr	r4, [r7, #8]
				while (clst != pclst) {
1a001c18:	454c      	cmp	r4, r9
1a001c1a:	d00d      	beq.n	1a001c38 <remove_chain+0xfa>
					nxt = get_fat(obj, clst);
1a001c1c:	4621      	mov	r1, r4
1a001c1e:	4638      	mov	r0, r7
1a001c20:	f7ff fd8b 	bl	1a00173a <get_fat>
					if (nxt < 2) return FR_INT_ERR;
1a001c24:	2801      	cmp	r0, #1
1a001c26:	d92c      	bls.n	1a001c82 <remove_chain+0x144>
					if (nxt == 0xFFFFFFFF) return FR_DISK_ERR;
1a001c28:	f1b0 3fff 	cmp.w	r0, #4294967295	; 0xffffffff
1a001c2c:	d02c      	beq.n	1a001c88 <remove_chain+0x14a>
					if (nxt != clst + 1) break;	/* Not contiguous? */
1a001c2e:	1c63      	adds	r3, r4, #1
1a001c30:	4283      	cmp	r3, r0
1a001c32:	d101      	bne.n	1a001c38 <remove_chain+0xfa>
					clst++;
1a001c34:	461c      	mov	r4, r3
1a001c36:	e7ef      	b.n	1a001c18 <remove_chain+0xda>
				if (clst == pclst) {	/* Has the chain got contiguous again? */
1a001c38:	454c      	cmp	r4, r9
1a001c3a:	d119      	bne.n	1a001c70 <remove_chain+0x132>
					obj->stat = 2;		/* Change the chain status 'contiguous' */
1a001c3c:	2302      	movs	r3, #2
1a001c3e:	71fb      	strb	r3, [r7, #7]
1a001c40:	e016      	b.n	1a001c70 <remove_chain+0x132>
				if (obj->stat == 3 && pclst >= obj->sclust && pclst <= obj->sclust + obj->n_cont) {	/* Was the chain fragmented in this session and got contiguous again? */
1a001c42:	f1ba 0f03 	cmp.w	sl, #3
1a001c46:	d002      	beq.n	1a001c4e <remove_chain+0x110>
	return FR_OK;
1a001c48:	f04f 0a00 	mov.w	sl, #0
1a001c4c:	e010      	b.n	1a001c70 <remove_chain+0x132>
				if (obj->stat == 3 && pclst >= obj->sclust && pclst <= obj->sclust + obj->n_cont) {	/* Was the chain fragmented in this session and got contiguous again? */
1a001c4e:	68bb      	ldr	r3, [r7, #8]
1a001c50:	454b      	cmp	r3, r9
1a001c52:	d81c      	bhi.n	1a001c8e <remove_chain+0x150>
1a001c54:	69ba      	ldr	r2, [r7, #24]
1a001c56:	4413      	add	r3, r2
1a001c58:	454b      	cmp	r3, r9
1a001c5a:	d31b      	bcc.n	1a001c94 <remove_chain+0x156>
					obj->stat = 2;	/* Change the chain status 'contiguous' */
1a001c5c:	2302      	movs	r3, #2
1a001c5e:	71fb      	strb	r3, [r7, #7]
	return FR_OK;
1a001c60:	f04f 0a00 	mov.w	sl, #0
1a001c64:	e004      	b.n	1a001c70 <remove_chain+0x132>
	if (clst < 2 || clst >= fs->n_fatent) return FR_INT_ERR;	/* Check if in valid range */
1a001c66:	f04f 0a02 	mov.w	sl, #2
1a001c6a:	e001      	b.n	1a001c70 <remove_chain+0x132>
1a001c6c:	f04f 0a02 	mov.w	sl, #2
}
1a001c70:	4650      	mov	r0, sl
1a001c72:	e8bd 87f0 	ldmia.w	sp!, {r4, r5, r6, r7, r8, r9, sl, pc}
		if (nxt == 1) return FR_INT_ERR;	/* Internal error? */
1a001c76:	f04f 0a02 	mov.w	sl, #2
1a001c7a:	e7f9      	b.n	1a001c70 <remove_chain+0x132>
		if (nxt == 0xFFFFFFFF) return FR_DISK_ERR;	/* Disk error? */
1a001c7c:	f04f 0a01 	mov.w	sl, #1
1a001c80:	e7f6      	b.n	1a001c70 <remove_chain+0x132>
					if (nxt < 2) return FR_INT_ERR;
1a001c82:	f04f 0a02 	mov.w	sl, #2
1a001c86:	e7f3      	b.n	1a001c70 <remove_chain+0x132>
					if (nxt == 0xFFFFFFFF) return FR_DISK_ERR;
1a001c88:	f04f 0a01 	mov.w	sl, #1
1a001c8c:	e7f0      	b.n	1a001c70 <remove_chain+0x132>
	return FR_OK;
1a001c8e:	f04f 0a00 	mov.w	sl, #0
1a001c92:	e7ed      	b.n	1a001c70 <remove_chain+0x132>
1a001c94:	f04f 0a00 	mov.w	sl, #0
1a001c98:	e7ea      	b.n	1a001c70 <remove_chain+0x132>

1a001c9a <dir_clear>:
{
1a001c9a:	b5f8      	push	{r3, r4, r5, r6, r7, lr}
1a001c9c:	4605      	mov	r5, r0
1a001c9e:	460c      	mov	r4, r1
	if (sync_window(fs) != FR_OK) return FR_DISK_ERR;	/* Flush disk access window */
1a001ca0:	f7ff f924 	bl	1a000eec <sync_window>
1a001ca4:	b108      	cbz	r0, 1a001caa <dir_clear+0x10>
1a001ca6:	2001      	movs	r0, #1
}
1a001ca8:	bdf8      	pop	{r3, r4, r5, r6, r7, pc}
	sect = clst2sect(fs, clst);		/* Top of the cluster */
1a001caa:	4621      	mov	r1, r4
1a001cac:	4628      	mov	r0, r5
1a001cae:	f7fe ff59 	bl	1a000b64 <clst2sect>
1a001cb2:	4606      	mov	r6, r0
	fs->winsect = sect;				/* Set window to top of the cluster */
1a001cb4:	6368      	str	r0, [r5, #52]	; 0x34
	mem_set(fs->win, 0, SS(fs));	/* Clear window buffer */
1a001cb6:	f105 0738 	add.w	r7, r5, #56	; 0x38
1a001cba:	f44f 7200 	mov.w	r2, #512	; 0x200
1a001cbe:	2100      	movs	r1, #0
1a001cc0:	4638      	mov	r0, r7
1a001cc2:	f7fe fed5 	bl	1a000a70 <mem_set>
		for (n = 0; n < fs->csize && disk_write(fs->pdrv, ibuf, sect + n, szb) == RES_OK; n += szb) ;	/* Fill the cluster with 0 */
1a001cc6:	2400      	movs	r4, #0
1a001cc8:	e000      	b.n	1a001ccc <dir_clear+0x32>
1a001cca:	3401      	adds	r4, #1
1a001ccc:	896b      	ldrh	r3, [r5, #10]
1a001cce:	42a3      	cmp	r3, r4
1a001cd0:	d907      	bls.n	1a001ce2 <dir_clear+0x48>
1a001cd2:	2301      	movs	r3, #1
1a001cd4:	19a2      	adds	r2, r4, r6
1a001cd6:	4639      	mov	r1, r7
1a001cd8:	7868      	ldrb	r0, [r5, #1]
1a001cda:	f003 ff93 	bl	1a005c04 <disk_write>
1a001cde:	2800      	cmp	r0, #0
1a001ce0:	d0f3      	beq.n	1a001cca <dir_clear+0x30>
	return (n == fs->csize) ? FR_OK : FR_DISK_ERR;
1a001ce2:	8968      	ldrh	r0, [r5, #10]
1a001ce4:	1b00      	subs	r0, r0, r4
1a001ce6:	bf18      	it	ne
1a001ce8:	2001      	movne	r0, #1
1a001cea:	e7dd      	b.n	1a001ca8 <dir_clear+0xe>

1a001cec <dir_next>:
{
1a001cec:	e92d 43f8 	stmdb	sp!, {r3, r4, r5, r6, r7, r8, r9, lr}
	FATFS *fs = dp->obj.fs;
1a001cf0:	6806      	ldr	r6, [r0, #0]
	ofs = dp->dptr + SZDIRE;	/* Next entry */
1a001cf2:	6b05      	ldr	r5, [r0, #48]	; 0x30
	if (dp->sect == 0 || ofs >= (DWORD)((FF_FS_EXFAT && fs->fs_type == FS_EXFAT) ? MAX_DIR_EX : MAX_DIR)) return FR_NO_FILE;	/* Report EOT when offset has reached max value */
1a001cf4:	6b83      	ldr	r3, [r0, #56]	; 0x38
1a001cf6:	2b00      	cmp	r3, #0
1a001cf8:	d057      	beq.n	1a001daa <dir_next+0xbe>
1a001cfa:	4604      	mov	r4, r0
1a001cfc:	4688      	mov	r8, r1
1a001cfe:	3520      	adds	r5, #32
1a001d00:	7832      	ldrb	r2, [r6, #0]
1a001d02:	2a04      	cmp	r2, #4
1a001d04:	d016      	beq.n	1a001d34 <dir_next+0x48>
1a001d06:	f44f 1200 	mov.w	r2, #2097152	; 0x200000
1a001d0a:	42aa      	cmp	r2, r5
1a001d0c:	d94f      	bls.n	1a001dae <dir_next+0xc2>
	if (ofs % SS(fs) == 0) {	/* Sector changed? */
1a001d0e:	f3c5 0708 	ubfx	r7, r5, #0, #9
1a001d12:	b93f      	cbnz	r7, 1a001d24 <dir_next+0x38>
		dp->sect++;				/* Next sector */
1a001d14:	3301      	adds	r3, #1
1a001d16:	63a3      	str	r3, [r4, #56]	; 0x38
		if (dp->clust == 0) {	/* Static table */
1a001d18:	6b61      	ldr	r1, [r4, #52]	; 0x34
1a001d1a:	b991      	cbnz	r1, 1a001d42 <dir_next+0x56>
			if (ofs / SZDIRE >= fs->n_rootdir) {	/* Report EOT if it reached end of static table */
1a001d1c:	8933      	ldrh	r3, [r6, #8]
1a001d1e:	ebb3 1f55 	cmp.w	r3, r5, lsr #5
1a001d22:	d90a      	bls.n	1a001d3a <dir_next+0x4e>
	dp->dptr = ofs;						/* Current entry */
1a001d24:	6325      	str	r5, [r4, #48]	; 0x30
	dp->dir = fs->win + ofs % SS(fs);	/* Pointer to the entry in the win[] */
1a001d26:	f106 0338 	add.w	r3, r6, #56	; 0x38
1a001d2a:	443b      	add	r3, r7
1a001d2c:	63e3      	str	r3, [r4, #60]	; 0x3c
	return FR_OK;
1a001d2e:	2000      	movs	r0, #0
}
1a001d30:	e8bd 83f8 	ldmia.w	sp!, {r3, r4, r5, r6, r7, r8, r9, pc}
	if (dp->sect == 0 || ofs >= (DWORD)((FF_FS_EXFAT && fs->fs_type == FS_EXFAT) ? MAX_DIR_EX : MAX_DIR)) return FR_NO_FILE;	/* Report EOT when offset has reached max value */
1a001d34:	f04f 5280 	mov.w	r2, #268435456	; 0x10000000
1a001d38:	e7e7      	b.n	1a001d0a <dir_next+0x1e>
				dp->sect = 0; return FR_NO_FILE;
1a001d3a:	2300      	movs	r3, #0
1a001d3c:	63a3      	str	r3, [r4, #56]	; 0x38
1a001d3e:	2004      	movs	r0, #4
1a001d40:	e7f6      	b.n	1a001d30 <dir_next+0x44>
			if ((ofs / SS(fs) & (fs->csize - 1)) == 0) {	/* Cluster changed? */
1a001d42:	8973      	ldrh	r3, [r6, #10]
1a001d44:	3b01      	subs	r3, #1
1a001d46:	ea13 2355 	ands.w	r3, r3, r5, lsr #9
1a001d4a:	d1eb      	bne.n	1a001d24 <dir_next+0x38>
				clst = get_fat(&dp->obj, dp->clust);		/* Get next cluster */
1a001d4c:	4620      	mov	r0, r4
1a001d4e:	f7ff fcf4 	bl	1a00173a <get_fat>
1a001d52:	4681      	mov	r9, r0
				if (clst <= 1) return FR_INT_ERR;			/* Internal error */
1a001d54:	2801      	cmp	r0, #1
1a001d56:	d92c      	bls.n	1a001db2 <dir_next+0xc6>
				if (clst == 0xFFFFFFFF) return FR_DISK_ERR;	/* Disk error */
1a001d58:	f1b0 3fff 	cmp.w	r0, #4294967295	; 0xffffffff
1a001d5c:	d02b      	beq.n	1a001db6 <dir_next+0xca>
				if (clst >= fs->n_fatent) {					/* It reached end of dynamic table */
1a001d5e:	69f3      	ldr	r3, [r6, #28]
1a001d60:	4283      	cmp	r3, r0
1a001d62:	d816      	bhi.n	1a001d92 <dir_next+0xa6>
					if (!stretch) {								/* If no stretch, report EOT */
1a001d64:	f1b8 0f00 	cmp.w	r8, #0
1a001d68:	d01b      	beq.n	1a001da2 <dir_next+0xb6>
					clst = create_chain(&dp->obj, dp->clust);	/* Allocate a cluster */
1a001d6a:	6b61      	ldr	r1, [r4, #52]	; 0x34
1a001d6c:	4620      	mov	r0, r4
1a001d6e:	f7ff fdfb 	bl	1a001968 <create_chain>
					if (clst == 0) return FR_DENIED;			/* No free cluster */
1a001d72:	4681      	mov	r9, r0
1a001d74:	b308      	cbz	r0, 1a001dba <dir_next+0xce>
					if (clst == 1) return FR_INT_ERR;			/* Internal error */
1a001d76:	2801      	cmp	r0, #1
1a001d78:	d021      	beq.n	1a001dbe <dir_next+0xd2>
					if (clst == 0xFFFFFFFF) return FR_DISK_ERR;	/* Disk error */
1a001d7a:	f1b0 3fff 	cmp.w	r0, #4294967295	; 0xffffffff
1a001d7e:	d020      	beq.n	1a001dc2 <dir_next+0xd6>
					if (dir_clear(fs, clst) != FR_OK) return FR_DISK_ERR;	/* Clean up the stretched table */
1a001d80:	4601      	mov	r1, r0
1a001d82:	4630      	mov	r0, r6
1a001d84:	f7ff ff89 	bl	1a001c9a <dir_clear>
1a001d88:	b9e8      	cbnz	r0, 1a001dc6 <dir_next+0xda>
					if (FF_FS_EXFAT) dp->obj.stat |= 4;			/* exFAT: The directory has been stretched */
1a001d8a:	79e3      	ldrb	r3, [r4, #7]
1a001d8c:	f043 0304 	orr.w	r3, r3, #4
1a001d90:	71e3      	strb	r3, [r4, #7]
				dp->clust = clst;		/* Initialize data for new cluster */
1a001d92:	f8c4 9034 	str.w	r9, [r4, #52]	; 0x34
				dp->sect = clst2sect(fs, clst);
1a001d96:	4649      	mov	r1, r9
1a001d98:	4630      	mov	r0, r6
1a001d9a:	f7fe fee3 	bl	1a000b64 <clst2sect>
1a001d9e:	63a0      	str	r0, [r4, #56]	; 0x38
1a001da0:	e7c0      	b.n	1a001d24 <dir_next+0x38>
						dp->sect = 0; return FR_NO_FILE;
1a001da2:	2300      	movs	r3, #0
1a001da4:	63a3      	str	r3, [r4, #56]	; 0x38
1a001da6:	2004      	movs	r0, #4
1a001da8:	e7c2      	b.n	1a001d30 <dir_next+0x44>
	if (dp->sect == 0 || ofs >= (DWORD)((FF_FS_EXFAT && fs->fs_type == FS_EXFAT) ? MAX_DIR_EX : MAX_DIR)) return FR_NO_FILE;	/* Report EOT when offset has reached max value */
1a001daa:	2004      	movs	r0, #4
1a001dac:	e7c0      	b.n	1a001d30 <dir_next+0x44>
1a001dae:	2004      	movs	r0, #4
1a001db0:	e7be      	b.n	1a001d30 <dir_next+0x44>
				if (clst <= 1) return FR_INT_ERR;			/* Internal error */
1a001db2:	2002      	movs	r0, #2
1a001db4:	e7bc      	b.n	1a001d30 <dir_next+0x44>
				if (clst == 0xFFFFFFFF) return FR_DISK_ERR;	/* Disk error */
1a001db6:	2001      	movs	r0, #1
1a001db8:	e7ba      	b.n	1a001d30 <dir_next+0x44>
					if (clst == 0) return FR_DENIED;			/* No free cluster */
1a001dba:	2007      	movs	r0, #7
1a001dbc:	e7b8      	b.n	1a001d30 <dir_next+0x44>
					if (clst == 1) return FR_INT_ERR;			/* Internal error */
1a001dbe:	2002      	movs	r0, #2
1a001dc0:	e7b6      	b.n	1a001d30 <dir_next+0x44>
					if (clst == 0xFFFFFFFF) return FR_DISK_ERR;	/* Disk error */
1a001dc2:	2001      	movs	r0, #1
1a001dc4:	e7b4      	b.n	1a001d30 <dir_next+0x44>
					if (dir_clear(fs, clst) != FR_OK) return FR_DISK_ERR;	/* Clean up the stretched table */
1a001dc6:	2001      	movs	r0, #1
1a001dc8:	e7b2      	b.n	1a001d30 <dir_next+0x44>
1a001dca:	Address 0x000000001a001dca is out of bounds.


1a001dcc <load_xdir>:
{
1a001dcc:	e92d 41f0 	stmdb	sp!, {r4, r5, r6, r7, r8, lr}
1a001dd0:	4604      	mov	r4, r0
	BYTE* dirb = dp->obj.fs->dirbuf;	/* Pointer to the on-memory direcotry entry block 85+C0+C1s */
1a001dd2:	6800      	ldr	r0, [r0, #0]
1a001dd4:	6906      	ldr	r6, [r0, #16]
	res = move_window(dp->obj.fs, dp->sect);
1a001dd6:	6ba1      	ldr	r1, [r4, #56]	; 0x38
1a001dd8:	f7ff f8ac 	bl	1a000f34 <move_window>
	if (res != FR_OK) return res;
1a001ddc:	4605      	mov	r5, r0
1a001dde:	b920      	cbnz	r0, 1a001dea <load_xdir+0x1e>
	if (dp->dir[XDIR_Type] != 0x85) return FR_INT_ERR;	/* Invalid order */
1a001de0:	6be1      	ldr	r1, [r4, #60]	; 0x3c
1a001de2:	780b      	ldrb	r3, [r1, #0]
1a001de4:	2b85      	cmp	r3, #133	; 0x85
1a001de6:	d003      	beq.n	1a001df0 <load_xdir+0x24>
1a001de8:	2502      	movs	r5, #2
}
1a001dea:	4628      	mov	r0, r5
1a001dec:	e8bd 81f0 	ldmia.w	sp!, {r4, r5, r6, r7, r8, pc}
	mem_cpy(dirb + 0 * SZDIRE, dp->dir, SZDIRE);
1a001df0:	2220      	movs	r2, #32
1a001df2:	4630      	mov	r0, r6
1a001df4:	f7fe fe30 	bl	1a000a58 <mem_cpy>
	sz_ent = (dirb[XDIR_NumSec] + 1) * SZDIRE;
1a001df8:	7873      	ldrb	r3, [r6, #1]
1a001dfa:	3301      	adds	r3, #1
1a001dfc:	015f      	lsls	r7, r3, #5
	if (sz_ent < 3 * SZDIRE || sz_ent > 19 * SZDIRE) return FR_INT_ERR;
1a001dfe:	f1a7 0360 	sub.w	r3, r7, #96	; 0x60
1a001e02:	f5b3 7f00 	cmp.w	r3, #512	; 0x200
1a001e06:	d859      	bhi.n	1a001ebc <load_xdir+0xf0>
	res = dir_next(dp, 0);
1a001e08:	2100      	movs	r1, #0
1a001e0a:	4620      	mov	r0, r4
1a001e0c:	f7ff ff6e 	bl	1a001cec <dir_next>
1a001e10:	4605      	mov	r5, r0
	if (res == FR_NO_FILE) res = FR_INT_ERR;	/* It cannot be */
1a001e12:	2804      	cmp	r0, #4
1a001e14:	d00e      	beq.n	1a001e34 <load_xdir+0x68>
	if (res != FR_OK) return res;
1a001e16:	2800      	cmp	r0, #0
1a001e18:	d1e7      	bne.n	1a001dea <load_xdir+0x1e>
	res = move_window(dp->obj.fs, dp->sect);
1a001e1a:	6ba1      	ldr	r1, [r4, #56]	; 0x38
1a001e1c:	6820      	ldr	r0, [r4, #0]
1a001e1e:	f7ff f889 	bl	1a000f34 <move_window>
	if (res != FR_OK) return res;
1a001e22:	4605      	mov	r5, r0
1a001e24:	2800      	cmp	r0, #0
1a001e26:	d1e0      	bne.n	1a001dea <load_xdir+0x1e>
	if (dp->dir[XDIR_Type] != 0xC0) return FR_INT_ERR;	/* Invalid order */
1a001e28:	6be1      	ldr	r1, [r4, #60]	; 0x3c
1a001e2a:	780b      	ldrb	r3, [r1, #0]
1a001e2c:	2bc0      	cmp	r3, #192	; 0xc0
1a001e2e:	d003      	beq.n	1a001e38 <load_xdir+0x6c>
1a001e30:	2502      	movs	r5, #2
1a001e32:	e7da      	b.n	1a001dea <load_xdir+0x1e>
	if (res == FR_NO_FILE) res = FR_INT_ERR;	/* It cannot be */
1a001e34:	2502      	movs	r5, #2
	if (res != FR_OK) return res;
1a001e36:	e7d8      	b.n	1a001dea <load_xdir+0x1e>
	mem_cpy(dirb + 1 * SZDIRE, dp->dir, SZDIRE);
1a001e38:	2220      	movs	r2, #32
1a001e3a:	18b0      	adds	r0, r6, r2
1a001e3c:	f7fe fe0c 	bl	1a000a58 <mem_cpy>
	if (MAXDIRB(dirb[XDIR_NumName]) > sz_ent) return FR_INT_ERR;
1a001e40:	f896 3023 	ldrb.w	r3, [r6, #35]	; 0x23
1a001e44:	332c      	adds	r3, #44	; 0x2c
1a001e46:	4a20      	ldr	r2, [pc, #128]	; (1a001ec8 <load_xdir+0xfc>)
1a001e48:	fba2 2303 	umull	r2, r3, r2, r3
1a001e4c:	08db      	lsrs	r3, r3, #3
1a001e4e:	ebb7 1f43 	cmp.w	r7, r3, lsl #5
1a001e52:	d335      	bcc.n	1a001ec0 <load_xdir+0xf4>
	i = 2 * SZDIRE;	/* C1 offset to load */
1a001e54:	f04f 0840 	mov.w	r8, #64	; 0x40
1a001e58:	e005      	b.n	1a001e66 <load_xdir+0x9a>
		if (res == FR_NO_FILE) res = FR_INT_ERR;	/* It cannot be */
1a001e5a:	2502      	movs	r5, #2
		if (res != FR_OK) return res;
1a001e5c:	e7c5      	b.n	1a001dea <load_xdir+0x1e>
	} while ((i += SZDIRE) < sz_ent);
1a001e5e:	f108 0820 	add.w	r8, r8, #32
1a001e62:	4547      	cmp	r7, r8
1a001e64:	d91c      	bls.n	1a001ea0 <load_xdir+0xd4>
		res = dir_next(dp, 0);
1a001e66:	2100      	movs	r1, #0
1a001e68:	4620      	mov	r0, r4
1a001e6a:	f7ff ff3f 	bl	1a001cec <dir_next>
1a001e6e:	4605      	mov	r5, r0
		if (res == FR_NO_FILE) res = FR_INT_ERR;	/* It cannot be */
1a001e70:	2804      	cmp	r0, #4
1a001e72:	d0f2      	beq.n	1a001e5a <load_xdir+0x8e>
		if (res != FR_OK) return res;
1a001e74:	2800      	cmp	r0, #0
1a001e76:	d1b8      	bne.n	1a001dea <load_xdir+0x1e>
		res = move_window(dp->obj.fs, dp->sect);
1a001e78:	6ba1      	ldr	r1, [r4, #56]	; 0x38
1a001e7a:	6820      	ldr	r0, [r4, #0]
1a001e7c:	f7ff f85a 	bl	1a000f34 <move_window>
		if (res != FR_OK) return res;
1a001e80:	4605      	mov	r5, r0
1a001e82:	2800      	cmp	r0, #0
1a001e84:	d1b1      	bne.n	1a001dea <load_xdir+0x1e>
		if (dp->dir[XDIR_Type] != 0xC1) return FR_INT_ERR;	/* Invalid order */
1a001e86:	6be1      	ldr	r1, [r4, #60]	; 0x3c
1a001e88:	780b      	ldrb	r3, [r1, #0]
1a001e8a:	2bc1      	cmp	r3, #193	; 0xc1
1a001e8c:	d11a      	bne.n	1a001ec4 <load_xdir+0xf8>
		if (i < MAXDIRB(FF_MAX_LFN)) mem_cpy(dirb + i, dp->dir, SZDIRE);
1a001e8e:	f5b8 7f18 	cmp.w	r8, #608	; 0x260
1a001e92:	d2e4      	bcs.n	1a001e5e <load_xdir+0x92>
1a001e94:	2220      	movs	r2, #32
1a001e96:	eb06 0008 	add.w	r0, r6, r8
1a001e9a:	f7fe fddd 	bl	1a000a58 <mem_cpy>
1a001e9e:	e7de      	b.n	1a001e5e <load_xdir+0x92>
	if (i <= MAXDIRB(FF_MAX_LFN)) {
1a001ea0:	f5b8 7f18 	cmp.w	r8, #608	; 0x260
1a001ea4:	d8a1      	bhi.n	1a001dea <load_xdir+0x1e>
		if (xdir_sum(dirb) != ld_word(dirb + XDIR_SetSum)) return FR_INT_ERR;
1a001ea6:	4630      	mov	r0, r6
1a001ea8:	f7fe ff76 	bl	1a000d98 <xdir_sum>
1a001eac:	4604      	mov	r4, r0
1a001eae:	1cb0      	adds	r0, r6, #2
1a001eb0:	f7fe fd7a 	bl	1a0009a8 <ld_word>
1a001eb4:	4284      	cmp	r4, r0
1a001eb6:	d098      	beq.n	1a001dea <load_xdir+0x1e>
1a001eb8:	2502      	movs	r5, #2
1a001eba:	e796      	b.n	1a001dea <load_xdir+0x1e>
	if (sz_ent < 3 * SZDIRE || sz_ent > 19 * SZDIRE) return FR_INT_ERR;
1a001ebc:	2502      	movs	r5, #2
1a001ebe:	e794      	b.n	1a001dea <load_xdir+0x1e>
	if (MAXDIRB(dirb[XDIR_NumName]) > sz_ent) return FR_INT_ERR;
1a001ec0:	2502      	movs	r5, #2
1a001ec2:	e792      	b.n	1a001dea <load_xdir+0x1e>
		if (dp->dir[XDIR_Type] != 0xC1) return FR_INT_ERR;	/* Invalid order */
1a001ec4:	2502      	movs	r5, #2
1a001ec6:	e790      	b.n	1a001dea <load_xdir+0x1e>
1a001ec8:	88888889 	.word	0x88888889

1a001ecc <load_obj_xdir>:
{
1a001ecc:	b510      	push	{r4, lr}
1a001ece:	4604      	mov	r4, r0
	dp->obj.fs = obj->fs;
1a001ed0:	680b      	ldr	r3, [r1, #0]
1a001ed2:	6003      	str	r3, [r0, #0]
	dp->obj.sclust = obj->c_scl;
1a001ed4:	6a0b      	ldr	r3, [r1, #32]
1a001ed6:	6083      	str	r3, [r0, #8]
	dp->obj.stat = (BYTE)obj->c_size;
1a001ed8:	f891 3024 	ldrb.w	r3, [r1, #36]	; 0x24
1a001edc:	71c3      	strb	r3, [r0, #7]
	dp->obj.objsize = obj->c_size & 0xFFFFFF00;
1a001ede:	6a4b      	ldr	r3, [r1, #36]	; 0x24
1a001ee0:	f023 03ff 	bic.w	r3, r3, #255	; 0xff
1a001ee4:	2200      	movs	r2, #0
1a001ee6:	6103      	str	r3, [r0, #16]
1a001ee8:	6142      	str	r2, [r0, #20]
	dp->obj.n_frag = 0;
1a001eea:	61c2      	str	r2, [r0, #28]
	dp->blk_ofs = obj->c_ofs;
1a001eec:	6a89      	ldr	r1, [r1, #40]	; 0x28
1a001eee:	64c1      	str	r1, [r0, #76]	; 0x4c
	res = dir_sdi(dp, dp->blk_ofs);	/* Goto object's entry block */
1a001ef0:	f7ff fcda 	bl	1a0018a8 <dir_sdi>
	if (res == FR_OK) {
1a001ef4:	b100      	cbz	r0, 1a001ef8 <load_obj_xdir+0x2c>
}
1a001ef6:	bd10      	pop	{r4, pc}
		res = load_xdir(dp);		/* Load the object's entry block */
1a001ef8:	4620      	mov	r0, r4
1a001efa:	f7ff ff67 	bl	1a001dcc <load_xdir>
1a001efe:	e7fa      	b.n	1a001ef6 <load_obj_xdir+0x2a>

1a001f00 <dir_read>:
{
1a001f00:	e92d 43f8 	stmdb	sp!, {r3, r4, r5, r6, r7, r8, r9, lr}
1a001f04:	4604      	mov	r4, r0
1a001f06:	4688      	mov	r8, r1
	FATFS *fs = dp->obj.fs;
1a001f08:	6806      	ldr	r6, [r0, #0]
	BYTE ord = 0xFF, sum = 0xFF;
1a001f0a:	f04f 09ff 	mov.w	r9, #255	; 0xff
1a001f0e:	464f      	mov	r7, r9
	FRESULT res = FR_NO_FILE;
1a001f10:	2504      	movs	r5, #4
	while (dp->sect) {
1a001f12:	e008      	b.n	1a001f26 <dir_read+0x26>
				if (c == 0x85) {		/* Start of the file entry block? */
1a001f14:	2b85      	cmp	r3, #133	; 0x85
1a001f16:	d028      	beq.n	1a001f6a <dir_read+0x6a>
		res = dir_next(dp, 0);		/* Next entry */
1a001f18:	2100      	movs	r1, #0
1a001f1a:	4620      	mov	r0, r4
1a001f1c:	f7ff fee6 	bl	1a001cec <dir_next>
		if (res != FR_OK) break;
1a001f20:	4605      	mov	r5, r0
1a001f22:	2800      	cmp	r0, #0
1a001f24:	d15b      	bne.n	1a001fde <dir_read+0xde>
	while (dp->sect) {
1a001f26:	6ba1      	ldr	r1, [r4, #56]	; 0x38
1a001f28:	2900      	cmp	r1, #0
1a001f2a:	d058      	beq.n	1a001fde <dir_read+0xde>
		res = move_window(fs, dp->sect);
1a001f2c:	4630      	mov	r0, r6
1a001f2e:	f7ff f801 	bl	1a000f34 <move_window>
		if (res != FR_OK) break;
1a001f32:	4605      	mov	r5, r0
1a001f34:	2800      	cmp	r0, #0
1a001f36:	d152      	bne.n	1a001fde <dir_read+0xde>
		c = dp->dir[DIR_Name];	/* Test for the entry type */
1a001f38:	6be1      	ldr	r1, [r4, #60]	; 0x3c
1a001f3a:	780b      	ldrb	r3, [r1, #0]
		if (c == 0) {
1a001f3c:	2b00      	cmp	r3, #0
1a001f3e:	d04d      	beq.n	1a001fdc <dir_read+0xdc>
		if (fs->fs_type == FS_EXFAT) {	/* On the exFAT volume */
1a001f40:	7832      	ldrb	r2, [r6, #0]
1a001f42:	2a04      	cmp	r2, #4
1a001f44:	d0e6      	beq.n	1a001f14 <dir_read+0x14>
			dp->obj.attr = a = dp->dir[DIR_Attr] & AM_MASK;	/* Get attribute */
1a001f46:	7aca      	ldrb	r2, [r1, #11]
1a001f48:	f002 023f 	and.w	r2, r2, #63	; 0x3f
1a001f4c:	71a2      	strb	r2, [r4, #6]
			if (c == DDEM || c == '.' || (int)((a & ~AM_ARC) == AM_VOL) != vol) {	/* An entry without valid data */
1a001f4e:	2be5      	cmp	r3, #229	; 0xe5
1a001f50:	d03e      	beq.n	1a001fd0 <dir_read+0xd0>
1a001f52:	2b2e      	cmp	r3, #46	; 0x2e
1a001f54:	d03e      	beq.n	1a001fd4 <dir_read+0xd4>
1a001f56:	f022 0020 	bic.w	r0, r2, #32
1a001f5a:	2808      	cmp	r0, #8
1a001f5c:	bf14      	ite	ne
1a001f5e:	2000      	movne	r0, #0
1a001f60:	2001      	moveq	r0, #1
1a001f62:	4540      	cmp	r0, r8
1a001f64:	d00e      	beq.n	1a001f84 <dir_read+0x84>
				ord = 0xFF;
1a001f66:	27ff      	movs	r7, #255	; 0xff
1a001f68:	e7d6      	b.n	1a001f18 <dir_read+0x18>
					dp->blk_ofs = dp->dptr;	/* Get location of the block */
1a001f6a:	6b23      	ldr	r3, [r4, #48]	; 0x30
1a001f6c:	64e3      	str	r3, [r4, #76]	; 0x4c
					res = load_xdir(dp);	/* Load the entry block */
1a001f6e:	4620      	mov	r0, r4
1a001f70:	f7ff ff2c 	bl	1a001dcc <load_xdir>
					if (res == FR_OK) {
1a001f74:	4605      	mov	r5, r0
1a001f76:	bb90      	cbnz	r0, 1a001fde <dir_read+0xde>
						dp->obj.attr = fs->dirbuf[XDIR_Attr] & AM_MASK;	/* Get attribute */
1a001f78:	6933      	ldr	r3, [r6, #16]
1a001f7a:	791b      	ldrb	r3, [r3, #4]
1a001f7c:	f003 033f 	and.w	r3, r3, #63	; 0x3f
1a001f80:	71a3      	strb	r3, [r4, #6]
1a001f82:	e02c      	b.n	1a001fde <dir_read+0xde>
				if (a == AM_LFN) {			/* An LFN entry is found */
1a001f84:	2a0f      	cmp	r2, #15
1a001f86:	d119      	bne.n	1a001fbc <dir_read+0xbc>
					if (c & LLEF) {			/* Is it start of an LFN sequence? */
1a001f88:	f013 0f40 	tst.w	r3, #64	; 0x40
1a001f8c:	d006      	beq.n	1a001f9c <dir_read+0x9c>
						sum = dp->dir[LDIR_Chksum];
1a001f8e:	f891 900d 	ldrb.w	r9, [r1, #13]
						c &= (BYTE)~LLEF; ord = c;
1a001f92:	f003 03bf 	and.w	r3, r3, #191	; 0xbf
						dp->blk_ofs = dp->dptr;
1a001f96:	6b22      	ldr	r2, [r4, #48]	; 0x30
1a001f98:	64e2      	str	r2, [r4, #76]	; 0x4c
						c &= (BYTE)~LLEF; ord = c;
1a001f9a:	461f      	mov	r7, r3
					ord = (c == ord && sum == dp->dir[LDIR_Chksum] && pick_lfn(fs->lfnbuf, dp->dir)) ? ord - 1 : 0xFF;
1a001f9c:	42bb      	cmp	r3, r7
1a001f9e:	d001      	beq.n	1a001fa4 <dir_read+0xa4>
1a001fa0:	27ff      	movs	r7, #255	; 0xff
1a001fa2:	e7b9      	b.n	1a001f18 <dir_read+0x18>
1a001fa4:	7b4b      	ldrb	r3, [r1, #13]
1a001fa6:	454b      	cmp	r3, r9
1a001fa8:	d001      	beq.n	1a001fae <dir_read+0xae>
1a001faa:	27ff      	movs	r7, #255	; 0xff
1a001fac:	e7b4      	b.n	1a001f18 <dir_read+0x18>
1a001fae:	68f0      	ldr	r0, [r6, #12]
1a001fb0:	f7fe fe0a 	bl	1a000bc8 <pick_lfn>
1a001fb4:	b180      	cbz	r0, 1a001fd8 <dir_read+0xd8>
1a001fb6:	3f01      	subs	r7, #1
1a001fb8:	b2ff      	uxtb	r7, r7
1a001fba:	e7ad      	b.n	1a001f18 <dir_read+0x18>
					if (ord != 0 || sum != sum_sfn(dp->dir)) {	/* Is there a valid LFN? */
1a001fbc:	b927      	cbnz	r7, 1a001fc8 <dir_read+0xc8>
1a001fbe:	4608      	mov	r0, r1
1a001fc0:	f7fe fed9 	bl	1a000d76 <sum_sfn>
1a001fc4:	4548      	cmp	r0, r9
1a001fc6:	d00a      	beq.n	1a001fde <dir_read+0xde>
						dp->blk_ofs = 0xFFFFFFFF;			/* It has no LFN. */
1a001fc8:	f04f 33ff 	mov.w	r3, #4294967295	; 0xffffffff
1a001fcc:	64e3      	str	r3, [r4, #76]	; 0x4c
1a001fce:	e006      	b.n	1a001fde <dir_read+0xde>
				ord = 0xFF;
1a001fd0:	27ff      	movs	r7, #255	; 0xff
1a001fd2:	e7a1      	b.n	1a001f18 <dir_read+0x18>
1a001fd4:	27ff      	movs	r7, #255	; 0xff
1a001fd6:	e79f      	b.n	1a001f18 <dir_read+0x18>
					ord = (c == ord && sum == dp->dir[LDIR_Chksum] && pick_lfn(fs->lfnbuf, dp->dir)) ? ord - 1 : 0xFF;
1a001fd8:	27ff      	movs	r7, #255	; 0xff
1a001fda:	e79d      	b.n	1a001f18 <dir_read+0x18>
			res = FR_NO_FILE; break; /* Reached to end of the directory */
1a001fdc:	2504      	movs	r5, #4
	if (res != FR_OK) dp->sect = 0;		/* Terminate the read operation on error or EOT */
1a001fde:	b10d      	cbz	r5, 1a001fe4 <dir_read+0xe4>
1a001fe0:	2300      	movs	r3, #0
1a001fe2:	63a3      	str	r3, [r4, #56]	; 0x38
}
1a001fe4:	4628      	mov	r0, r5
1a001fe6:	e8bd 83f8 	ldmia.w	sp!, {r3, r4, r5, r6, r7, r8, r9, pc}

1a001fea <dir_alloc>:
{
1a001fea:	b5f8      	push	{r3, r4, r5, r6, r7, lr}
1a001fec:	4604      	mov	r4, r0
1a001fee:	460f      	mov	r7, r1
	FATFS *fs = dp->obj.fs;
1a001ff0:	6806      	ldr	r6, [r0, #0]
	res = dir_sdi(dp, 0);
1a001ff2:	2100      	movs	r1, #0
1a001ff4:	f7ff fc58 	bl	1a0018a8 <dir_sdi>
	if (res == FR_OK) {
1a001ff8:	4602      	mov	r2, r0
1a001ffa:	bb30      	cbnz	r0, 1a00204a <dir_alloc+0x60>
		n = 0;
1a001ffc:	2500      	movs	r5, #0
1a001ffe:	e00e      	b.n	1a00201e <dir_alloc+0x34>
			if ((fs->fs_type == FS_EXFAT) ? (int)((dp->dir[XDIR_Type] & 0x80) == 0) : (int)(dp->dir[DIR_Name] == DDEM || dp->dir[DIR_Name] == 0)) {
1a002000:	6be3      	ldr	r3, [r4, #60]	; 0x3c
1a002002:	f993 3000 	ldrsb.w	r3, [r3]
1a002006:	43db      	mvns	r3, r3
1a002008:	0fdb      	lsrs	r3, r3, #31
1a00200a:	b1e3      	cbz	r3, 1a002046 <dir_alloc+0x5c>
				if (++n == nent) break;	/* A block of contiguous free entries is found */
1a00200c:	3501      	adds	r5, #1
1a00200e:	42bd      	cmp	r5, r7
1a002010:	d01b      	beq.n	1a00204a <dir_alloc+0x60>
			res = dir_next(dp, 1);
1a002012:	2101      	movs	r1, #1
1a002014:	4620      	mov	r0, r4
1a002016:	f7ff fe69 	bl	1a001cec <dir_next>
		} while (res == FR_OK);	/* Next entry with table stretch enabled */
1a00201a:	4602      	mov	r2, r0
1a00201c:	b9a8      	cbnz	r0, 1a00204a <dir_alloc+0x60>
			res = move_window(fs, dp->sect);
1a00201e:	6ba1      	ldr	r1, [r4, #56]	; 0x38
1a002020:	4630      	mov	r0, r6
1a002022:	f7fe ff87 	bl	1a000f34 <move_window>
			if (res != FR_OK) break;
1a002026:	4602      	mov	r2, r0
1a002028:	b978      	cbnz	r0, 1a00204a <dir_alloc+0x60>
			if ((fs->fs_type == FS_EXFAT) ? (int)((dp->dir[XDIR_Type] & 0x80) == 0) : (int)(dp->dir[DIR_Name] == DDEM || dp->dir[DIR_Name] == 0)) {
1a00202a:	7833      	ldrb	r3, [r6, #0]
1a00202c:	2b04      	cmp	r3, #4
1a00202e:	d0e7      	beq.n	1a002000 <dir_alloc+0x16>
1a002030:	6be3      	ldr	r3, [r4, #60]	; 0x3c
1a002032:	781b      	ldrb	r3, [r3, #0]
1a002034:	2be5      	cmp	r3, #229	; 0xe5
1a002036:	d002      	beq.n	1a00203e <dir_alloc+0x54>
1a002038:	b91b      	cbnz	r3, 1a002042 <dir_alloc+0x58>
1a00203a:	2301      	movs	r3, #1
1a00203c:	e7e5      	b.n	1a00200a <dir_alloc+0x20>
1a00203e:	2301      	movs	r3, #1
1a002040:	e7e3      	b.n	1a00200a <dir_alloc+0x20>
1a002042:	2300      	movs	r3, #0
1a002044:	e7e1      	b.n	1a00200a <dir_alloc+0x20>
				n = 0;					/* Not a blank entry. Restart to search */
1a002046:	2500      	movs	r5, #0
1a002048:	e7e3      	b.n	1a002012 <dir_alloc+0x28>
	if (res == FR_NO_FILE) res = FR_DENIED;	/* No directory entry to allocate */
1a00204a:	2a04      	cmp	r2, #4
1a00204c:	d001      	beq.n	1a002052 <dir_alloc+0x68>
}
1a00204e:	4610      	mov	r0, r2
1a002050:	bdf8      	pop	{r3, r4, r5, r6, r7, pc}
	if (res == FR_NO_FILE) res = FR_DENIED;	/* No directory entry to allocate */
1a002052:	2207      	movs	r2, #7
1a002054:	e7fb      	b.n	1a00204e <dir_alloc+0x64>

1a002056 <store_xdir>:
{
1a002056:	b5f8      	push	{r3, r4, r5, r6, r7, lr}
1a002058:	4604      	mov	r4, r0
	BYTE* dirb = dp->obj.fs->dirbuf;	/* Pointer to the direcotry entry block 85+C0+C1s */
1a00205a:	6803      	ldr	r3, [r0, #0]
1a00205c:	691e      	ldr	r6, [r3, #16]
	st_word(dirb + XDIR_SetSum, xdir_sum(dirb));
1a00205e:	4630      	mov	r0, r6
1a002060:	f7fe fe9a 	bl	1a000d98 <xdir_sum>
1a002064:	4601      	mov	r1, r0
1a002066:	1cb0      	adds	r0, r6, #2
1a002068:	f7fe fcd5 	bl	1a000a16 <st_word>
	nent = dirb[XDIR_NumSec] + 1;
1a00206c:	7877      	ldrb	r7, [r6, #1]
1a00206e:	3701      	adds	r7, #1
	res = dir_sdi(dp, dp->blk_ofs);
1a002070:	6ce1      	ldr	r1, [r4, #76]	; 0x4c
1a002072:	4620      	mov	r0, r4
1a002074:	f7ff fc18 	bl	1a0018a8 <dir_sdi>
1a002078:	4605      	mov	r5, r0
	while (res == FR_OK) {
1a00207a:	e005      	b.n	1a002088 <store_xdir+0x32>
		dirb += SZDIRE;
1a00207c:	3620      	adds	r6, #32
		res = dir_next(dp, 0);
1a00207e:	2100      	movs	r1, #0
1a002080:	4620      	mov	r0, r4
1a002082:	f7ff fe33 	bl	1a001cec <dir_next>
1a002086:	4605      	mov	r5, r0
	while (res == FR_OK) {
1a002088:	b97d      	cbnz	r5, 1a0020aa <store_xdir+0x54>
		res = move_window(dp->obj.fs, dp->sect);
1a00208a:	6ba1      	ldr	r1, [r4, #56]	; 0x38
1a00208c:	6820      	ldr	r0, [r4, #0]
1a00208e:	f7fe ff51 	bl	1a000f34 <move_window>
		if (res != FR_OK) break;
1a002092:	4605      	mov	r5, r0
1a002094:	b948      	cbnz	r0, 1a0020aa <store_xdir+0x54>
		mem_cpy(dp->dir, dirb, SZDIRE);
1a002096:	2220      	movs	r2, #32
1a002098:	4631      	mov	r1, r6
1a00209a:	6be0      	ldr	r0, [r4, #60]	; 0x3c
1a00209c:	f7fe fcdc 	bl	1a000a58 <mem_cpy>
		dp->obj.fs->wflag = 1;
1a0020a0:	6823      	ldr	r3, [r4, #0]
1a0020a2:	2201      	movs	r2, #1
1a0020a4:	70da      	strb	r2, [r3, #3]
		if (--nent == 0) break;
1a0020a6:	3f01      	subs	r7, #1
1a0020a8:	d1e8      	bne.n	1a00207c <store_xdir+0x26>
	return (res == FR_OK || res == FR_DISK_ERR) ? res : FR_INT_ERR;
1a0020aa:	2d02      	cmp	r5, #2
1a0020ac:	bf28      	it	cs
1a0020ae:	2502      	movcs	r5, #2
}
1a0020b0:	b2e8      	uxtb	r0, r5
1a0020b2:	bdf8      	pop	{r3, r4, r5, r6, r7, pc}

1a0020b4 <create_name>:
{
1a0020b4:	e92d 4ff0 	stmdb	sp!, {r4, r5, r6, r7, r8, r9, sl, fp, lr}
1a0020b8:	b085      	sub	sp, #20
1a0020ba:	4607      	mov	r7, r0
1a0020bc:	4688      	mov	r8, r1
	p = *path; lfn = dp->obj.fs->lfnbuf; di = 0;
1a0020be:	680b      	ldr	r3, [r1, #0]
1a0020c0:	9303      	str	r3, [sp, #12]
1a0020c2:	6803      	ldr	r3, [r0, #0]
1a0020c4:	68dd      	ldr	r5, [r3, #12]
1a0020c6:	2400      	movs	r4, #0
1a0020c8:	e00e      	b.n	1a0020e8 <create_name+0x34>
		wc = (WCHAR)uc;
1a0020ca:	b286      	uxth	r6, r0
		if (wc < ' ' || wc == '/' || wc == '\\') break;	/* Break if end of the path or a separator is found */
1a0020cc:	2e1f      	cmp	r6, #31
1a0020ce:	d924      	bls.n	1a00211a <create_name+0x66>
1a0020d0:	2e2f      	cmp	r6, #47	; 0x2f
1a0020d2:	d022      	beq.n	1a00211a <create_name+0x66>
1a0020d4:	2e5c      	cmp	r6, #92	; 0x5c
1a0020d6:	d020      	beq.n	1a00211a <create_name+0x66>
		if (wc < 0x80 && chk_chr("\"*:<>\?|\x7F", wc)) return FR_INVALID_NAME;	/* Reject illegal characters for LFN */
1a0020d8:	2e7f      	cmp	r6, #127	; 0x7f
1a0020da:	d914      	bls.n	1a002106 <create_name+0x52>
		if (di >= FF_MAX_LFN) return FR_INVALID_NAME;	/* Reject too long name */
1a0020dc:	2cfe      	cmp	r4, #254	; 0xfe
1a0020de:	f200 8104 	bhi.w	1a0022ea <create_name+0x236>
		lfn[di++] = wc;					/* Store the Unicode character */
1a0020e2:	f825 6014 	strh.w	r6, [r5, r4, lsl #1]
1a0020e6:	3401      	adds	r4, #1
		uc = tchar2uni(&p);			/* Get a character */
1a0020e8:	a803      	add	r0, sp, #12
1a0020ea:	f7fe fcdf 	bl	1a000aac <tchar2uni>
		if (uc == 0xFFFFFFFF) return FR_INVALID_NAME;		/* Invalid code or UTF decode error */
1a0020ee:	f1b0 3fff 	cmp.w	r0, #4294967295	; 0xffffffff
1a0020f2:	f000 80f8 	beq.w	1a0022e6 <create_name+0x232>
		if (uc >= 0x10000) lfn[di++] = (WCHAR)(uc >> 16);	/* Store high surrogate if needed */
1a0020f6:	f5b0 3f80 	cmp.w	r0, #65536	; 0x10000
1a0020fa:	d3e6      	bcc.n	1a0020ca <create_name+0x16>
1a0020fc:	0c03      	lsrs	r3, r0, #16
1a0020fe:	f825 3014 	strh.w	r3, [r5, r4, lsl #1]
1a002102:	3401      	adds	r4, #1
1a002104:	e7e1      	b.n	1a0020ca <create_name+0x16>
		if (wc < 0x80 && chk_chr("\"*:<>\?|\x7F", wc)) return FR_INVALID_NAME;	/* Reject illegal characters for LFN */
1a002106:	4631      	mov	r1, r6
1a002108:	487a      	ldr	r0, [pc, #488]	; (1a0022f4 <create_name+0x240>)
1a00210a:	f7fe fcc4 	bl	1a000a96 <chk_chr>
1a00210e:	2800      	cmp	r0, #0
1a002110:	d0e4      	beq.n	1a0020dc <create_name+0x28>
1a002112:	2006      	movs	r0, #6
1a002114:	e092      	b.n	1a00223c <create_name+0x188>
	while (*p == '/' || *p == '\\') p++;	/* Skip duplicated separators if exist */
1a002116:	3301      	adds	r3, #1
1a002118:	9303      	str	r3, [sp, #12]
1a00211a:	9b03      	ldr	r3, [sp, #12]
1a00211c:	781a      	ldrb	r2, [r3, #0]
1a00211e:	2a2f      	cmp	r2, #47	; 0x2f
1a002120:	d0f9      	beq.n	1a002116 <create_name+0x62>
1a002122:	2a5c      	cmp	r2, #92	; 0x5c
1a002124:	d0f7      	beq.n	1a002116 <create_name+0x62>
	*path = p;							/* Return pointer to the next segment */
1a002126:	f8c8 3000 	str.w	r3, [r8]
	cf = (wc < ' ') ? NS_LAST : 0;		/* Set last segment flag if end of the path */
1a00212a:	2e1f      	cmp	r6, #31
1a00212c:	d802      	bhi.n	1a002134 <create_name+0x80>
1a00212e:	f04f 0804 	mov.w	r8, #4
1a002132:	e003      	b.n	1a00213c <create_name+0x88>
1a002134:	f04f 0800 	mov.w	r8, #0
	while (di) {						/* Snip off trailing spaces and dots if exist */
1a002138:	e000      	b.n	1a00213c <create_name+0x88>
		di--;
1a00213a:	3c01      	subs	r4, #1
	while (di) {						/* Snip off trailing spaces and dots if exist */
1a00213c:	b144      	cbz	r4, 1a002150 <create_name+0x9c>
		wc = lfn[di - 1];
1a00213e:	f104 4300 	add.w	r3, r4, #2147483648	; 0x80000000
1a002142:	3b01      	subs	r3, #1
1a002144:	f835 3013 	ldrh.w	r3, [r5, r3, lsl #1]
		if (wc != ' ' && wc != '.') break;
1a002148:	2b20      	cmp	r3, #32
1a00214a:	d0f6      	beq.n	1a00213a <create_name+0x86>
1a00214c:	2b2e      	cmp	r3, #46	; 0x2e
1a00214e:	d0f4      	beq.n	1a00213a <create_name+0x86>
	lfn[di] = 0;							/* LFN is created into the working buffer */
1a002150:	2300      	movs	r3, #0
1a002152:	f825 3014 	strh.w	r3, [r5, r4, lsl #1]
	if (di == 0) return FR_INVALID_NAME;	/* Reject null name */
1a002156:	2c00      	cmp	r4, #0
1a002158:	f000 80c9 	beq.w	1a0022ee <create_name+0x23a>
	for (si = 0; lfn[si] == ' '; si++) ;	/* Remove leading spaces */
1a00215c:	461e      	mov	r6, r3
1a00215e:	e000      	b.n	1a002162 <create_name+0xae>
1a002160:	3601      	adds	r6, #1
1a002162:	f835 3016 	ldrh.w	r3, [r5, r6, lsl #1]
1a002166:	2b20      	cmp	r3, #32
1a002168:	d0fa      	beq.n	1a002160 <create_name+0xac>
	if (si > 0 || lfn[si] == '.') cf |= NS_LOSS | NS_LFN;	/* Is there any leading space or dot? */
1a00216a:	b90e      	cbnz	r6, 1a002170 <create_name+0xbc>
1a00216c:	2b2e      	cmp	r3, #46	; 0x2e
1a00216e:	d101      	bne.n	1a002174 <create_name+0xc0>
1a002170:	f048 0803 	orr.w	r8, r8, #3
	while (di > 0 && lfn[di - 1] != '.') di--;	/* Find last dot (di<=si: no extension) */
1a002174:	b144      	cbz	r4, 1a002188 <create_name+0xd4>
1a002176:	f104 4300 	add.w	r3, r4, #2147483648	; 0x80000000
1a00217a:	3b01      	subs	r3, #1
1a00217c:	f835 3013 	ldrh.w	r3, [r5, r3, lsl #1]
1a002180:	2b2e      	cmp	r3, #46	; 0x2e
1a002182:	d001      	beq.n	1a002188 <create_name+0xd4>
1a002184:	3c01      	subs	r4, #1
1a002186:	e7f5      	b.n	1a002174 <create_name+0xc0>
	mem_set(dp->fn, ' ', 11);
1a002188:	220b      	movs	r2, #11
1a00218a:	2120      	movs	r1, #32
1a00218c:	f107 0040 	add.w	r0, r7, #64	; 0x40
1a002190:	f7fe fc6e 	bl	1a000a70 <mem_set>
	i = b = 0; ni = 8;
1a002194:	f04f 0b08 	mov.w	fp, #8
1a002198:	2300      	movs	r3, #0
1a00219a:	9301      	str	r3, [sp, #4]
1a00219c:	469a      	mov	sl, r3
		wc = lfn[si++];					/* Get an LFN character */
1a00219e:	f106 0901 	add.w	r9, r6, #1
1a0021a2:	f835 6016 	ldrh.w	r6, [r5, r6, lsl #1]
		if (wc == 0) break;				/* Break on end of the LFN */
1a0021a6:	b346      	cbz	r6, 1a0021fa <create_name+0x146>
		if (wc == ' ' || (wc == '.' && si != di)) {	/* Remove embedded spaces and dots */
1a0021a8:	2e20      	cmp	r6, #32
1a0021aa:	d019      	beq.n	1a0021e0 <create_name+0x12c>
1a0021ac:	2e2e      	cmp	r6, #46	; 0x2e
1a0021ae:	d015      	beq.n	1a0021dc <create_name+0x128>
		if (i >= ni || si == di) {		/* End of field? */
1a0021b0:	9b01      	ldr	r3, [sp, #4]
1a0021b2:	455b      	cmp	r3, fp
1a0021b4:	d218      	bcs.n	1a0021e8 <create_name+0x134>
1a0021b6:	454c      	cmp	r4, r9
1a0021b8:	d016      	beq.n	1a0021e8 <create_name+0x134>
		if (wc >= 0x80) {	/* Is this a non-ASCII character? */
1a0021ba:	2e7f      	cmp	r6, #127	; 0x7f
1a0021bc:	d84e      	bhi.n	1a00225c <create_name+0x1a8>
		if (wc >= 0x100) {				/* Is this a DBC? */
1a0021be:	2eff      	cmp	r6, #255	; 0xff
1a0021c0:	d962      	bls.n	1a002288 <create_name+0x1d4>
			if (i >= ni - 1) {			/* Field overflow? */
1a0021c2:	f10b 33ff 	add.w	r3, fp, #4294967295	; 0xffffffff
1a0021c6:	9a01      	ldr	r2, [sp, #4]
1a0021c8:	4293      	cmp	r3, r2
1a0021ca:	d957      	bls.n	1a00227c <create_name+0x1c8>
			dp->fn[i++] = (BYTE)(wc >> 8);	/* Put 1st byte */
1a0021cc:	9901      	ldr	r1, [sp, #4]
1a0021ce:	1c4b      	adds	r3, r1, #1
1a0021d0:	f3c6 2207 	ubfx	r2, r6, #8, #8
1a0021d4:	1879      	adds	r1, r7, r1
1a0021d6:	f881 2040 	strb.w	r2, [r1, #64]	; 0x40
1a0021da:	e05a      	b.n	1a002292 <create_name+0x1de>
		if (wc == ' ' || (wc == '.' && si != di)) {	/* Remove embedded spaces and dots */
1a0021dc:	454c      	cmp	r4, r9
1a0021de:	d0e7      	beq.n	1a0021b0 <create_name+0xfc>
			cf |= NS_LOSS | NS_LFN;
1a0021e0:	f048 0803 	orr.w	r8, r8, #3
		wc = lfn[si++];					/* Get an LFN character */
1a0021e4:	464e      	mov	r6, r9
			continue;
1a0021e6:	e7da      	b.n	1a00219e <create_name+0xea>
			if (ni == 11) {				/* Name extension overflow? */
1a0021e8:	f1bb 0f0b 	cmp.w	fp, #11
1a0021ec:	d029      	beq.n	1a002242 <create_name+0x18e>
			if (si != di) cf |= NS_LOSS | NS_LFN;	/* Name body overflow? */
1a0021ee:	454c      	cmp	r4, r9
1a0021f0:	d001      	beq.n	1a0021f6 <create_name+0x142>
1a0021f2:	f048 0803 	orr.w	r8, r8, #3
			if (si > di) break;						/* No name extension? */
1a0021f6:	454c      	cmp	r4, r9
1a0021f8:	d226      	bcs.n	1a002248 <create_name+0x194>
	if (dp->fn[0] == DDEM) dp->fn[0] = RDDEM;	/* If the first character collides with DDEM, replace it with RDDEM */
1a0021fa:	f897 3040 	ldrb.w	r3, [r7, #64]	; 0x40
1a0021fe:	2be5      	cmp	r3, #229	; 0xe5
1a002200:	d068      	beq.n	1a0022d4 <create_name+0x220>
	if (ni == 8) b <<= 2;				/* Shift capital flags if no extension */
1a002202:	f1bb 0f08 	cmp.w	fp, #8
1a002206:	d069      	beq.n	1a0022dc <create_name+0x228>
	if ((b & 0x0C) == 0x0C || (b & 0x03) == 0x03) cf |= NS_LFN;	/* LFN entry needs to be created if composite capitals */
1a002208:	f00a 030c 	and.w	r3, sl, #12
1a00220c:	2b0c      	cmp	r3, #12
1a00220e:	d003      	beq.n	1a002218 <create_name+0x164>
1a002210:	f00a 0303 	and.w	r3, sl, #3
1a002214:	2b03      	cmp	r3, #3
1a002216:	d101      	bne.n	1a00221c <create_name+0x168>
1a002218:	f048 0802 	orr.w	r8, r8, #2
	if (!(cf & NS_LFN)) {				/* When LFN is in 8.3 format without extended character, NT flags are created */
1a00221c:	f018 0f02 	tst.w	r8, #2
1a002220:	d109      	bne.n	1a002236 <create_name+0x182>
		if (b & 0x01) cf |= NS_EXT;		/* NT flag (Extension has small capital letters only) */
1a002222:	f01a 0f01 	tst.w	sl, #1
1a002226:	d001      	beq.n	1a00222c <create_name+0x178>
1a002228:	f048 0810 	orr.w	r8, r8, #16
		if (b & 0x04) cf |= NS_BODY;	/* NT flag (Body has small capital letters only) */
1a00222c:	f01a 0f04 	tst.w	sl, #4
1a002230:	d001      	beq.n	1a002236 <create_name+0x182>
1a002232:	f048 0808 	orr.w	r8, r8, #8
	dp->fn[NSFLAG] = cf;	/* SFN is created into dp->fn[] */
1a002236:	f887 804b 	strb.w	r8, [r7, #75]	; 0x4b
	return FR_OK;
1a00223a:	2000      	movs	r0, #0
}
1a00223c:	b005      	add	sp, #20
1a00223e:	e8bd 8ff0 	ldmia.w	sp!, {r4, r5, r6, r7, r8, r9, sl, fp, pc}
				cf |= NS_LOSS | NS_LFN;
1a002242:	f048 0803 	orr.w	r8, r8, #3
				break;
1a002246:	e7d8      	b.n	1a0021fa <create_name+0x146>
			si = di; i = 8; ni = 11; b <<= 2;		/* Enter name extension */
1a002248:	ea4f 0a8a 	mov.w	sl, sl, lsl #2
1a00224c:	fa5f fa8a 	uxtb.w	sl, sl
1a002250:	4626      	mov	r6, r4
1a002252:	f04f 0b0b 	mov.w	fp, #11
1a002256:	2308      	movs	r3, #8
1a002258:	9301      	str	r3, [sp, #4]
			continue;
1a00225a:	e7a0      	b.n	1a00219e <create_name+0xea>
			cf |= NS_LFN;	/* LFN entry needs to be created */
1a00225c:	f048 0802 	orr.w	r8, r8, #2
			wc = ff_uni2oem(wc, CODEPAGE);			/* Unicode ==> ANSI/OEM code */
1a002260:	f240 3152 	movw	r1, #850	; 0x352
1a002264:	4630      	mov	r0, r6
1a002266:	f001 f87b 	bl	1a003360 <ff_uni2oem>
1a00226a:	4606      	mov	r6, r0
			if (wc & 0x80) wc = ExCvt[wc & 0x7F];	/* Convert extended character to upper (SBCS) */
1a00226c:	f010 0f80 	tst.w	r0, #128	; 0x80
1a002270:	d0a5      	beq.n	1a0021be <create_name+0x10a>
1a002272:	f000 067f 	and.w	r6, r0, #127	; 0x7f
1a002276:	4b20      	ldr	r3, [pc, #128]	; (1a0022f8 <create_name+0x244>)
1a002278:	5d9e      	ldrb	r6, [r3, r6]
1a00227a:	e7a0      	b.n	1a0021be <create_name+0x10a>
				cf |= NS_LOSS | NS_LFN;
1a00227c:	f048 0803 	orr.w	r8, r8, #3
		wc = lfn[si++];					/* Get an LFN character */
1a002280:	464e      	mov	r6, r9
				i = ni; continue;		/* Next field */
1a002282:	f8cd b004 	str.w	fp, [sp, #4]
1a002286:	e78a      	b.n	1a00219e <create_name+0xea>
			if (wc == 0 || chk_chr("+,;=[]", wc)) {	/* Replace illegal characters for SFN if needed */
1a002288:	b956      	cbnz	r6, 1a0022a0 <create_name+0x1ec>
				wc = '_'; cf |= NS_LOSS | NS_LFN;/* Lossy conversion */
1a00228a:	f048 0803 	orr.w	r8, r8, #3
1a00228e:	9b01      	ldr	r3, [sp, #4]
1a002290:	265f      	movs	r6, #95	; 0x5f
		dp->fn[i++] = (BYTE)wc;
1a002292:	1c5a      	adds	r2, r3, #1
1a002294:	9201      	str	r2, [sp, #4]
1a002296:	443b      	add	r3, r7
1a002298:	f883 6040 	strb.w	r6, [r3, #64]	; 0x40
		wc = lfn[si++];					/* Get an LFN character */
1a00229c:	464e      	mov	r6, r9
1a00229e:	e77e      	b.n	1a00219e <create_name+0xea>
			if (wc == 0 || chk_chr("+,;=[]", wc)) {	/* Replace illegal characters for SFN if needed */
1a0022a0:	4631      	mov	r1, r6
1a0022a2:	4816      	ldr	r0, [pc, #88]	; (1a0022fc <create_name+0x248>)
1a0022a4:	f7fe fbf7 	bl	1a000a96 <chk_chr>
1a0022a8:	2800      	cmp	r0, #0
1a0022aa:	d1ee      	bne.n	1a00228a <create_name+0x1d6>
				if (IsUpper(wc)) {		/* ASCII upper case? */
1a0022ac:	f1a6 0341 	sub.w	r3, r6, #65	; 0x41
1a0022b0:	b29b      	uxth	r3, r3
1a0022b2:	2b19      	cmp	r3, #25
1a0022b4:	d801      	bhi.n	1a0022ba <create_name+0x206>
					b |= 2;
1a0022b6:	f04a 0a02 	orr.w	sl, sl, #2
				if (IsLower(wc)) {		/* ASCII lower case? */
1a0022ba:	f1a6 0361 	sub.w	r3, r6, #97	; 0x61
1a0022be:	b29b      	uxth	r3, r3
1a0022c0:	2b19      	cmp	r3, #25
1a0022c2:	d805      	bhi.n	1a0022d0 <create_name+0x21c>
					b |= 1; wc -= 0x20;
1a0022c4:	f04a 0a01 	orr.w	sl, sl, #1
1a0022c8:	3e20      	subs	r6, #32
1a0022ca:	b2b6      	uxth	r6, r6
1a0022cc:	9b01      	ldr	r3, [sp, #4]
1a0022ce:	e7e0      	b.n	1a002292 <create_name+0x1de>
1a0022d0:	9b01      	ldr	r3, [sp, #4]
1a0022d2:	e7de      	b.n	1a002292 <create_name+0x1de>
	if (dp->fn[0] == DDEM) dp->fn[0] = RDDEM;	/* If the first character collides with DDEM, replace it with RDDEM */
1a0022d4:	2305      	movs	r3, #5
1a0022d6:	f887 3040 	strb.w	r3, [r7, #64]	; 0x40
1a0022da:	e792      	b.n	1a002202 <create_name+0x14e>
	if (ni == 8) b <<= 2;				/* Shift capital flags if no extension */
1a0022dc:	ea4f 0a8a 	mov.w	sl, sl, lsl #2
1a0022e0:	fa5f fa8a 	uxtb.w	sl, sl
1a0022e4:	e790      	b.n	1a002208 <create_name+0x154>
		if (uc == 0xFFFFFFFF) return FR_INVALID_NAME;		/* Invalid code or UTF decode error */
1a0022e6:	2006      	movs	r0, #6
1a0022e8:	e7a8      	b.n	1a00223c <create_name+0x188>
		if (di >= FF_MAX_LFN) return FR_INVALID_NAME;	/* Reject too long name */
1a0022ea:	2006      	movs	r0, #6
1a0022ec:	e7a6      	b.n	1a00223c <create_name+0x188>
	if (di == 0) return FR_INVALID_NAME;	/* Reject null name */
1a0022ee:	2006      	movs	r0, #6
1a0022f0:	e7a4      	b.n	1a00223c <create_name+0x188>
1a0022f2:	bf00      	nop
1a0022f4:	1a006d10 	.word	0x1a006d10
1a0022f8:	1a006d2c 	.word	0x1a006d2c
1a0022fc:	1a006d1c 	.word	0x1a006d1c

1a002300 <xname_sum>:
{
1a002300:	b538      	push	{r3, r4, r5, lr}
1a002302:	4604      	mov	r4, r0
	WORD sum = 0;
1a002304:	2500      	movs	r5, #0
	while ((chr = *name++) != 0) {
1a002306:	f834 0b02 	ldrh.w	r0, [r4], #2
1a00230a:	b190      	cbz	r0, 1a002332 <xname_sum+0x32>
		chr = (WCHAR)ff_wtoupper(chr);		/* File name needs to be up-case converted */
1a00230c:	f001 f848 	bl	1a0033a0 <ff_wtoupper>
		sum = ((sum & 1) ? 0x8000 : 0) + (sum >> 1) + (chr & 0xFF);
1a002310:	086b      	lsrs	r3, r5, #1
1a002312:	eb03 33c5 	add.w	r3, r3, r5, lsl #15
1a002316:	b2c2      	uxtb	r2, r0
1a002318:	fa12 f383 	uxtah	r3, r2, r3
1a00231c:	b29a      	uxth	r2, r3
		sum = ((sum & 1) ? 0x8000 : 0) + (sum >> 1) + (chr >> 8);
1a00231e:	f3c3 034e 	ubfx	r3, r3, #1, #15
1a002322:	eb03 33c2 	add.w	r3, r3, r2, lsl #15
1a002326:	f3c0 2007 	ubfx	r0, r0, #8, #8
1a00232a:	fa10 f383 	uxtah	r3, r0, r3
1a00232e:	b29d      	uxth	r5, r3
1a002330:	e7e9      	b.n	1a002306 <xname_sum+0x6>
}
1a002332:	4628      	mov	r0, r5
1a002334:	bd38      	pop	{r3, r4, r5, pc}

1a002336 <create_xdir>:
{
1a002336:	e92d 43f8 	stmdb	sp!, {r3, r4, r5, r6, r7, r8, r9, lr}
1a00233a:	4607      	mov	r7, r0
1a00233c:	4688      	mov	r8, r1
	mem_set(dirb, 0, 2 * SZDIRE);
1a00233e:	2240      	movs	r2, #64	; 0x40
1a002340:	2100      	movs	r1, #0
1a002342:	f7fe fb95 	bl	1a000a70 <mem_set>
	dirb[0 * SZDIRE + XDIR_Type] = 0x85;	/* 85 entry */
1a002346:	2385      	movs	r3, #133	; 0x85
1a002348:	703b      	strb	r3, [r7, #0]
	dirb[1 * SZDIRE + XDIR_Type] = 0xC0;	/* C0 entry */
1a00234a:	23c0      	movs	r3, #192	; 0xc0
1a00234c:	f887 3020 	strb.w	r3, [r7, #32]
	nlen = nc1 = 0; wc = 1;
1a002350:	2501      	movs	r5, #1
1a002352:	2600      	movs	r6, #0
1a002354:	46b1      	mov	r9, r6
	i = SZDIRE * 2;	/* Top of C1 entries */
1a002356:	2440      	movs	r4, #64	; 0x40
1a002358:	e017      	b.n	1a00238a <create_xdir+0x54>
			st_word(dirb + i, wc); 		/* Store it */
1a00235a:	4629      	mov	r1, r5
1a00235c:	1938      	adds	r0, r7, r4
1a00235e:	f7fe fb5a 	bl	1a000a16 <st_word>
			i += 2;
1a002362:	3402      	adds	r4, #2
		} while (i % SZDIRE != 0);
1a002364:	f014 0f1f 	tst.w	r4, #31
1a002368:	d008      	beq.n	1a00237c <create_xdir+0x46>
			if (wc != 0 && (wc = lfn[nlen]) != 0) nlen++;	/* Get a character if exist */
1a00236a:	2d00      	cmp	r5, #0
1a00236c:	d0f5      	beq.n	1a00235a <create_xdir+0x24>
1a00236e:	f838 5016 	ldrh.w	r5, [r8, r6, lsl #1]
1a002372:	2d00      	cmp	r5, #0
1a002374:	d0f1      	beq.n	1a00235a <create_xdir+0x24>
1a002376:	3601      	adds	r6, #1
1a002378:	b2f6      	uxtb	r6, r6
1a00237a:	e7ee      	b.n	1a00235a <create_xdir+0x24>
		nc1++;
1a00237c:	f109 0301 	add.w	r3, r9, #1
1a002380:	b2db      	uxtb	r3, r3
	} while (lfn[nlen]);	/* Fill next entry if any char follows */
1a002382:	f838 2016 	ldrh.w	r2, [r8, r6, lsl #1]
1a002386:	b13a      	cbz	r2, 1a002398 <create_xdir+0x62>
		nc1++;
1a002388:	4699      	mov	r9, r3
		dirb[i++] = 0xC1; dirb[i++] = 0;	/* Entry type C1 */
1a00238a:	1c63      	adds	r3, r4, #1
1a00238c:	22c1      	movs	r2, #193	; 0xc1
1a00238e:	553a      	strb	r2, [r7, r4]
1a002390:	2200      	movs	r2, #0
1a002392:	54fa      	strb	r2, [r7, r3]
1a002394:	3402      	adds	r4, #2
1a002396:	e7e8      	b.n	1a00236a <create_xdir+0x34>
	dirb[XDIR_NumName] = nlen;		/* Set name length */
1a002398:	f887 6023 	strb.w	r6, [r7, #35]	; 0x23
	dirb[XDIR_NumSec] = 1 + nc1;	/* Set secondary count (C0 + C1s) */
1a00239c:	f109 0902 	add.w	r9, r9, #2
1a0023a0:	f887 9001 	strb.w	r9, [r7, #1]
	st_word(dirb + XDIR_NameHash, xname_sum(lfn));	/* Set name hash */
1a0023a4:	4640      	mov	r0, r8
1a0023a6:	f7ff ffab 	bl	1a002300 <xname_sum>
1a0023aa:	4601      	mov	r1, r0
1a0023ac:	f107 0024 	add.w	r0, r7, #36	; 0x24
1a0023b0:	f7fe fb31 	bl	1a000a16 <st_word>
}
1a0023b4:	e8bd 83f8 	ldmia.w	sp!, {r3, r4, r5, r6, r7, r8, r9, pc}

1a0023b8 <cmp_lfn>:
{
1a0023b8:	e92d 47f0 	stmdb	sp!, {r4, r5, r6, r7, r8, r9, sl, lr}
1a0023bc:	4681      	mov	r9, r0
1a0023be:	460f      	mov	r7, r1
	if (ld_word(dir + LDIR_FstClusLO) != 0) return 0;	/* Check LDIR_FstClusLO */
1a0023c0:	f101 001a 	add.w	r0, r1, #26
1a0023c4:	f7fe faf0 	bl	1a0009a8 <ld_word>
1a0023c8:	bbc8      	cbnz	r0, 1a00243e <cmp_lfn+0x86>
	i = ((dir[LDIR_Ord] & 0x3F) - 1) * 13;	/* Offset in the LFN buffer */
1a0023ca:	783e      	ldrb	r6, [r7, #0]
1a0023cc:	f006 063f 	and.w	r6, r6, #63	; 0x3f
1a0023d0:	3e01      	subs	r6, #1
1a0023d2:	eb06 0346 	add.w	r3, r6, r6, lsl #1
1a0023d6:	eb06 0683 	add.w	r6, r6, r3, lsl #2
	for (wc = 1, s = 0; s < 13; s++) {		/* Process all characters in the entry */
1a0023da:	f04f 0801 	mov.w	r8, #1
1a0023de:	2500      	movs	r5, #0
1a0023e0:	e006      	b.n	1a0023f0 <cmp_lfn+0x38>
				return 0;					/* Not matched */
1a0023e2:	2000      	movs	r0, #0
1a0023e4:	e02c      	b.n	1a002440 <cmp_lfn+0x88>
			if (uc != 0xFFFF) return 0;		/* Check filler */
1a0023e6:	f64f 73ff 	movw	r3, #65535	; 0xffff
1a0023ea:	4298      	cmp	r0, r3
1a0023ec:	d12a      	bne.n	1a002444 <cmp_lfn+0x8c>
	for (wc = 1, s = 0; s < 13; s++) {		/* Process all characters in the entry */
1a0023ee:	3501      	adds	r5, #1
1a0023f0:	2d0c      	cmp	r5, #12
1a0023f2:	d818      	bhi.n	1a002426 <cmp_lfn+0x6e>
		uc = ld_word(dir + LfnOfs[s]);		/* Pick an LFN character */
1a0023f4:	4b17      	ldr	r3, [pc, #92]	; (1a002454 <cmp_lfn+0x9c>)
1a0023f6:	5d58      	ldrb	r0, [r3, r5]
1a0023f8:	4438      	add	r0, r7
1a0023fa:	f7fe fad5 	bl	1a0009a8 <ld_word>
1a0023fe:	4604      	mov	r4, r0
		if (wc != 0) {
1a002400:	f1b8 0f00 	cmp.w	r8, #0
1a002404:	d0ef      	beq.n	1a0023e6 <cmp_lfn+0x2e>
			if (i >= FF_MAX_LFN || ff_wtoupper(uc) != ff_wtoupper(lfnbuf[i++])) {	/* Compare it */
1a002406:	2efe      	cmp	r6, #254	; 0xfe
1a002408:	d8eb      	bhi.n	1a0023e2 <cmp_lfn+0x2a>
1a00240a:	f000 ffc9 	bl	1a0033a0 <ff_wtoupper>
1a00240e:	4680      	mov	r8, r0
1a002410:	f106 0a01 	add.w	sl, r6, #1
1a002414:	f839 0016 	ldrh.w	r0, [r9, r6, lsl #1]
1a002418:	f000 ffc2 	bl	1a0033a0 <ff_wtoupper>
1a00241c:	4580      	cmp	r8, r0
1a00241e:	d1e0      	bne.n	1a0023e2 <cmp_lfn+0x2a>
			wc = uc;
1a002420:	46a0      	mov	r8, r4
			if (i >= FF_MAX_LFN || ff_wtoupper(uc) != ff_wtoupper(lfnbuf[i++])) {	/* Compare it */
1a002422:	4656      	mov	r6, sl
1a002424:	e7e3      	b.n	1a0023ee <cmp_lfn+0x36>
	if ((dir[LDIR_Ord] & LLEF) && wc && lfnbuf[i]) return 0;	/* Last segment matched but different length */
1a002426:	783b      	ldrb	r3, [r7, #0]
1a002428:	f013 0f40 	tst.w	r3, #64	; 0x40
1a00242c:	d00c      	beq.n	1a002448 <cmp_lfn+0x90>
1a00242e:	f1b8 0f00 	cmp.w	r8, #0
1a002432:	d00b      	beq.n	1a00244c <cmp_lfn+0x94>
1a002434:	f839 3016 	ldrh.w	r3, [r9, r6, lsl #1]
1a002438:	b953      	cbnz	r3, 1a002450 <cmp_lfn+0x98>
	return 1;		/* The part of LFN matched */
1a00243a:	2001      	movs	r0, #1
1a00243c:	e000      	b.n	1a002440 <cmp_lfn+0x88>
	if (ld_word(dir + LDIR_FstClusLO) != 0) return 0;	/* Check LDIR_FstClusLO */
1a00243e:	2000      	movs	r0, #0
}
1a002440:	e8bd 87f0 	ldmia.w	sp!, {r4, r5, r6, r7, r8, r9, sl, pc}
			if (uc != 0xFFFF) return 0;		/* Check filler */
1a002444:	2000      	movs	r0, #0
1a002446:	e7fb      	b.n	1a002440 <cmp_lfn+0x88>
	return 1;		/* The part of LFN matched */
1a002448:	2001      	movs	r0, #1
1a00244a:	e7f9      	b.n	1a002440 <cmp_lfn+0x88>
1a00244c:	2001      	movs	r0, #1
1a00244e:	e7f7      	b.n	1a002440 <cmp_lfn+0x88>
	if ((dir[LDIR_Ord] & LLEF) && wc && lfnbuf[i]) return 0;	/* Last segment matched but different length */
1a002450:	2000      	movs	r0, #0
1a002452:	e7f5      	b.n	1a002440 <cmp_lfn+0x88>
1a002454:	1a006dac 	.word	0x1a006dac

1a002458 <dir_find>:
{
1a002458:	e92d 4ff8 	stmdb	sp!, {r3, r4, r5, r6, r7, r8, r9, sl, fp, lr}
1a00245c:	4604      	mov	r4, r0
	FATFS *fs = dp->obj.fs;
1a00245e:	6807      	ldr	r7, [r0, #0]
	res = dir_sdi(dp, 0);			/* Rewind directory object */
1a002460:	2100      	movs	r1, #0
1a002462:	f7ff fa21 	bl	1a0018a8 <dir_sdi>
	if (res != FR_OK) return res;
1a002466:	4606      	mov	r6, r0
1a002468:	2800      	cmp	r0, #0
1a00246a:	f040 80ab 	bne.w	1a0025c4 <dir_find+0x16c>
	if (fs->fs_type == FS_EXFAT) {	/* On the exFAT volume */
1a00246e:	783b      	ldrb	r3, [r7, #0]
1a002470:	2b04      	cmp	r3, #4
1a002472:	d006      	beq.n	1a002482 <dir_find+0x2a>
	ord = sum = 0xFF; dp->blk_ofs = 0xFFFFFFFF;	/* Reset LFN sequence */
1a002474:	f04f 33ff 	mov.w	r3, #4294967295	; 0xffffffff
1a002478:	64e3      	str	r3, [r4, #76]	; 0x4c
1a00247a:	f04f 09ff 	mov.w	r9, #255	; 0xff
1a00247e:	46c8      	mov	r8, r9
1a002480:	e046      	b.n	1a002510 <dir_find+0xb8>
		WORD hash = xname_sum(fs->lfnbuf);		/* Hash value of the name to find */
1a002482:	68f8      	ldr	r0, [r7, #12]
1a002484:	f7ff ff3c 	bl	1a002300 <xname_sum>
1a002488:	4683      	mov	fp, r0
		while ((res = dir_read_file(dp)) == FR_OK) {	/* Read an item */
1a00248a:	e020      	b.n	1a0024ce <dir_find+0x76>
				if (ff_wtoupper(ld_word(fs->dirbuf + di)) != ff_wtoupper(fs->lfnbuf[ni])) break;
1a00248c:	6938      	ldr	r0, [r7, #16]
1a00248e:	4440      	add	r0, r8
1a002490:	f7fe fa8a 	bl	1a0009a8 <ld_word>
1a002494:	f000 ff84 	bl	1a0033a0 <ff_wtoupper>
1a002498:	4681      	mov	r9, r0
1a00249a:	68fb      	ldr	r3, [r7, #12]
1a00249c:	f833 001a 	ldrh.w	r0, [r3, sl, lsl #1]
1a0024a0:	f000 ff7e 	bl	1a0033a0 <ff_wtoupper>
1a0024a4:	4581      	cmp	r9, r0
1a0024a6:	d10c      	bne.n	1a0024c2 <dir_find+0x6a>
			for (nc = fs->dirbuf[XDIR_NumName], di = SZDIRE * 2, ni = 0; nc; nc--, di += 2, ni++) {	/* Compare the name */
1a0024a8:	3d01      	subs	r5, #1
1a0024aa:	b2ed      	uxtb	r5, r5
1a0024ac:	f108 0802 	add.w	r8, r8, #2
1a0024b0:	f10a 0a01 	add.w	sl, sl, #1
1a0024b4:	b12d      	cbz	r5, 1a0024c2 <dir_find+0x6a>
				if ((di % SZDIRE) == 0) di += 2;
1a0024b6:	f018 0f1f 	tst.w	r8, #31
1a0024ba:	d1e7      	bne.n	1a00248c <dir_find+0x34>
1a0024bc:	f108 0802 	add.w	r8, r8, #2
1a0024c0:	e7e4      	b.n	1a00248c <dir_find+0x34>
			if (nc == 0 && !fs->lfnbuf[ni]) break;	/* Name matched? */
1a0024c2:	b925      	cbnz	r5, 1a0024ce <dir_find+0x76>
1a0024c4:	68fb      	ldr	r3, [r7, #12]
1a0024c6:	f833 301a 	ldrh.w	r3, [r3, sl, lsl #1]
1a0024ca:	2b00      	cmp	r3, #0
1a0024cc:	d07a      	beq.n	1a0025c4 <dir_find+0x16c>
		while ((res = dir_read_file(dp)) == FR_OK) {	/* Read an item */
1a0024ce:	2100      	movs	r1, #0
1a0024d0:	4620      	mov	r0, r4
1a0024d2:	f7ff fd15 	bl	1a001f00 <dir_read>
1a0024d6:	4606      	mov	r6, r0
1a0024d8:	2800      	cmp	r0, #0
1a0024da:	d173      	bne.n	1a0025c4 <dir_find+0x16c>
			if (ld_word(fs->dirbuf + XDIR_NameHash) != hash) continue;	/* Skip comparison if hash mismatched */
1a0024dc:	693d      	ldr	r5, [r7, #16]
1a0024de:	f105 0024 	add.w	r0, r5, #36	; 0x24
1a0024e2:	f7fe fa61 	bl	1a0009a8 <ld_word>
1a0024e6:	4558      	cmp	r0, fp
1a0024e8:	d1f1      	bne.n	1a0024ce <dir_find+0x76>
			for (nc = fs->dirbuf[XDIR_NumName], di = SZDIRE * 2, ni = 0; nc; nc--, di += 2, ni++) {	/* Compare the name */
1a0024ea:	f895 5023 	ldrb.w	r5, [r5, #35]	; 0x23
1a0024ee:	f04f 0a00 	mov.w	sl, #0
1a0024f2:	f04f 0840 	mov.w	r8, #64	; 0x40
1a0024f6:	e7dd      	b.n	1a0024b4 <dir_find+0x5c>
			ord = 0xFF; dp->blk_ofs = 0xFFFFFFFF;	/* Reset LFN sequence */
1a0024f8:	f04f 33ff 	mov.w	r3, #4294967295	; 0xffffffff
1a0024fc:	64e3      	str	r3, [r4, #76]	; 0x4c
1a0024fe:	f04f 08ff 	mov.w	r8, #255	; 0xff
		res = dir_next(dp, 0);	/* Next entry */
1a002502:	2100      	movs	r1, #0
1a002504:	4620      	mov	r0, r4
1a002506:	f7ff fbf1 	bl	1a001cec <dir_next>
	} while (res == FR_OK);
1a00250a:	4606      	mov	r6, r0
1a00250c:	2800      	cmp	r0, #0
1a00250e:	d159      	bne.n	1a0025c4 <dir_find+0x16c>
		res = move_window(fs, dp->sect);
1a002510:	6ba1      	ldr	r1, [r4, #56]	; 0x38
1a002512:	4638      	mov	r0, r7
1a002514:	f7fe fd0e 	bl	1a000f34 <move_window>
		if (res != FR_OK) break;
1a002518:	4606      	mov	r6, r0
1a00251a:	2800      	cmp	r0, #0
1a00251c:	d152      	bne.n	1a0025c4 <dir_find+0x16c>
		c = dp->dir[DIR_Name];
1a00251e:	6be5      	ldr	r5, [r4, #60]	; 0x3c
1a002520:	782b      	ldrb	r3, [r5, #0]
		if (c == 0) { res = FR_NO_FILE; break; }	/* Reached to end of table */
1a002522:	2b00      	cmp	r3, #0
1a002524:	d04d      	beq.n	1a0025c2 <dir_find+0x16a>
		dp->obj.attr = a = dp->dir[DIR_Attr] & AM_MASK;
1a002526:	7ae9      	ldrb	r1, [r5, #11]
1a002528:	f001 023f 	and.w	r2, r1, #63	; 0x3f
1a00252c:	71a2      	strb	r2, [r4, #6]
		if (c == DDEM || ((a & AM_VOL) && a != AM_LFN)) {	/* An entry without valid data */
1a00252e:	2be5      	cmp	r3, #229	; 0xe5
1a002530:	d0e2      	beq.n	1a0024f8 <dir_find+0xa0>
1a002532:	f011 0f08 	tst.w	r1, #8
1a002536:	d001      	beq.n	1a00253c <dir_find+0xe4>
1a002538:	2a0f      	cmp	r2, #15
1a00253a:	d1dd      	bne.n	1a0024f8 <dir_find+0xa0>
			if (a == AM_LFN) {			/* An LFN entry is found */
1a00253c:	2a0f      	cmp	r2, #15
1a00253e:	d019      	beq.n	1a002574 <dir_find+0x11c>
				if (ord == 0 && sum == sum_sfn(dp->dir)) break;	/* LFN matched? */
1a002540:	f1b8 0f00 	cmp.w	r8, #0
1a002544:	d104      	bne.n	1a002550 <dir_find+0xf8>
1a002546:	4628      	mov	r0, r5
1a002548:	f7fe fc15 	bl	1a000d76 <sum_sfn>
1a00254c:	4548      	cmp	r0, r9
1a00254e:	d039      	beq.n	1a0025c4 <dir_find+0x16c>
				if (!(dp->fn[NSFLAG] & NS_LOSS) && !mem_cmp(dp->dir, dp->fn, 11)) break;	/* SFN matched? */
1a002550:	f894 304b 	ldrb.w	r3, [r4, #75]	; 0x4b
1a002554:	f013 0f01 	tst.w	r3, #1
1a002558:	d106      	bne.n	1a002568 <dir_find+0x110>
1a00255a:	220b      	movs	r2, #11
1a00255c:	f104 0140 	add.w	r1, r4, #64	; 0x40
1a002560:	4628      	mov	r0, r5
1a002562:	f7fe fa8a 	bl	1a000a7a <mem_cmp>
1a002566:	b368      	cbz	r0, 1a0025c4 <dir_find+0x16c>
				ord = 0xFF; dp->blk_ofs = 0xFFFFFFFF;	/* Reset LFN sequence */
1a002568:	f04f 33ff 	mov.w	r3, #4294967295	; 0xffffffff
1a00256c:	64e3      	str	r3, [r4, #76]	; 0x4c
1a00256e:	f04f 08ff 	mov.w	r8, #255	; 0xff
1a002572:	e7c6      	b.n	1a002502 <dir_find+0xaa>
				if (!(dp->fn[NSFLAG] & NS_NOLFN)) {
1a002574:	f894 204b 	ldrb.w	r2, [r4, #75]	; 0x4b
1a002578:	f012 0f40 	tst.w	r2, #64	; 0x40
1a00257c:	d1c1      	bne.n	1a002502 <dir_find+0xaa>
					if (c & LLEF) {		/* Is it start of LFN sequence? */
1a00257e:	f013 0f40 	tst.w	r3, #64	; 0x40
1a002582:	d006      	beq.n	1a002592 <dir_find+0x13a>
						sum = dp->dir[LDIR_Chksum];
1a002584:	f895 900d 	ldrb.w	r9, [r5, #13]
						c &= (BYTE)~LLEF; ord = c;	/* LFN start order */
1a002588:	f003 03bf 	and.w	r3, r3, #191	; 0xbf
						dp->blk_ofs = dp->dptr;	/* Start offset of LFN */
1a00258c:	6b22      	ldr	r2, [r4, #48]	; 0x30
1a00258e:	64e2      	str	r2, [r4, #76]	; 0x4c
						c &= (BYTE)~LLEF; ord = c;	/* LFN start order */
1a002590:	4698      	mov	r8, r3
					ord = (c == ord && sum == dp->dir[LDIR_Chksum] && cmp_lfn(fs->lfnbuf, dp->dir)) ? ord - 1 : 0xFF;
1a002592:	4543      	cmp	r3, r8
1a002594:	d002      	beq.n	1a00259c <dir_find+0x144>
1a002596:	f04f 08ff 	mov.w	r8, #255	; 0xff
1a00259a:	e7b2      	b.n	1a002502 <dir_find+0xaa>
1a00259c:	7b6b      	ldrb	r3, [r5, #13]
1a00259e:	454b      	cmp	r3, r9
1a0025a0:	d002      	beq.n	1a0025a8 <dir_find+0x150>
1a0025a2:	f04f 08ff 	mov.w	r8, #255	; 0xff
1a0025a6:	e7ac      	b.n	1a002502 <dir_find+0xaa>
1a0025a8:	4629      	mov	r1, r5
1a0025aa:	68f8      	ldr	r0, [r7, #12]
1a0025ac:	f7ff ff04 	bl	1a0023b8 <cmp_lfn>
1a0025b0:	b120      	cbz	r0, 1a0025bc <dir_find+0x164>
1a0025b2:	f108 38ff 	add.w	r8, r8, #4294967295	; 0xffffffff
1a0025b6:	fa5f f888 	uxtb.w	r8, r8
1a0025ba:	e7a2      	b.n	1a002502 <dir_find+0xaa>
1a0025bc:	f04f 08ff 	mov.w	r8, #255	; 0xff
1a0025c0:	e79f      	b.n	1a002502 <dir_find+0xaa>
		if (c == 0) { res = FR_NO_FILE; break; }	/* Reached to end of table */
1a0025c2:	2604      	movs	r6, #4
}
1a0025c4:	4630      	mov	r0, r6
1a0025c6:	e8bd 8ff8 	ldmia.w	sp!, {r3, r4, r5, r6, r7, r8, r9, sl, fp, pc}

1a0025ca <follow_path>:
{
1a0025ca:	b530      	push	{r4, r5, lr}
1a0025cc:	b083      	sub	sp, #12
1a0025ce:	4604      	mov	r4, r0
1a0025d0:	9101      	str	r1, [sp, #4]
	FATFS *fs = dp->obj.fs;
1a0025d2:	6805      	ldr	r5, [r0, #0]
		while (*path == '/' || *path == '\\') path++;	/* Strip heading separator */
1a0025d4:	e001      	b.n	1a0025da <follow_path+0x10>
1a0025d6:	3301      	adds	r3, #1
1a0025d8:	9301      	str	r3, [sp, #4]
1a0025da:	9b01      	ldr	r3, [sp, #4]
1a0025dc:	781a      	ldrb	r2, [r3, #0]
1a0025de:	2a2f      	cmp	r2, #47	; 0x2f
1a0025e0:	d0f9      	beq.n	1a0025d6 <follow_path+0xc>
1a0025e2:	2a5c      	cmp	r2, #92	; 0x5c
1a0025e4:	d0f7      	beq.n	1a0025d6 <follow_path+0xc>
		dp->obj.sclust = 0;					/* Start from root directory */
1a0025e6:	2200      	movs	r2, #0
1a0025e8:	60a2      	str	r2, [r4, #8]
	dp->obj.n_frag = 0;	/* Invalidate last fragment counter of the object */
1a0025ea:	61e2      	str	r2, [r4, #28]
	if ((UINT)*path < ' ') {				/* Null path name is the origin directory itself */
1a0025ec:	781b      	ldrb	r3, [r3, #0]
1a0025ee:	2b1f      	cmp	r3, #31
1a0025f0:	d81f      	bhi.n	1a002632 <follow_path+0x68>
		dp->fn[NSFLAG] = NS_NONAME;
1a0025f2:	2380      	movs	r3, #128	; 0x80
1a0025f4:	f884 304b 	strb.w	r3, [r4, #75]	; 0x4b
		res = dir_sdi(dp, 0);
1a0025f8:	4611      	mov	r1, r2
1a0025fa:	4620      	mov	r0, r4
1a0025fc:	f7ff f954 	bl	1a0018a8 <dir_sdi>
1a002600:	4603      	mov	r3, r0
}
1a002602:	4618      	mov	r0, r3
1a002604:	b003      	add	sp, #12
1a002606:	bd30      	pop	{r4, r5, pc}
				if (res == FR_NO_FILE) {	/* Object is not found */
1a002608:	2804      	cmp	r0, #4
1a00260a:	d1fa      	bne.n	1a002602 <follow_path+0x38>
						if (!(ns & NS_LAST)) res = FR_NO_PATH;	/* Adjust error code if not last segment */
1a00260c:	f012 0f04 	tst.w	r2, #4
1a002610:	d1f7      	bne.n	1a002602 <follow_path+0x38>
1a002612:	2305      	movs	r3, #5
1a002614:	e7f5      	b.n	1a002602 <follow_path+0x38>
				dp->obj.c_scl = dp->obj.sclust;
1a002616:	68a3      	ldr	r3, [r4, #8]
1a002618:	6223      	str	r3, [r4, #32]
				dp->obj.c_size = ((DWORD)dp->obj.objsize & 0xFFFFFF00) | dp->obj.stat;
1a00261a:	6923      	ldr	r3, [r4, #16]
1a00261c:	f023 03ff 	bic.w	r3, r3, #255	; 0xff
1a002620:	79e2      	ldrb	r2, [r4, #7]
1a002622:	4313      	orrs	r3, r2
1a002624:	6263      	str	r3, [r4, #36]	; 0x24
				dp->obj.c_ofs = dp->blk_ofs;
1a002626:	6ce3      	ldr	r3, [r4, #76]	; 0x4c
1a002628:	62a3      	str	r3, [r4, #40]	; 0x28
				init_alloc_info(fs, &dp->obj);	/* Open next directory */
1a00262a:	4621      	mov	r1, r4
1a00262c:	4628      	mov	r0, r5
1a00262e:	f7fe fbcb 	bl	1a000dc8 <init_alloc_info>
			res = create_name(dp, &path);	/* Get a segment name of the path */
1a002632:	a901      	add	r1, sp, #4
1a002634:	4620      	mov	r0, r4
1a002636:	f7ff fd3d 	bl	1a0020b4 <create_name>
			if (res != FR_OK) break;
1a00263a:	4603      	mov	r3, r0
1a00263c:	2800      	cmp	r0, #0
1a00263e:	d1e0      	bne.n	1a002602 <follow_path+0x38>
			res = dir_find(dp);				/* Find an object with the segment name */
1a002640:	4620      	mov	r0, r4
1a002642:	f7ff ff09 	bl	1a002458 <dir_find>
			ns = dp->fn[NSFLAG];
1a002646:	f894 204b 	ldrb.w	r2, [r4, #75]	; 0x4b
			if (res != FR_OK) {				/* Failed to find the object */
1a00264a:	4603      	mov	r3, r0
1a00264c:	2800      	cmp	r0, #0
1a00264e:	d1db      	bne.n	1a002608 <follow_path+0x3e>
			if (ns & NS_LAST) break;			/* Last segment matched. Function completed. */
1a002650:	f012 0f04 	tst.w	r2, #4
1a002654:	d1d5      	bne.n	1a002602 <follow_path+0x38>
			if (!(dp->obj.attr & AM_DIR)) {		/* It is not a sub-directory and cannot follow */
1a002656:	79a3      	ldrb	r3, [r4, #6]
1a002658:	f013 0f10 	tst.w	r3, #16
1a00265c:	d00d      	beq.n	1a00267a <follow_path+0xb0>
			if (fs->fs_type == FS_EXFAT) {		/* Save containing directory information for next dir */
1a00265e:	782b      	ldrb	r3, [r5, #0]
1a002660:	2b04      	cmp	r3, #4
1a002662:	d0d8      	beq.n	1a002616 <follow_path+0x4c>
				dp->obj.sclust = ld_clust(fs, fs->win + dp->dptr % SS(fs));	/* Open next directory */
1a002664:	f105 0138 	add.w	r1, r5, #56	; 0x38
1a002668:	6b23      	ldr	r3, [r4, #48]	; 0x30
1a00266a:	f3c3 0308 	ubfx	r3, r3, #0, #9
1a00266e:	4419      	add	r1, r3
1a002670:	4628      	mov	r0, r5
1a002672:	f7fe fa83 	bl	1a000b7c <ld_clust>
1a002676:	60a0      	str	r0, [r4, #8]
1a002678:	e7db      	b.n	1a002632 <follow_path+0x68>
				res = FR_NO_PATH; break;
1a00267a:	2305      	movs	r3, #5
1a00267c:	e7c1      	b.n	1a002602 <follow_path+0x38>
1a00267e:	Address 0x000000001a00267e is out of bounds.


1a002680 <dir_register>:
{
1a002680:	e92d 43f0 	stmdb	sp!, {r4, r5, r6, r7, r8, r9, lr}
1a002684:	b099      	sub	sp, #100	; 0x64
	FATFS *fs = dp->obj.fs;
1a002686:	6805      	ldr	r5, [r0, #0]
	if (dp->fn[NSFLAG] & (NS_DOT | NS_NONAME)) return FR_INVALID_NAME;	/* Check name validity */
1a002688:	f890 304b 	ldrb.w	r3, [r0, #75]	; 0x4b
1a00268c:	f013 0fa0 	tst.w	r3, #160	; 0xa0
1a002690:	f040 80eb 	bne.w	1a00286a <dir_register+0x1ea>
1a002694:	4606      	mov	r6, r0
	for (nlen = 0; fs->lfnbuf[nlen]; nlen++) ;	/* Get lfn length */
1a002696:	2400      	movs	r4, #0
1a002698:	e000      	b.n	1a00269c <dir_register+0x1c>
1a00269a:	3401      	adds	r4, #1
1a00269c:	68eb      	ldr	r3, [r5, #12]
1a00269e:	f833 3014 	ldrh.w	r3, [r3, r4, lsl #1]
1a0026a2:	2b00      	cmp	r3, #0
1a0026a4:	d1f9      	bne.n	1a00269a <dir_register+0x1a>
	if (fs->fs_type == FS_EXFAT) {	/* On the exFAT volume */
1a0026a6:	782b      	ldrb	r3, [r5, #0]
1a0026a8:	2b04      	cmp	r3, #4
1a0026aa:	d022      	beq.n	1a0026f2 <dir_register+0x72>
	mem_cpy(sn, dp->fn, 12);
1a0026ac:	f106 0740 	add.w	r7, r6, #64	; 0x40
1a0026b0:	220c      	movs	r2, #12
1a0026b2:	4639      	mov	r1, r7
1a0026b4:	a815      	add	r0, sp, #84	; 0x54
1a0026b6:	f7fe f9cf 	bl	1a000a58 <mem_cpy>
	if (sn[NSFLAG] & NS_LOSS) {			/* When LFN is out of 8.3 format, generate a numbered name */
1a0026ba:	f89d 305f 	ldrb.w	r3, [sp, #95]	; 0x5f
1a0026be:	f013 0f01 	tst.w	r3, #1
1a0026c2:	d076      	beq.n	1a0027b2 <dir_register+0x132>
		dp->fn[NSFLAG] = NS_NOLFN;		/* Find only SFN */
1a0026c4:	2340      	movs	r3, #64	; 0x40
1a0026c6:	f886 304b 	strb.w	r3, [r6, #75]	; 0x4b
		for (n = 1; n < 100; n++) {
1a0026ca:	f04f 0801 	mov.w	r8, #1
1a0026ce:	f1b8 0f63 	cmp.w	r8, #99	; 0x63
1a0026d2:	d864      	bhi.n	1a00279e <dir_register+0x11e>
			gen_numname(dp->fn, sn, fs->lfnbuf, n);	/* Generate a numbered name */
1a0026d4:	4643      	mov	r3, r8
1a0026d6:	68ea      	ldr	r2, [r5, #12]
1a0026d8:	a915      	add	r1, sp, #84	; 0x54
1a0026da:	4638      	mov	r0, r7
1a0026dc:	f7fe faf0 	bl	1a000cc0 <gen_numname>
			res = dir_find(dp);				/* Check if the name collides with existing SFN */
1a0026e0:	4630      	mov	r0, r6
1a0026e2:	f7ff feb9 	bl	1a002458 <dir_find>
			if (res != FR_OK) break;
1a0026e6:	4681      	mov	r9, r0
1a0026e8:	2800      	cmp	r0, #0
1a0026ea:	d158      	bne.n	1a00279e <dir_register+0x11e>
		for (n = 1; n < 100; n++) {
1a0026ec:	f108 0801 	add.w	r8, r8, #1
1a0026f0:	e7ed      	b.n	1a0026ce <dir_register+0x4e>
		nent = (nlen + 14) / 15 + 2;	/* Number of entries to allocate (85+C0+C1s) */
1a0026f2:	340e      	adds	r4, #14
1a0026f4:	4b61      	ldr	r3, [pc, #388]	; (1a00287c <dir_register+0x1fc>)
1a0026f6:	fba3 3404 	umull	r3, r4, r3, r4
1a0026fa:	08e4      	lsrs	r4, r4, #3
		res = dir_alloc(dp, nent);		/* Allocate entries */
1a0026fc:	1ca1      	adds	r1, r4, #2
1a0026fe:	4630      	mov	r0, r6
1a002700:	f7ff fc73 	bl	1a001fea <dir_alloc>
		if (res != FR_OK) return res;
1a002704:	4681      	mov	r9, r0
1a002706:	2800      	cmp	r0, #0
1a002708:	d16b      	bne.n	1a0027e2 <dir_register+0x162>
		dp->blk_ofs = dp->dptr - SZDIRE * (nent - 1);	/* Set the allocated entry block offset */
1a00270a:	6b33      	ldr	r3, [r6, #48]	; 0x30
1a00270c:	3401      	adds	r4, #1
1a00270e:	eba3 1444 	sub.w	r4, r3, r4, lsl #5
1a002712:	64f4      	str	r4, [r6, #76]	; 0x4c
		if (dp->obj.stat & 4) {			/* Has the directory been stretched? */
1a002714:	79f3      	ldrb	r3, [r6, #7]
1a002716:	f013 0f04 	tst.w	r3, #4
1a00271a:	d013      	beq.n	1a002744 <dir_register+0xc4>
			dp->obj.stat &= ~4;
1a00271c:	f023 0304 	bic.w	r3, r3, #4
1a002720:	71f3      	strb	r3, [r6, #7]
			res = fill_first_frag(&dp->obj);	/* Fill the first fragment on the FAT if needed */
1a002722:	4630      	mov	r0, r6
1a002724:	f7fe fff0 	bl	1a001708 <fill_first_frag>
			if (res != FR_OK) return res;
1a002728:	b108      	cbz	r0, 1a00272e <dir_register+0xae>
1a00272a:	4681      	mov	r9, r0
1a00272c:	e059      	b.n	1a0027e2 <dir_register+0x162>
			res = fill_last_frag(&dp->obj, dp->clust, 0xFFFFFFFF);	/* Fill the last fragment on the FAT if needed */
1a00272e:	f04f 32ff 	mov.w	r2, #4294967295	; 0xffffffff
1a002732:	6b71      	ldr	r1, [r6, #52]	; 0x34
1a002734:	4630      	mov	r0, r6
1a002736:	f7fe ffcf 	bl	1a0016d8 <fill_last_frag>
			if (res != FR_OK) return res;
1a00273a:	2800      	cmp	r0, #0
1a00273c:	f040 8098 	bne.w	1a002870 <dir_register+0x1f0>
			if (dp->obj.sclust != 0) {		/* Is it a sub directory? */
1a002740:	68b3      	ldr	r3, [r6, #8]
1a002742:	b923      	cbnz	r3, 1a00274e <dir_register+0xce>
		create_xdir(fs->dirbuf, fs->lfnbuf);	/* Create on-memory directory block to be written later */
1a002744:	68e9      	ldr	r1, [r5, #12]
1a002746:	6928      	ldr	r0, [r5, #16]
1a002748:	f7ff fdf5 	bl	1a002336 <create_xdir>
		return FR_OK;
1a00274c:	e049      	b.n	1a0027e2 <dir_register+0x162>
				res = load_obj_xdir(&dj, &dp->obj);	/* Load the object status */
1a00274e:	4631      	mov	r1, r6
1a002750:	4668      	mov	r0, sp
1a002752:	f7ff fbbb 	bl	1a001ecc <load_obj_xdir>
				if (res != FR_OK) return res;
1a002756:	4603      	mov	r3, r0
1a002758:	b108      	cbz	r0, 1a00275e <dir_register+0xde>
1a00275a:	4699      	mov	r9, r3
1a00275c:	e041      	b.n	1a0027e2 <dir_register+0x162>
				dp->obj.objsize += (DWORD)fs->csize * SS(fs);			/* Increase the directory size by cluster size */
1a00275e:	8969      	ldrh	r1, [r5, #10]
1a002760:	0249      	lsls	r1, r1, #9
1a002762:	e9d6 2304 	ldrd	r2, r3, [r6, #16]
1a002766:	1852      	adds	r2, r2, r1
1a002768:	f143 0300 	adc.w	r3, r3, #0
1a00276c:	e9c6 2304 	strd	r2, r3, [r6, #16]
				st_qword(fs->dirbuf + XDIR_FileSize, dp->obj.objsize);	/* Update the allocation status */
1a002770:	6928      	ldr	r0, [r5, #16]
1a002772:	3038      	adds	r0, #56	; 0x38
1a002774:	f7fe f95d 	bl	1a000a32 <st_qword>
				st_qword(fs->dirbuf + XDIR_ValidFileSize, dp->obj.objsize);
1a002778:	6928      	ldr	r0, [r5, #16]
1a00277a:	e9d6 2304 	ldrd	r2, r3, [r6, #16]
1a00277e:	3028      	adds	r0, #40	; 0x28
1a002780:	f7fe f957 	bl	1a000a32 <st_qword>
				fs->dirbuf[XDIR_GenFlags] = dp->obj.stat | 1;
1a002784:	79f3      	ldrb	r3, [r6, #7]
1a002786:	692a      	ldr	r2, [r5, #16]
1a002788:	f043 0301 	orr.w	r3, r3, #1
1a00278c:	f882 3021 	strb.w	r3, [r2, #33]	; 0x21
				res = store_xdir(&dj);				/* Store the object status */
1a002790:	4668      	mov	r0, sp
1a002792:	f7ff fc60 	bl	1a002056 <store_xdir>
				if (res != FR_OK) return res;
1a002796:	4603      	mov	r3, r0
1a002798:	2800      	cmp	r0, #0
1a00279a:	d0d3      	beq.n	1a002744 <dir_register+0xc4>
1a00279c:	e7dd      	b.n	1a00275a <dir_register+0xda>
		if (n == 100) return FR_DENIED;		/* Abort if too many collisions */
1a00279e:	f1b8 0f64 	cmp.w	r8, #100	; 0x64
1a0027a2:	d067      	beq.n	1a002874 <dir_register+0x1f4>
		if (res != FR_NO_FILE) return res;	/* Abort if the result is other than 'not collided' */
1a0027a4:	f1b9 0f04 	cmp.w	r9, #4
1a0027a8:	d11b      	bne.n	1a0027e2 <dir_register+0x162>
		dp->fn[NSFLAG] = sn[NSFLAG];
1a0027aa:	f89d 305f 	ldrb.w	r3, [sp, #95]	; 0x5f
1a0027ae:	f886 304b 	strb.w	r3, [r6, #75]	; 0x4b
	nent = (sn[NSFLAG] & NS_LFN) ? (nlen + 12) / 13 + 1 : 1;	/* Number of entries to allocate */
1a0027b2:	f89d 305f 	ldrb.w	r3, [sp, #95]	; 0x5f
1a0027b6:	f013 0f02 	tst.w	r3, #2
1a0027ba:	d006      	beq.n	1a0027ca <dir_register+0x14a>
1a0027bc:	340c      	adds	r4, #12
1a0027be:	4b30      	ldr	r3, [pc, #192]	; (1a002880 <dir_register+0x200>)
1a0027c0:	fba3 3404 	umull	r3, r4, r3, r4
1a0027c4:	08a4      	lsrs	r4, r4, #2
1a0027c6:	3401      	adds	r4, #1
1a0027c8:	e000      	b.n	1a0027cc <dir_register+0x14c>
1a0027ca:	2401      	movs	r4, #1
	res = dir_alloc(dp, nent);		/* Allocate entries */
1a0027cc:	4621      	mov	r1, r4
1a0027ce:	4630      	mov	r0, r6
1a0027d0:	f7ff fc0b 	bl	1a001fea <dir_alloc>
	if (res == FR_OK && --nent) {	/* Set LFN entry if needed */
1a0027d4:	4681      	mov	r9, r0
1a0027d6:	b908      	cbnz	r0, 1a0027dc <dir_register+0x15c>
1a0027d8:	3c01      	subs	r4, #1
1a0027da:	d106      	bne.n	1a0027ea <dir_register+0x16a>
	if (res == FR_OK) {
1a0027dc:	f1b9 0f00 	cmp.w	r9, #0
1a0027e0:	d029      	beq.n	1a002836 <dir_register+0x1b6>
}
1a0027e2:	4648      	mov	r0, r9
1a0027e4:	b019      	add	sp, #100	; 0x64
1a0027e6:	e8bd 83f0 	ldmia.w	sp!, {r4, r5, r6, r7, r8, r9, pc}
		res = dir_sdi(dp, dp->dptr - nent * SZDIRE);
1a0027ea:	6b31      	ldr	r1, [r6, #48]	; 0x30
1a0027ec:	eba1 1144 	sub.w	r1, r1, r4, lsl #5
1a0027f0:	4630      	mov	r0, r6
1a0027f2:	f7ff f859 	bl	1a0018a8 <dir_sdi>
		if (res == FR_OK) {
1a0027f6:	4681      	mov	r9, r0
1a0027f8:	2800      	cmp	r0, #0
1a0027fa:	d1ef      	bne.n	1a0027dc <dir_register+0x15c>
			sum = sum_sfn(dp->fn);	/* Checksum value of the SFN tied to the LFN */
1a0027fc:	4638      	mov	r0, r7
1a0027fe:	f7fe faba 	bl	1a000d76 <sum_sfn>
1a002802:	4680      	mov	r8, r0
				res = move_window(fs, dp->sect);
1a002804:	6bb1      	ldr	r1, [r6, #56]	; 0x38
1a002806:	4628      	mov	r0, r5
1a002808:	f7fe fb94 	bl	1a000f34 <move_window>
				if (res != FR_OK) break;
1a00280c:	4681      	mov	r9, r0
1a00280e:	2800      	cmp	r0, #0
1a002810:	d1e4      	bne.n	1a0027dc <dir_register+0x15c>
				put_lfn(fs->lfnbuf, dp->dir, (BYTE)nent, sum);
1a002812:	4643      	mov	r3, r8
1a002814:	b2e2      	uxtb	r2, r4
1a002816:	6bf1      	ldr	r1, [r6, #60]	; 0x3c
1a002818:	68e8      	ldr	r0, [r5, #12]
1a00281a:	f7fe fa15 	bl	1a000c48 <put_lfn>
				fs->wflag = 1;
1a00281e:	2301      	movs	r3, #1
1a002820:	70eb      	strb	r3, [r5, #3]
				res = dir_next(dp, 0);	/* Next entry */
1a002822:	2100      	movs	r1, #0
1a002824:	4630      	mov	r0, r6
1a002826:	f7ff fa61 	bl	1a001cec <dir_next>
			} while (res == FR_OK && --nent);
1a00282a:	4681      	mov	r9, r0
1a00282c:	2800      	cmp	r0, #0
1a00282e:	d1d5      	bne.n	1a0027dc <dir_register+0x15c>
1a002830:	3c01      	subs	r4, #1
1a002832:	d1e7      	bne.n	1a002804 <dir_register+0x184>
1a002834:	e7d2      	b.n	1a0027dc <dir_register+0x15c>
		res = move_window(fs, dp->sect);
1a002836:	6bb1      	ldr	r1, [r6, #56]	; 0x38
1a002838:	4628      	mov	r0, r5
1a00283a:	f7fe fb7b 	bl	1a000f34 <move_window>
		if (res == FR_OK) {
1a00283e:	4681      	mov	r9, r0
1a002840:	2800      	cmp	r0, #0
1a002842:	d1ce      	bne.n	1a0027e2 <dir_register+0x162>
			mem_set(dp->dir, 0, SZDIRE);	/* Clean the entry */
1a002844:	2220      	movs	r2, #32
1a002846:	2100      	movs	r1, #0
1a002848:	6bf0      	ldr	r0, [r6, #60]	; 0x3c
1a00284a:	f7fe f911 	bl	1a000a70 <mem_set>
			mem_cpy(dp->dir + DIR_Name, dp->fn, 11);	/* Put SFN */
1a00284e:	220b      	movs	r2, #11
1a002850:	4639      	mov	r1, r7
1a002852:	6bf0      	ldr	r0, [r6, #60]	; 0x3c
1a002854:	f7fe f900 	bl	1a000a58 <mem_cpy>
			dp->dir[DIR_NTres] = dp->fn[NSFLAG] & (NS_BODY | NS_EXT);	/* Put NT flag */
1a002858:	f896 304b 	ldrb.w	r3, [r6, #75]	; 0x4b
1a00285c:	6bf2      	ldr	r2, [r6, #60]	; 0x3c
1a00285e:	f003 0318 	and.w	r3, r3, #24
1a002862:	7313      	strb	r3, [r2, #12]
			fs->wflag = 1;
1a002864:	2301      	movs	r3, #1
1a002866:	70eb      	strb	r3, [r5, #3]
1a002868:	e7bb      	b.n	1a0027e2 <dir_register+0x162>
	if (dp->fn[NSFLAG] & (NS_DOT | NS_NONAME)) return FR_INVALID_NAME;	/* Check name validity */
1a00286a:	f04f 0906 	mov.w	r9, #6
1a00286e:	e7b8      	b.n	1a0027e2 <dir_register+0x162>
			if (res != FR_OK) return res;
1a002870:	4681      	mov	r9, r0
1a002872:	e7b6      	b.n	1a0027e2 <dir_register+0x162>
		if (n == 100) return FR_DENIED;		/* Abort if too many collisions */
1a002874:	f04f 0907 	mov.w	r9, #7
1a002878:	e7b3      	b.n	1a0027e2 <dir_register+0x162>
1a00287a:	bf00      	nop
1a00287c:	88888889 	.word	0x88888889
1a002880:	4ec4ec4f 	.word	0x4ec4ec4f

1a002884 <sync_fs>:
{
1a002884:	b570      	push	{r4, r5, r6, lr}
1a002886:	4604      	mov	r4, r0
	res = sync_window(fs);
1a002888:	f7fe fb30 	bl	1a000eec <sync_window>
	if (res == FR_OK) {
1a00288c:	4605      	mov	r5, r0
1a00288e:	b948      	cbnz	r0, 1a0028a4 <sync_fs+0x20>
		if (fs->fs_type == FS_FAT32 && fs->fsi_flag == 1) {	/* FAT32: Update FSInfo sector if needed */
1a002890:	7823      	ldrb	r3, [r4, #0]
1a002892:	2b03      	cmp	r3, #3
1a002894:	d008      	beq.n	1a0028a8 <sync_fs+0x24>
		if (disk_ioctl(fs->pdrv, CTRL_SYNC, 0) != RES_OK) res = FR_DISK_ERR;
1a002896:	2200      	movs	r2, #0
1a002898:	4611      	mov	r1, r2
1a00289a:	7860      	ldrb	r0, [r4, #1]
1a00289c:	f003 f9c4 	bl	1a005c28 <disk_ioctl>
1a0028a0:	b100      	cbz	r0, 1a0028a4 <sync_fs+0x20>
1a0028a2:	2501      	movs	r5, #1
}
1a0028a4:	4628      	mov	r0, r5
1a0028a6:	bd70      	pop	{r4, r5, r6, pc}
		if (fs->fs_type == FS_FAT32 && fs->fsi_flag == 1) {	/* FAT32: Update FSInfo sector if needed */
1a0028a8:	7923      	ldrb	r3, [r4, #4]
1a0028aa:	2b01      	cmp	r3, #1
1a0028ac:	d1f3      	bne.n	1a002896 <sync_fs+0x12>
			mem_set(fs->win, 0, SS(fs));
1a0028ae:	f104 0638 	add.w	r6, r4, #56	; 0x38
1a0028b2:	f44f 7200 	mov.w	r2, #512	; 0x200
1a0028b6:	2100      	movs	r1, #0
1a0028b8:	4630      	mov	r0, r6
1a0028ba:	f7fe f8d9 	bl	1a000a70 <mem_set>
			st_word(fs->win + BS_55AA, 0xAA55);
1a0028be:	f64a 2155 	movw	r1, #43605	; 0xaa55
1a0028c2:	f204 2036 	addw	r0, r4, #566	; 0x236
1a0028c6:	f7fe f8a6 	bl	1a000a16 <st_word>
			st_dword(fs->win + FSI_LeadSig, 0x41615252);
1a0028ca:	490f      	ldr	r1, [pc, #60]	; (1a002908 <sync_fs+0x84>)
1a0028cc:	4630      	mov	r0, r6
1a0028ce:	f7fe f8a6 	bl	1a000a1e <st_dword>
			st_dword(fs->win + FSI_StrucSig, 0x61417272);
1a0028d2:	490e      	ldr	r1, [pc, #56]	; (1a00290c <sync_fs+0x88>)
1a0028d4:	f504 7007 	add.w	r0, r4, #540	; 0x21c
1a0028d8:	f7fe f8a1 	bl	1a000a1e <st_dword>
			st_dword(fs->win + FSI_Free_Count, fs->free_clst);
1a0028dc:	69a1      	ldr	r1, [r4, #24]
1a0028de:	f504 7008 	add.w	r0, r4, #544	; 0x220
1a0028e2:	f7fe f89c 	bl	1a000a1e <st_dword>
			st_dword(fs->win + FSI_Nxt_Free, fs->last_clst);
1a0028e6:	6961      	ldr	r1, [r4, #20]
1a0028e8:	f504 7009 	add.w	r0, r4, #548	; 0x224
1a0028ec:	f7fe f897 	bl	1a000a1e <st_dword>
			fs->winsect = fs->volbase + 1;
1a0028f0:	6a62      	ldr	r2, [r4, #36]	; 0x24
1a0028f2:	3201      	adds	r2, #1
1a0028f4:	6362      	str	r2, [r4, #52]	; 0x34
			disk_write(fs->pdrv, fs->win, fs->winsect, 1);
1a0028f6:	2301      	movs	r3, #1
1a0028f8:	4631      	mov	r1, r6
1a0028fa:	7860      	ldrb	r0, [r4, #1]
1a0028fc:	f003 f982 	bl	1a005c04 <disk_write>
			fs->fsi_flag = 0;
1a002900:	2300      	movs	r3, #0
1a002902:	7123      	strb	r3, [r4, #4]
1a002904:	e7c7      	b.n	1a002896 <sync_fs+0x12>
1a002906:	bf00      	nop
1a002908:	41615252 	.word	0x41615252
1a00290c:	61417272 	.word	0x61417272

1a002910 <f_mount>:
{
1a002910:	b510      	push	{r4, lr}
1a002912:	b084      	sub	sp, #16
1a002914:	9001      	str	r0, [sp, #4]
1a002916:	9100      	str	r1, [sp, #0]
1a002918:	4614      	mov	r4, r2
	const TCHAR *rp = path;
1a00291a:	9103      	str	r1, [sp, #12]
	vol = get_ldnumber(&rp);
1a00291c:	a803      	add	r0, sp, #12
1a00291e:	f7fe fa6b 	bl	1a000df8 <get_ldnumber>
	if (vol < 0) return FR_INVALID_DRIVE;
1a002922:	2800      	cmp	r0, #0
1a002924:	db17      	blt.n	1a002956 <f_mount+0x46>
	cfs = FatFs[vol];					/* Pointer to fs object */
1a002926:	4b0d      	ldr	r3, [pc, #52]	; (1a00295c <f_mount+0x4c>)
1a002928:	f853 3020 	ldr.w	r3, [r3, r0, lsl #2]
	if (cfs) {
1a00292c:	b10b      	cbz	r3, 1a002932 <f_mount+0x22>
		cfs->fs_type = 0;				/* Clear old fs object */
1a00292e:	2200      	movs	r2, #0
1a002930:	701a      	strb	r2, [r3, #0]
	if (fs) {
1a002932:	9b01      	ldr	r3, [sp, #4]
1a002934:	b10b      	cbz	r3, 1a00293a <f_mount+0x2a>
		fs->fs_type = 0;				/* Clear new fs object */
1a002936:	2200      	movs	r2, #0
1a002938:	701a      	strb	r2, [r3, #0]
	FatFs[vol] = fs;					/* Register new fs object */
1a00293a:	4b08      	ldr	r3, [pc, #32]	; (1a00295c <f_mount+0x4c>)
1a00293c:	9a01      	ldr	r2, [sp, #4]
1a00293e:	f843 2020 	str.w	r2, [r3, r0, lsl #2]
	if (opt == 0) return FR_OK;			/* Do not mount now, it will be mounted later */
1a002942:	b914      	cbnz	r4, 1a00294a <f_mount+0x3a>
1a002944:	4620      	mov	r0, r4
}
1a002946:	b004      	add	sp, #16
1a002948:	bd10      	pop	{r4, pc}
	res = find_volume(&path, &fs, 0);	/* Force mounted the volume */
1a00294a:	2200      	movs	r2, #0
1a00294c:	a901      	add	r1, sp, #4
1a00294e:	4668      	mov	r0, sp
1a002950:	f7fe fb4e 	bl	1a000ff0 <find_volume>
	LEAVE_FF(fs, res);
1a002954:	e7f7      	b.n	1a002946 <f_mount+0x36>
	if (vol < 0) return FR_INVALID_DRIVE;
1a002956:	200b      	movs	r0, #11
1a002958:	e7f5      	b.n	1a002946 <f_mount+0x36>
1a00295a:	bf00      	nop
1a00295c:	100003a0 	.word	0x100003a0

1a002960 <f_open>:
{
1a002960:	e92d 4ff0 	stmdb	sp!, {r4, r5, r6, r7, r8, r9, sl, fp, lr}
1a002964:	b099      	sub	sp, #100	; 0x64
1a002966:	9101      	str	r1, [sp, #4]
	if (!fp) return FR_INVALID_OBJECT;
1a002968:	2800      	cmp	r0, #0
1a00296a:	f000 815d 	beq.w	1a002c28 <f_open+0x2c8>
1a00296e:	4615      	mov	r5, r2
1a002970:	4682      	mov	sl, r0
	mode &= FF_FS_READONLY ? FA_READ : FA_READ | FA_WRITE | FA_CREATE_ALWAYS | FA_CREATE_NEW | FA_OPEN_ALWAYS | FA_OPEN_APPEND;
1a002972:	f002 063f 	and.w	r6, r2, #63	; 0x3f
	res = find_volume(&path, &fs, mode);
1a002976:	4632      	mov	r2, r6
1a002978:	a903      	add	r1, sp, #12
1a00297a:	a801      	add	r0, sp, #4
1a00297c:	f7fe fb38 	bl	1a000ff0 <find_volume>
	if (res == FR_OK) {
1a002980:	4604      	mov	r4, r0
1a002982:	b138      	cbz	r0, 1a002994 <f_open+0x34>
	if (res != FR_OK) fp->obj.fs = 0;	/* Invalidate file object on error */
1a002984:	b114      	cbz	r4, 1a00298c <f_open+0x2c>
1a002986:	2300      	movs	r3, #0
1a002988:	f8ca 3000 	str.w	r3, [sl]
}
1a00298c:	4620      	mov	r0, r4
1a00298e:	b019      	add	sp, #100	; 0x64
1a002990:	e8bd 8ff0 	ldmia.w	sp!, {r4, r5, r6, r7, r8, r9, sl, fp, pc}
		dj.obj.fs = fs;
1a002994:	9b03      	ldr	r3, [sp, #12]
1a002996:	9304      	str	r3, [sp, #16]
		res = follow_path(&dj, path);	/* Follow the file path */
1a002998:	9901      	ldr	r1, [sp, #4]
1a00299a:	a804      	add	r0, sp, #16
1a00299c:	f7ff fe15 	bl	1a0025ca <follow_path>
		if (res == FR_OK) {
1a0029a0:	4604      	mov	r4, r0
1a0029a2:	b918      	cbnz	r0, 1a0029ac <f_open+0x4c>
			if (dj.fn[NSFLAG] & NS_NONAME) {	/* Origin directory itself? */
1a0029a4:	f99d 305b 	ldrsb.w	r3, [sp, #91]	; 0x5b
1a0029a8:	2b00      	cmp	r3, #0
1a0029aa:	db45      	blt.n	1a002a38 <f_open+0xd8>
		if (mode & (FA_CREATE_ALWAYS | FA_OPEN_ALWAYS | FA_CREATE_NEW)) {
1a0029ac:	f015 0f1c 	tst.w	r5, #28
1a0029b0:	f000 808a 	beq.w	1a002ac8 <f_open+0x168>
			if (res != FR_OK) {					/* No file, create new */
1a0029b4:	2c00      	cmp	r4, #0
1a0029b6:	d046      	beq.n	1a002a46 <f_open+0xe6>
				if (res == FR_NO_FILE) {		/* There is no file to open, create a new entry */
1a0029b8:	2c04      	cmp	r4, #4
1a0029ba:	d03f      	beq.n	1a002a3c <f_open+0xdc>
				mode |= FA_CREATE_ALWAYS;		/* File is created */
1a0029bc:	f046 0608 	orr.w	r6, r6, #8
			if (res == FR_OK && (mode & FA_CREATE_ALWAYS)) {	/* Truncate the file if overwrite mode */
1a0029c0:	2c00      	cmp	r4, #0
1a0029c2:	f040 8090 	bne.w	1a002ae6 <f_open+0x186>
1a0029c6:	f016 0f08 	tst.w	r6, #8
1a0029ca:	f000 808c 	beq.w	1a002ae6 <f_open+0x186>
				if (fs->fs_type == FS_EXFAT) {
1a0029ce:	9803      	ldr	r0, [sp, #12]
1a0029d0:	7803      	ldrb	r3, [r0, #0]
1a0029d2:	2b04      	cmp	r3, #4
1a0029d4:	d041      	beq.n	1a002a5a <f_open+0xfa>
					cl = ld_clust(fs, dj.dir);			/* Get current cluster chain */
1a0029d6:	9f13      	ldr	r7, [sp, #76]	; 0x4c
1a0029d8:	4639      	mov	r1, r7
1a0029da:	f7fe f8cf 	bl	1a000b7c <ld_clust>
1a0029de:	4605      	mov	r5, r0
					st_dword(dj.dir + DIR_CrtTime, GET_FATTIME());	/* Set created time */
1a0029e0:	f003 f8ce 	bl	1a005b80 <get_fattime>
1a0029e4:	4601      	mov	r1, r0
1a0029e6:	f107 000e 	add.w	r0, r7, #14
1a0029ea:	f7fe f818 	bl	1a000a1e <st_dword>
					dj.dir[DIR_Attr] = AM_ARC;			/* Reset attribute */
1a0029ee:	9b13      	ldr	r3, [sp, #76]	; 0x4c
1a0029f0:	2220      	movs	r2, #32
1a0029f2:	72da      	strb	r2, [r3, #11]
					st_clust(fs, dj.dir, 0);			/* Reset file allocation info */
1a0029f4:	2200      	movs	r2, #0
1a0029f6:	9913      	ldr	r1, [sp, #76]	; 0x4c
1a0029f8:	9803      	ldr	r0, [sp, #12]
1a0029fa:	f7fe f8d2 	bl	1a000ba2 <st_clust>
					st_dword(dj.dir + DIR_FileSize, 0);
1a0029fe:	2100      	movs	r1, #0
1a002a00:	9813      	ldr	r0, [sp, #76]	; 0x4c
1a002a02:	301c      	adds	r0, #28
1a002a04:	f7fe f80b 	bl	1a000a1e <st_dword>
					fs->wflag = 1;
1a002a08:	9b03      	ldr	r3, [sp, #12]
1a002a0a:	2201      	movs	r2, #1
1a002a0c:	70da      	strb	r2, [r3, #3]
					if (cl != 0) {						/* Remove the cluster chain if exist */
1a002a0e:	2d00      	cmp	r5, #0
1a002a10:	d069      	beq.n	1a002ae6 <f_open+0x186>
						dw = fs->winsect;
1a002a12:	9b03      	ldr	r3, [sp, #12]
1a002a14:	6b5f      	ldr	r7, [r3, #52]	; 0x34
						res = remove_chain(&dj.obj, cl, 0);
1a002a16:	2200      	movs	r2, #0
1a002a18:	4629      	mov	r1, r5
1a002a1a:	a804      	add	r0, sp, #16
1a002a1c:	f7ff f88f 	bl	1a001b3e <remove_chain>
						if (res == FR_OK) {
1a002a20:	4604      	mov	r4, r0
1a002a22:	2800      	cmp	r0, #0
1a002a24:	d15f      	bne.n	1a002ae6 <f_open+0x186>
							res = move_window(fs, dw);
1a002a26:	4639      	mov	r1, r7
1a002a28:	9803      	ldr	r0, [sp, #12]
1a002a2a:	f7fe fa83 	bl	1a000f34 <move_window>
1a002a2e:	4604      	mov	r4, r0
							fs->last_clst = cl - 1;		/* Reuse the cluster hole */
1a002a30:	3d01      	subs	r5, #1
1a002a32:	9b03      	ldr	r3, [sp, #12]
1a002a34:	615d      	str	r5, [r3, #20]
1a002a36:	e056      	b.n	1a002ae6 <f_open+0x186>
				res = FR_INVALID_NAME;
1a002a38:	2406      	movs	r4, #6
1a002a3a:	e7b7      	b.n	1a0029ac <f_open+0x4c>
					res = dir_register(&dj);
1a002a3c:	a804      	add	r0, sp, #16
1a002a3e:	f7ff fe1f 	bl	1a002680 <dir_register>
1a002a42:	4604      	mov	r4, r0
1a002a44:	e7ba      	b.n	1a0029bc <f_open+0x5c>
				if (dj.obj.attr & (AM_RDO | AM_DIR)) {	/* Cannot overwrite it (R/O or DIR) */
1a002a46:	f89d 3016 	ldrb.w	r3, [sp, #22]
1a002a4a:	f013 0f11 	tst.w	r3, #17
1a002a4e:	d149      	bne.n	1a002ae4 <f_open+0x184>
					if (mode & FA_CREATE_NEW) res = FR_EXIST;	/* Cannot create as new file */
1a002a50:	f015 0f04 	tst.w	r5, #4
1a002a54:	d0b4      	beq.n	1a0029c0 <f_open+0x60>
1a002a56:	2408      	movs	r4, #8
1a002a58:	e045      	b.n	1a002ae6 <f_open+0x186>
					fp->obj.fs = fs;
1a002a5a:	f8ca 0000 	str.w	r0, [sl]
					init_alloc_info(fs, &fp->obj);
1a002a5e:	4651      	mov	r1, sl
1a002a60:	f7fe f9b2 	bl	1a000dc8 <init_alloc_info>
					mem_set(fs->dirbuf + 2, 0, 30);		/* Clear 85 entry except for NumSec */
1a002a64:	9b03      	ldr	r3, [sp, #12]
1a002a66:	6918      	ldr	r0, [r3, #16]
1a002a68:	221e      	movs	r2, #30
1a002a6a:	2100      	movs	r1, #0
1a002a6c:	3002      	adds	r0, #2
1a002a6e:	f7fd ffff 	bl	1a000a70 <mem_set>
					mem_set(fs->dirbuf + 38, 0, 26);	/* Clear C0 entry except for NumName and NameHash */
1a002a72:	9b03      	ldr	r3, [sp, #12]
1a002a74:	6918      	ldr	r0, [r3, #16]
1a002a76:	221a      	movs	r2, #26
1a002a78:	2100      	movs	r1, #0
1a002a7a:	3026      	adds	r0, #38	; 0x26
1a002a7c:	f7fd fff8 	bl	1a000a70 <mem_set>
					fs->dirbuf[XDIR_Attr] = AM_ARC;
1a002a80:	9b03      	ldr	r3, [sp, #12]
1a002a82:	691a      	ldr	r2, [r3, #16]
1a002a84:	2120      	movs	r1, #32
1a002a86:	7111      	strb	r1, [r2, #4]
					st_dword(fs->dirbuf + XDIR_CrtTime, GET_FATTIME());
1a002a88:	691c      	ldr	r4, [r3, #16]
1a002a8a:	f003 f879 	bl	1a005b80 <get_fattime>
1a002a8e:	4601      	mov	r1, r0
1a002a90:	f104 0008 	add.w	r0, r4, #8
1a002a94:	f7fd ffc3 	bl	1a000a1e <st_dword>
					fs->dirbuf[XDIR_GenFlags] = 1;
1a002a98:	9b03      	ldr	r3, [sp, #12]
1a002a9a:	691b      	ldr	r3, [r3, #16]
1a002a9c:	2201      	movs	r2, #1
1a002a9e:	f883 2021 	strb.w	r2, [r3, #33]	; 0x21
					res = store_xdir(&dj);
1a002aa2:	a804      	add	r0, sp, #16
1a002aa4:	f7ff fad7 	bl	1a002056 <store_xdir>
					if (res == FR_OK && fp->obj.sclust != 0) {	/* Remove the cluster chain if exist */
1a002aa8:	4604      	mov	r4, r0
1a002aaa:	b9e0      	cbnz	r0, 1a002ae6 <f_open+0x186>
1a002aac:	f8da 1008 	ldr.w	r1, [sl, #8]
1a002ab0:	b1c9      	cbz	r1, 1a002ae6 <f_open+0x186>
						res = remove_chain(&fp->obj, fp->obj.sclust, 0);
1a002ab2:	2200      	movs	r2, #0
1a002ab4:	4650      	mov	r0, sl
1a002ab6:	f7ff f842 	bl	1a001b3e <remove_chain>
1a002aba:	4604      	mov	r4, r0
						fs->last_clst = fp->obj.sclust - 1;		/* Reuse the cluster hole */
1a002abc:	f8da 3008 	ldr.w	r3, [sl, #8]
1a002ac0:	3b01      	subs	r3, #1
1a002ac2:	9a03      	ldr	r2, [sp, #12]
1a002ac4:	6153      	str	r3, [r2, #20]
1a002ac6:	e00e      	b.n	1a002ae6 <f_open+0x186>
			if (res == FR_OK) {					/* Is the object exsiting? */
1a002ac8:	b96c      	cbnz	r4, 1a002ae6 <f_open+0x186>
				if (dj.obj.attr & AM_DIR) {		/* File open against a directory */
1a002aca:	f89d 3016 	ldrb.w	r3, [sp, #22]
1a002ace:	f013 0f10 	tst.w	r3, #16
1a002ad2:	d157      	bne.n	1a002b84 <f_open+0x224>
					if ((mode & FA_WRITE) && (dj.obj.attr & AM_RDO)) { /* Write mode open against R/O file */
1a002ad4:	f015 0f02 	tst.w	r5, #2
1a002ad8:	d005      	beq.n	1a002ae6 <f_open+0x186>
1a002ada:	f013 0f01 	tst.w	r3, #1
1a002ade:	d002      	beq.n	1a002ae6 <f_open+0x186>
						res = FR_DENIED;
1a002ae0:	2407      	movs	r4, #7
1a002ae2:	e00d      	b.n	1a002b00 <f_open+0x1a0>
					res = FR_DENIED;
1a002ae4:	2407      	movs	r4, #7
		if (res == FR_OK) {
1a002ae6:	b95c      	cbnz	r4, 1a002b00 <f_open+0x1a0>
			if (mode & FA_CREATE_ALWAYS) mode |= FA_MODIFIED;	/* Set file change flag if created or overwritten */
1a002ae8:	f016 0f08 	tst.w	r6, #8
1a002aec:	d001      	beq.n	1a002af2 <f_open+0x192>
1a002aee:	f046 0640 	orr.w	r6, r6, #64	; 0x40
			fp->dir_sect = fs->winsect;			/* Pointer to the directory entry */
1a002af2:	9b03      	ldr	r3, [sp, #12]
1a002af4:	6b5b      	ldr	r3, [r3, #52]	; 0x34
1a002af6:	f8ca 3048 	str.w	r3, [sl, #72]	; 0x48
			fp->dir_ptr = dj.dir;
1a002afa:	9b13      	ldr	r3, [sp, #76]	; 0x4c
1a002afc:	f8ca 304c 	str.w	r3, [sl, #76]	; 0x4c
		if (res == FR_OK) {
1a002b00:	2c00      	cmp	r4, #0
1a002b02:	f47f af3f 	bne.w	1a002984 <f_open+0x24>
			if (fs->fs_type == FS_EXFAT) {
1a002b06:	9803      	ldr	r0, [sp, #12]
1a002b08:	7803      	ldrb	r3, [r0, #0]
1a002b0a:	2b04      	cmp	r3, #4
1a002b0c:	d03c      	beq.n	1a002b88 <f_open+0x228>
				fp->obj.sclust = ld_clust(fs, dj.dir);					/* Get object allocation info */
1a002b0e:	9d13      	ldr	r5, [sp, #76]	; 0x4c
1a002b10:	4629      	mov	r1, r5
1a002b12:	f7fe f833 	bl	1a000b7c <ld_clust>
1a002b16:	f8ca 0008 	str.w	r0, [sl, #8]
				fp->obj.objsize = ld_dword(dj.dir + DIR_FileSize);
1a002b1a:	f105 001c 	add.w	r0, r5, #28
1a002b1e:	f7fd ff48 	bl	1a0009b2 <ld_dword>
1a002b22:	f8ca 0010 	str.w	r0, [sl, #16]
1a002b26:	2300      	movs	r3, #0
1a002b28:	f8ca 3014 	str.w	r3, [sl, #20]
			fp->obj.fs = fs;	 	/* Validate the file object */
1a002b2c:	9b03      	ldr	r3, [sp, #12]
1a002b2e:	f8ca 3000 	str.w	r3, [sl]
			fp->obj.id = fs->id;
1a002b32:	88db      	ldrh	r3, [r3, #6]
1a002b34:	f8aa 3004 	strh.w	r3, [sl, #4]
			fp->flag = mode;		/* Set file access mode */
1a002b38:	f88a 6030 	strb.w	r6, [sl, #48]	; 0x30
			fp->err = 0;			/* Clear error flag */
1a002b3c:	2100      	movs	r1, #0
1a002b3e:	f88a 1031 	strb.w	r1, [sl, #49]	; 0x31
			fp->sect = 0;			/* Invalidate current data sector */
1a002b42:	f8ca 1044 	str.w	r1, [sl, #68]	; 0x44
			fp->fptr = 0;			/* Set file pointer top of the file */
1a002b46:	2200      	movs	r2, #0
1a002b48:	2300      	movs	r3, #0
1a002b4a:	e9ca 230e 	strd	r2, r3, [sl, #56]	; 0x38
			mem_set(fp->buf, 0, FF_MAX_SS);	/* Clear sector buffer */
1a002b4e:	f10a 0550 	add.w	r5, sl, #80	; 0x50
1a002b52:	f44f 7200 	mov.w	r2, #512	; 0x200
1a002b56:	4628      	mov	r0, r5
1a002b58:	f7fd ff8a 	bl	1a000a70 <mem_set>
			if ((mode & FA_SEEKEND) && fp->obj.objsize > 0) {	/* Seek to end of file if FA_OPEN_APPEND is specified */
1a002b5c:	f016 0f20 	tst.w	r6, #32
1a002b60:	f43f af10 	beq.w	1a002984 <f_open+0x24>
1a002b64:	e9da 6704 	ldrd	r6, r7, [sl, #16]
1a002b68:	ea56 0307 	orrs.w	r3, r6, r7
1a002b6c:	f43f af0a 	beq.w	1a002984 <f_open+0x24>
				fp->fptr = fp->obj.objsize;			/* Offset to seek */
1a002b70:	e9ca 670e 	strd	r6, r7, [sl, #56]	; 0x38
				bcs = (DWORD)fs->csize * SS(fs);	/* Cluster size in byte */
1a002b74:	9b03      	ldr	r3, [sp, #12]
1a002b76:	f8b3 b00a 	ldrh.w	fp, [r3, #10]
1a002b7a:	ea4f 2b4b 	mov.w	fp, fp, lsl #9
				clst = fp->obj.sclust;				/* Follow the cluster chain */
1a002b7e:	f8da 1008 	ldr.w	r1, [sl, #8]
				for (ofs = fp->obj.objsize; res == FR_OK && ofs > bcs; ofs -= bcs) {
1a002b82:	e01a      	b.n	1a002bba <f_open+0x25a>
					res = FR_NO_FILE;
1a002b84:	2404      	movs	r4, #4
1a002b86:	e7bb      	b.n	1a002b00 <f_open+0x1a0>
				fp->obj.c_scl = dj.obj.sclust;							/* Get containing directory info */
1a002b88:	9b06      	ldr	r3, [sp, #24]
1a002b8a:	f8ca 3020 	str.w	r3, [sl, #32]
				fp->obj.c_size = ((DWORD)dj.obj.objsize & 0xFFFFFF00) | dj.obj.stat;
1a002b8e:	9b08      	ldr	r3, [sp, #32]
1a002b90:	f023 03ff 	bic.w	r3, r3, #255	; 0xff
1a002b94:	f89d 2017 	ldrb.w	r2, [sp, #23]
1a002b98:	4313      	orrs	r3, r2
1a002b9a:	f8ca 3024 	str.w	r3, [sl, #36]	; 0x24
				fp->obj.c_ofs = dj.blk_ofs;
1a002b9e:	9b17      	ldr	r3, [sp, #92]	; 0x5c
1a002ba0:	f8ca 3028 	str.w	r3, [sl, #40]	; 0x28
				init_alloc_info(fs, &fp->obj);
1a002ba4:	4651      	mov	r1, sl
1a002ba6:	f7fe f90f 	bl	1a000dc8 <init_alloc_info>
1a002baa:	e7bf      	b.n	1a002b2c <f_open+0x1cc>
					if (clst == 0xFFFFFFFF) res = FR_DISK_ERR;
1a002bac:	f1b1 3fff 	cmp.w	r1, #4294967295	; 0xffffffff
1a002bb0:	d013      	beq.n	1a002bda <f_open+0x27a>
				for (ofs = fp->obj.objsize; res == FR_OK && ofs > bcs; ofs -= bcs) {
1a002bb2:	ebb6 0608 	subs.w	r6, r6, r8
1a002bb6:	eb67 0709 	sbc.w	r7, r7, r9
1a002bba:	b984      	cbnz	r4, 1a002bde <f_open+0x27e>
1a002bbc:	46d8      	mov	r8, fp
1a002bbe:	f04f 0900 	mov.w	r9, #0
1a002bc2:	45b9      	cmp	r9, r7
1a002bc4:	bf08      	it	eq
1a002bc6:	45b3      	cmpeq	fp, r6
1a002bc8:	d209      	bcs.n	1a002bde <f_open+0x27e>
					clst = get_fat(&fp->obj, clst);
1a002bca:	4650      	mov	r0, sl
1a002bcc:	f7fe fdb5 	bl	1a00173a <get_fat>
1a002bd0:	4601      	mov	r1, r0
					if (clst <= 1) res = FR_INT_ERR;
1a002bd2:	2801      	cmp	r0, #1
1a002bd4:	d8ea      	bhi.n	1a002bac <f_open+0x24c>
1a002bd6:	2402      	movs	r4, #2
1a002bd8:	e7e8      	b.n	1a002bac <f_open+0x24c>
					if (clst == 0xFFFFFFFF) res = FR_DISK_ERR;
1a002bda:	2401      	movs	r4, #1
1a002bdc:	e7e9      	b.n	1a002bb2 <f_open+0x252>
				fp->clust = clst;
1a002bde:	f8ca 1040 	str.w	r1, [sl, #64]	; 0x40
				if (res == FR_OK && ofs % SS(fs)) {	/* Fill sector buffer if not on the sector boundary */
1a002be2:	2c00      	cmp	r4, #0
1a002be4:	f47f aece 	bne.w	1a002984 <f_open+0x24>
1a002be8:	f3c6 0208 	ubfx	r2, r6, #0, #9
1a002bec:	2300      	movs	r3, #0
1a002bee:	4313      	orrs	r3, r2
1a002bf0:	f43f aec8 	beq.w	1a002984 <f_open+0x24>
					if ((sc = clst2sect(fs, clst)) == 0) {
1a002bf4:	f8dd 800c 	ldr.w	r8, [sp, #12]
1a002bf8:	4640      	mov	r0, r8
1a002bfa:	f7fd ffb3 	bl	1a000b64 <clst2sect>
1a002bfe:	4602      	mov	r2, r0
1a002c00:	b908      	cbnz	r0, 1a002c06 <f_open+0x2a6>
						res = FR_INT_ERR;
1a002c02:	2402      	movs	r4, #2
1a002c04:	e6bf      	b.n	1a002986 <f_open+0x26>
						fp->sect = sc + (DWORD)(ofs / SS(fs));
1a002c06:	0a73      	lsrs	r3, r6, #9
1a002c08:	ea43 53c7 	orr.w	r3, r3, r7, lsl #23
1a002c0c:	441a      	add	r2, r3
1a002c0e:	f8ca 2044 	str.w	r2, [sl, #68]	; 0x44
						if (disk_read(fs->pdrv, fp->buf, fp->sect, 1) != RES_OK) res = FR_DISK_ERR;
1a002c12:	2301      	movs	r3, #1
1a002c14:	4629      	mov	r1, r5
1a002c16:	f898 0001 	ldrb.w	r0, [r8, #1]
1a002c1a:	f002 ffe1 	bl	1a005be0 <disk_read>
1a002c1e:	2800      	cmp	r0, #0
1a002c20:	f43f aeb0 	beq.w	1a002984 <f_open+0x24>
1a002c24:	2401      	movs	r4, #1
1a002c26:	e6ae      	b.n	1a002986 <f_open+0x26>
	if (!fp) return FR_INVALID_OBJECT;
1a002c28:	2409      	movs	r4, #9
1a002c2a:	e6af      	b.n	1a00298c <f_open+0x2c>

1a002c2c <f_read>:
{
1a002c2c:	e92d 4ff0 	stmdb	sp!, {r4, r5, r6, r7, r8, r9, sl, fp, lr}
1a002c30:	b087      	sub	sp, #28
1a002c32:	4604      	mov	r4, r0
1a002c34:	460f      	mov	r7, r1
1a002c36:	4616      	mov	r6, r2
1a002c38:	469a      	mov	sl, r3
	*br = 0;	/* Clear read byte counter */
1a002c3a:	2300      	movs	r3, #0
1a002c3c:	f8ca 3000 	str.w	r3, [sl]
	res = validate(&fp->obj, &fs);				/* Check validity of the file object */
1a002c40:	9003      	str	r0, [sp, #12]
1a002c42:	a905      	add	r1, sp, #20
1a002c44:	f7fe f92f 	bl	1a000ea6 <validate>
	if (res != FR_OK || (res = (FRESULT)fp->err) != FR_OK) LEAVE_FF(fs, res);	/* Check validity */
1a002c48:	9002      	str	r0, [sp, #8]
1a002c4a:	2800      	cmp	r0, #0
1a002c4c:	f040 80b7 	bne.w	1a002dbe <f_read+0x192>
1a002c50:	f894 3031 	ldrb.w	r3, [r4, #49]	; 0x31
1a002c54:	9302      	str	r3, [sp, #8]
1a002c56:	2b00      	cmp	r3, #0
1a002c58:	f040 80b1 	bne.w	1a002dbe <f_read+0x192>
	if (!(fp->flag & FA_READ)) LEAVE_FF(fs, FR_DENIED); /* Check access mode */
1a002c5c:	f894 3030 	ldrb.w	r3, [r4, #48]	; 0x30
1a002c60:	f013 0f01 	tst.w	r3, #1
1a002c64:	f000 80c8 	beq.w	1a002df8 <f_read+0x1cc>
	remain = fp->obj.objsize - fp->fptr;
1a002c68:	6922      	ldr	r2, [r4, #16]
1a002c6a:	6960      	ldr	r0, [r4, #20]
1a002c6c:	6ba3      	ldr	r3, [r4, #56]	; 0x38
1a002c6e:	6be1      	ldr	r1, [r4, #60]	; 0x3c
1a002c70:	ebb2 0803 	subs.w	r8, r2, r3
1a002c74:	eb60 0901 	sbc.w	r9, r0, r1
	if (btr > remain) btr = (UINT)remain;		/* Truncate btr by remaining bytes */
1a002c78:	2300      	movs	r3, #0
1a002c7a:	4599      	cmp	r9, r3
1a002c7c:	bf08      	it	eq
1a002c7e:	45b0      	cmpeq	r8, r6
1a002c80:	d259      	bcs.n	1a002d36 <f_read+0x10a>
1a002c82:	4646      	mov	r6, r8
1a002c84:	e057      	b.n	1a002d36 <f_read+0x10a>
						clst = get_fat(&fp->obj, fp->clust);	/* Follow cluster chain on the FAT */
1a002c86:	6c21      	ldr	r1, [r4, #64]	; 0x40
1a002c88:	9803      	ldr	r0, [sp, #12]
1a002c8a:	f7fe fd56 	bl	1a00173a <get_fat>
1a002c8e:	e06c      	b.n	1a002d6a <f_read+0x13e>
				if (clst < 2) ABORT(fs, FR_INT_ERR);
1a002c90:	2302      	movs	r3, #2
1a002c92:	f884 3031 	strb.w	r3, [r4, #49]	; 0x31
1a002c96:	9302      	str	r3, [sp, #8]
1a002c98:	e091      	b.n	1a002dbe <f_read+0x192>
				if (clst == 0xFFFFFFFF) ABORT(fs, FR_DISK_ERR);
1a002c9a:	2301      	movs	r3, #1
1a002c9c:	f884 3031 	strb.w	r3, [r4, #49]	; 0x31
1a002ca0:	9302      	str	r3, [sp, #8]
1a002ca2:	e08c      	b.n	1a002dbe <f_read+0x192>
			if (sect == 0) ABORT(fs, FR_INT_ERR);
1a002ca4:	2302      	movs	r3, #2
1a002ca6:	f884 3031 	strb.w	r3, [r4, #49]	; 0x31
1a002caa:	9302      	str	r3, [sp, #8]
1a002cac:	e087      	b.n	1a002dbe <f_read+0x192>
				if ((fp->flag & FA_DIRTY) && fp->sect - sect < cc) {
1a002cae:	f994 3030 	ldrsb.w	r3, [r4, #48]	; 0x30
1a002cb2:	2b00      	cmp	r3, #0
1a002cb4:	db01      	blt.n	1a002cba <f_read+0x8e>
				rcnt = SS(fs) * cc;				/* Number of bytes transferred */
1a002cb6:	026d      	lsls	r5, r5, #9
				continue;
1a002cb8:	e02f      	b.n	1a002d1a <f_read+0xee>
				if ((fp->flag & FA_DIRTY) && fp->sect - sect < cc) {
1a002cba:	6c60      	ldr	r0, [r4, #68]	; 0x44
1a002cbc:	eba0 0009 	sub.w	r0, r0, r9
1a002cc0:	42a8      	cmp	r0, r5
1a002cc2:	d2f8      	bcs.n	1a002cb6 <f_read+0x8a>
					mem_cpy(rbuff + ((fp->sect - sect) * SS(fs)), fp->buf, SS(fs));
1a002cc4:	f44f 7200 	mov.w	r2, #512	; 0x200
1a002cc8:	f104 0150 	add.w	r1, r4, #80	; 0x50
1a002ccc:	eb07 2040 	add.w	r0, r7, r0, lsl #9
1a002cd0:	f7fd fec2 	bl	1a000a58 <mem_cpy>
1a002cd4:	e7ef      	b.n	1a002cb6 <f_read+0x8a>
			if (fp->sect != sect) {			/* Load data sector if not in cache */
1a002cd6:	6c62      	ldr	r2, [r4, #68]	; 0x44
1a002cd8:	454a      	cmp	r2, r9
1a002cda:	d00d      	beq.n	1a002cf8 <f_read+0xcc>
				if (fp->flag & FA_DIRTY) {		/* Write-back dirty sector cache */
1a002cdc:	f994 3030 	ldrsb.w	r3, [r4, #48]	; 0x30
1a002ce0:	2b00      	cmp	r3, #0
1a002ce2:	db70      	blt.n	1a002dc6 <f_read+0x19a>
				if (disk_read(fs->pdrv, fp->buf, sect, 1) != RES_OK)	ABORT(fs, FR_DISK_ERR);	/* Fill sector cache */
1a002ce4:	2301      	movs	r3, #1
1a002ce6:	464a      	mov	r2, r9
1a002ce8:	f104 0150 	add.w	r1, r4, #80	; 0x50
1a002cec:	9805      	ldr	r0, [sp, #20]
1a002cee:	7840      	ldrb	r0, [r0, #1]
1a002cf0:	f002 ff76 	bl	1a005be0 <disk_read>
1a002cf4:	2800      	cmp	r0, #0
1a002cf6:	d17a      	bne.n	1a002dee <f_read+0x1c2>
			fp->sect = sect;
1a002cf8:	f8c4 9044 	str.w	r9, [r4, #68]	; 0x44
		rcnt = SS(fs) - (UINT)fp->fptr % SS(fs);	/* Number of bytes left in the sector */
1a002cfc:	6ba3      	ldr	r3, [r4, #56]	; 0x38
1a002cfe:	f3c3 0308 	ubfx	r3, r3, #0, #9
1a002d02:	f5c3 7500 	rsb	r5, r3, #512	; 0x200
		if (rcnt > btr) rcnt = btr;					/* Clip it by btr if needed */
1a002d06:	42ae      	cmp	r6, r5
1a002d08:	d200      	bcs.n	1a002d0c <f_read+0xe0>
1a002d0a:	4635      	mov	r5, r6
		mem_cpy(rbuff, fp->buf + fp->fptr % SS(fs), rcnt);	/* Extract partial sector */
1a002d0c:	f104 0150 	add.w	r1, r4, #80	; 0x50
1a002d10:	462a      	mov	r2, r5
1a002d12:	4419      	add	r1, r3
1a002d14:	4638      	mov	r0, r7
1a002d16:	f7fd fe9f 	bl	1a000a58 <mem_cpy>
		btr -= rcnt, *br += rcnt, rbuff += rcnt, fp->fptr += rcnt) {
1a002d1a:	1b76      	subs	r6, r6, r5
1a002d1c:	f8da 3000 	ldr.w	r3, [sl]
1a002d20:	442b      	add	r3, r5
1a002d22:	f8ca 3000 	str.w	r3, [sl]
1a002d26:	442f      	add	r7, r5
1a002d28:	e9d4 230e 	ldrd	r2, r3, [r4, #56]	; 0x38
1a002d2c:	1952      	adds	r2, r2, r5
1a002d2e:	f143 0300 	adc.w	r3, r3, #0
1a002d32:	e9c4 230e 	strd	r2, r3, [r4, #56]	; 0x38
	for ( ;  btr;								/* Repeat until btr bytes read */
1a002d36:	2e00      	cmp	r6, #0
1a002d38:	d041      	beq.n	1a002dbe <f_read+0x192>
		if (fp->fptr % SS(fs) == 0) {			/* On the sector boundary? */
1a002d3a:	e9d4 230e 	ldrd	r2, r3, [r4, #56]	; 0x38
1a002d3e:	f3c2 0108 	ubfx	r1, r2, #0, #9
1a002d42:	9100      	str	r1, [sp, #0]
1a002d44:	2100      	movs	r1, #0
1a002d46:	9101      	str	r1, [sp, #4]
1a002d48:	e9dd 0100 	ldrd	r0, r1, [sp]
1a002d4c:	4301      	orrs	r1, r0
1a002d4e:	d1d5      	bne.n	1a002cfc <f_read+0xd0>
			csect = (UINT)(fp->fptr / SS(fs) & (fs->csize - 1));	/* Sector offset in the cluster */
1a002d50:	ea4f 2852 	mov.w	r8, r2, lsr #9
1a002d54:	ea48 58c3 	orr.w	r8, r8, r3, lsl #23
1a002d58:	9905      	ldr	r1, [sp, #20]
1a002d5a:	8949      	ldrh	r1, [r1, #10]
1a002d5c:	3901      	subs	r1, #1
			if (csect == 0) {					/* On the cluster boundary? */
1a002d5e:	ea18 0801 	ands.w	r8, r8, r1
1a002d62:	d108      	bne.n	1a002d76 <f_read+0x14a>
				if (fp->fptr == 0) {			/* On the top of the file? */
1a002d64:	4313      	orrs	r3, r2
1a002d66:	d18e      	bne.n	1a002c86 <f_read+0x5a>
					clst = fp->obj.sclust;		/* Follow cluster chain from the origin */
1a002d68:	68a0      	ldr	r0, [r4, #8]
				if (clst < 2) ABORT(fs, FR_INT_ERR);
1a002d6a:	2801      	cmp	r0, #1
1a002d6c:	d990      	bls.n	1a002c90 <f_read+0x64>
				if (clst == 0xFFFFFFFF) ABORT(fs, FR_DISK_ERR);
1a002d6e:	f1b0 3fff 	cmp.w	r0, #4294967295	; 0xffffffff
1a002d72:	d092      	beq.n	1a002c9a <f_read+0x6e>
				fp->clust = clst;				/* Update current cluster */
1a002d74:	6420      	str	r0, [r4, #64]	; 0x40
			sect = clst2sect(fs, fp->clust);	/* Get current sector */
1a002d76:	f8dd b014 	ldr.w	fp, [sp, #20]
1a002d7a:	6c21      	ldr	r1, [r4, #64]	; 0x40
1a002d7c:	4658      	mov	r0, fp
1a002d7e:	f7fd fef1 	bl	1a000b64 <clst2sect>
			if (sect == 0) ABORT(fs, FR_INT_ERR);
1a002d82:	4681      	mov	r9, r0
1a002d84:	2800      	cmp	r0, #0
1a002d86:	d08d      	beq.n	1a002ca4 <f_read+0x78>
			sect += csect;
1a002d88:	44c1      	add	r9, r8
			cc = btr / SS(fs);					/* When remaining bytes >= sector size, */
1a002d8a:	0a75      	lsrs	r5, r6, #9
			if (cc > 0) {						/* Read maximum contiguous sectors directly */
1a002d8c:	f5b6 7f00 	cmp.w	r6, #512	; 0x200
1a002d90:	d3a1      	bcc.n	1a002cd6 <f_read+0xaa>
				if (csect + cc > fs->csize) {	/* Clip at cluster boundary */
1a002d92:	eb08 0305 	add.w	r3, r8, r5
1a002d96:	f8bb 200a 	ldrh.w	r2, [fp, #10]
1a002d9a:	4293      	cmp	r3, r2
1a002d9c:	d901      	bls.n	1a002da2 <f_read+0x176>
					cc = fs->csize - csect;
1a002d9e:	eba2 0508 	sub.w	r5, r2, r8
				if (disk_read(fs->pdrv, rbuff, sect, cc) != RES_OK) ABORT(fs, FR_DISK_ERR);
1a002da2:	462b      	mov	r3, r5
1a002da4:	464a      	mov	r2, r9
1a002da6:	4639      	mov	r1, r7
1a002da8:	f89b 0001 	ldrb.w	r0, [fp, #1]
1a002dac:	f002 ff18 	bl	1a005be0 <disk_read>
1a002db0:	2800      	cmp	r0, #0
1a002db2:	f43f af7c 	beq.w	1a002cae <f_read+0x82>
1a002db6:	2301      	movs	r3, #1
1a002db8:	f884 3031 	strb.w	r3, [r4, #49]	; 0x31
1a002dbc:	9302      	str	r3, [sp, #8]
}
1a002dbe:	9802      	ldr	r0, [sp, #8]
1a002dc0:	b007      	add	sp, #28
1a002dc2:	e8bd 8ff0 	ldmia.w	sp!, {r4, r5, r6, r7, r8, r9, sl, fp, pc}
					if (disk_write(fs->pdrv, fp->buf, fp->sect, 1) != RES_OK) ABORT(fs, FR_DISK_ERR);
1a002dc6:	2301      	movs	r3, #1
1a002dc8:	f104 0150 	add.w	r1, r4, #80	; 0x50
1a002dcc:	f89b 0001 	ldrb.w	r0, [fp, #1]
1a002dd0:	f002 ff18 	bl	1a005c04 <disk_write>
1a002dd4:	b930      	cbnz	r0, 1a002de4 <f_read+0x1b8>
					fp->flag &= (BYTE)~FA_DIRTY;
1a002dd6:	f894 3030 	ldrb.w	r3, [r4, #48]	; 0x30
1a002dda:	f003 037f 	and.w	r3, r3, #127	; 0x7f
1a002dde:	f884 3030 	strb.w	r3, [r4, #48]	; 0x30
1a002de2:	e77f      	b.n	1a002ce4 <f_read+0xb8>
					if (disk_write(fs->pdrv, fp->buf, fp->sect, 1) != RES_OK) ABORT(fs, FR_DISK_ERR);
1a002de4:	2301      	movs	r3, #1
1a002de6:	f884 3031 	strb.w	r3, [r4, #49]	; 0x31
1a002dea:	9302      	str	r3, [sp, #8]
1a002dec:	e7e7      	b.n	1a002dbe <f_read+0x192>
				if (disk_read(fs->pdrv, fp->buf, sect, 1) != RES_OK)	ABORT(fs, FR_DISK_ERR);	/* Fill sector cache */
1a002dee:	2301      	movs	r3, #1
1a002df0:	f884 3031 	strb.w	r3, [r4, #49]	; 0x31
1a002df4:	9302      	str	r3, [sp, #8]
1a002df6:	e7e2      	b.n	1a002dbe <f_read+0x192>
	if (!(fp->flag & FA_READ)) LEAVE_FF(fs, FR_DENIED); /* Check access mode */
1a002df8:	2307      	movs	r3, #7
1a002dfa:	9302      	str	r3, [sp, #8]
1a002dfc:	e7df      	b.n	1a002dbe <f_read+0x192>

1a002dfe <f_write>:
{
1a002dfe:	e92d 4ff0 	stmdb	sp!, {r4, r5, r6, r7, r8, r9, sl, fp, lr}
1a002e02:	b087      	sub	sp, #28
1a002e04:	4604      	mov	r4, r0
1a002e06:	468b      	mov	fp, r1
1a002e08:	4615      	mov	r5, r2
1a002e0a:	469a      	mov	sl, r3
	*bw = 0;	/* Clear write byte counter */
1a002e0c:	2300      	movs	r3, #0
1a002e0e:	f8ca 3000 	str.w	r3, [sl]
	res = validate(&fp->obj, &fs);			/* Check validity of the file object */
1a002e12:	9003      	str	r0, [sp, #12]
1a002e14:	a905      	add	r1, sp, #20
1a002e16:	f7fe f846 	bl	1a000ea6 <validate>
	if (res != FR_OK || (res = (FRESULT)fp->err) != FR_OK) LEAVE_FF(fs, res);	/* Check validity */
1a002e1a:	9002      	str	r0, [sp, #8]
1a002e1c:	2800      	cmp	r0, #0
1a002e1e:	f040 80ec 	bne.w	1a002ffa <f_write+0x1fc>
1a002e22:	f894 3031 	ldrb.w	r3, [r4, #49]	; 0x31
1a002e26:	9302      	str	r3, [sp, #8]
1a002e28:	2b00      	cmp	r3, #0
1a002e2a:	f040 80e6 	bne.w	1a002ffa <f_write+0x1fc>
	if (!(fp->flag & FA_WRITE)) LEAVE_FF(fs, FR_DENIED);	/* Check access mode */
1a002e2e:	f894 3030 	ldrb.w	r3, [r4, #48]	; 0x30
1a002e32:	f013 0f02 	tst.w	r3, #2
1a002e36:	f000 80fa 	beq.w	1a00302e <f_write+0x230>
	if ((!FF_FS_EXFAT || fs->fs_type != FS_EXFAT) && (DWORD)(fp->fptr + btw) < (DWORD)fp->fptr) {
1a002e3a:	9b05      	ldr	r3, [sp, #20]
1a002e3c:	781b      	ldrb	r3, [r3, #0]
1a002e3e:	2b04      	cmp	r3, #4
1a002e40:	f000 8088 	beq.w	1a002f54 <f_write+0x156>
1a002e44:	6ba3      	ldr	r3, [r4, #56]	; 0x38
1a002e46:	42eb      	cmn	r3, r5
1a002e48:	f0c0 8084 	bcc.w	1a002f54 <f_write+0x156>
		btw = (UINT)(0xFFFFFFFF - (DWORD)fp->fptr);
1a002e4c:	43dd      	mvns	r5, r3
1a002e4e:	e081      	b.n	1a002f54 <f_write+0x156>
						clst = create_chain(&fp->obj, 0);	/* create a new cluster chain */
1a002e50:	2100      	movs	r1, #0
1a002e52:	9803      	ldr	r0, [sp, #12]
1a002e54:	f7fe fd88 	bl	1a001968 <create_chain>
1a002e58:	e09a      	b.n	1a002f90 <f_write+0x192>
						clst = create_chain(&fp->obj, fp->clust);	/* Follow or stretch cluster chain on the FAT */
1a002e5a:	6c21      	ldr	r1, [r4, #64]	; 0x40
1a002e5c:	9803      	ldr	r0, [sp, #12]
1a002e5e:	f7fe fd83 	bl	1a001968 <create_chain>
1a002e62:	e095      	b.n	1a002f90 <f_write+0x192>
				if (clst == 1) ABORT(fs, FR_INT_ERR);
1a002e64:	2302      	movs	r3, #2
1a002e66:	f884 3031 	strb.w	r3, [r4, #49]	; 0x31
1a002e6a:	9302      	str	r3, [sp, #8]
1a002e6c:	e0c5      	b.n	1a002ffa <f_write+0x1fc>
				if (clst == 0xFFFFFFFF) ABORT(fs, FR_DISK_ERR);
1a002e6e:	2301      	movs	r3, #1
1a002e70:	f884 3031 	strb.w	r3, [r4, #49]	; 0x31
1a002e74:	9302      	str	r3, [sp, #8]
1a002e76:	e0c0      	b.n	1a002ffa <f_write+0x1fc>
				if (disk_write(fs->pdrv, fp->buf, fp->sect, 1) != RES_OK) ABORT(fs, FR_DISK_ERR);
1a002e78:	2301      	movs	r3, #1
1a002e7a:	6c62      	ldr	r2, [r4, #68]	; 0x44
1a002e7c:	f104 0150 	add.w	r1, r4, #80	; 0x50
1a002e80:	9805      	ldr	r0, [sp, #20]
1a002e82:	7840      	ldrb	r0, [r0, #1]
1a002e84:	f002 febe 	bl	1a005c04 <disk_write>
1a002e88:	b930      	cbnz	r0, 1a002e98 <f_write+0x9a>
				fp->flag &= (BYTE)~FA_DIRTY;
1a002e8a:	f894 3030 	ldrb.w	r3, [r4, #48]	; 0x30
1a002e8e:	f003 037f 	and.w	r3, r3, #127	; 0x7f
1a002e92:	f884 3030 	strb.w	r3, [r4, #48]	; 0x30
1a002e96:	e08d      	b.n	1a002fb4 <f_write+0x1b6>
				if (disk_write(fs->pdrv, fp->buf, fp->sect, 1) != RES_OK) ABORT(fs, FR_DISK_ERR);
1a002e98:	2301      	movs	r3, #1
1a002e9a:	f884 3031 	strb.w	r3, [r4, #49]	; 0x31
1a002e9e:	9302      	str	r3, [sp, #8]
1a002ea0:	e0ab      	b.n	1a002ffa <f_write+0x1fc>
			if (sect == 0) ABORT(fs, FR_INT_ERR);
1a002ea2:	2302      	movs	r3, #2
1a002ea4:	f884 3031 	strb.w	r3, [r4, #49]	; 0x31
1a002ea8:	9302      	str	r3, [sp, #8]
1a002eaa:	e0a6      	b.n	1a002ffa <f_write+0x1fc>
				if (fp->sect - sect < cc) { /* Refill sector cache if it gets invalidated by the direct write */
1a002eac:	6c61      	ldr	r1, [r4, #68]	; 0x44
1a002eae:	1bc9      	subs	r1, r1, r7
1a002eb0:	4541      	cmp	r1, r8
1a002eb2:	d302      	bcc.n	1a002eba <f_write+0xbc>
				wcnt = SS(fs) * cc;		/* Number of bytes transferred */
1a002eb4:	ea4f 2848 	mov.w	r8, r8, lsl #9
				continue;
1a002eb8:	e030      	b.n	1a002f1c <f_write+0x11e>
					mem_cpy(fp->buf, wbuff + ((fp->sect - sect) * SS(fs)), SS(fs));
1a002eba:	f44f 7200 	mov.w	r2, #512	; 0x200
1a002ebe:	eb0b 2141 	add.w	r1, fp, r1, lsl #9
1a002ec2:	f104 0050 	add.w	r0, r4, #80	; 0x50
1a002ec6:	f7fd fdc7 	bl	1a000a58 <mem_cpy>
					fp->flag &= (BYTE)~FA_DIRTY;
1a002eca:	f894 3030 	ldrb.w	r3, [r4, #48]	; 0x30
1a002ece:	f003 037f 	and.w	r3, r3, #127	; 0x7f
1a002ed2:	f884 3030 	strb.w	r3, [r4, #48]	; 0x30
1a002ed6:	e7ed      	b.n	1a002eb4 <f_write+0xb6>
			if (fp->sect != sect && 		/* Fill sector cache with file data */
1a002ed8:	6c63      	ldr	r3, [r4, #68]	; 0x44
1a002eda:	42bb      	cmp	r3, r7
1a002edc:	d008      	beq.n	1a002ef0 <f_write+0xf2>
				fp->fptr < fp->obj.objsize &&
1a002ede:	e9d4 010e 	ldrd	r0, r1, [r4, #56]	; 0x38
1a002ee2:	e9d4 2304 	ldrd	r2, r3, [r4, #16]
			if (fp->sect != sect && 		/* Fill sector cache with file data */
1a002ee6:	4299      	cmp	r1, r3
1a002ee8:	bf08      	it	eq
1a002eea:	4290      	cmpeq	r0, r2
1a002eec:	f0c0 8089 	bcc.w	1a003002 <f_write+0x204>
			fp->sect = sect;
1a002ef0:	6467      	str	r7, [r4, #68]	; 0x44
		wcnt = SS(fs) - (UINT)fp->fptr % SS(fs);	/* Number of bytes left in the sector */
1a002ef2:	6ba3      	ldr	r3, [r4, #56]	; 0x38
1a002ef4:	f3c3 0308 	ubfx	r3, r3, #0, #9
1a002ef8:	f5c3 7800 	rsb	r8, r3, #512	; 0x200
		if (wcnt > btw) wcnt = btw;					/* Clip it by btw if needed */
1a002efc:	4545      	cmp	r5, r8
1a002efe:	d200      	bcs.n	1a002f02 <f_write+0x104>
1a002f00:	46a8      	mov	r8, r5
		mem_cpy(fp->buf + fp->fptr % SS(fs), wbuff, wcnt);	/* Fit data to the sector */
1a002f02:	f104 0050 	add.w	r0, r4, #80	; 0x50
1a002f06:	4642      	mov	r2, r8
1a002f08:	4659      	mov	r1, fp
1a002f0a:	4418      	add	r0, r3
1a002f0c:	f7fd fda4 	bl	1a000a58 <mem_cpy>
		fp->flag |= FA_DIRTY;
1a002f10:	f894 3030 	ldrb.w	r3, [r4, #48]	; 0x30
1a002f14:	f063 037f 	orn	r3, r3, #127	; 0x7f
1a002f18:	f884 3030 	strb.w	r3, [r4, #48]	; 0x30
		btw -= wcnt, *bw += wcnt, wbuff += wcnt, fp->fptr += wcnt, fp->obj.objsize = (fp->fptr > fp->obj.objsize) ? fp->fptr : fp->obj.objsize) {
1a002f1c:	eba5 0508 	sub.w	r5, r5, r8
1a002f20:	f8da 3000 	ldr.w	r3, [sl]
1a002f24:	4443      	add	r3, r8
1a002f26:	f8ca 3000 	str.w	r3, [sl]
1a002f2a:	44c3      	add	fp, r8
1a002f2c:	e9d4 230e 	ldrd	r2, r3, [r4, #56]	; 0x38
1a002f30:	eb12 0208 	adds.w	r2, r2, r8
1a002f34:	f143 0300 	adc.w	r3, r3, #0
1a002f38:	e9c4 230e 	strd	r2, r3, [r4, #56]	; 0x38
1a002f3c:	e9d4 0104 	ldrd	r0, r1, [r4, #16]
1a002f40:	4617      	mov	r7, r2
1a002f42:	461e      	mov	r6, r3
1a002f44:	428b      	cmp	r3, r1
1a002f46:	bf08      	it	eq
1a002f48:	4282      	cmpeq	r2, r0
1a002f4a:	d201      	bcs.n	1a002f50 <f_write+0x152>
1a002f4c:	4607      	mov	r7, r0
1a002f4e:	460e      	mov	r6, r1
1a002f50:	6127      	str	r7, [r4, #16]
1a002f52:	6166      	str	r6, [r4, #20]
	for ( ;  btw;							/* Repeat until all data written */
1a002f54:	2d00      	cmp	r5, #0
1a002f56:	d063      	beq.n	1a003020 <f_write+0x222>
		if (fp->fptr % SS(fs) == 0) {		/* On the sector boundary? */
1a002f58:	e9d4 230e 	ldrd	r2, r3, [r4, #56]	; 0x38
1a002f5c:	f3c2 0108 	ubfx	r1, r2, #0, #9
1a002f60:	9100      	str	r1, [sp, #0]
1a002f62:	2100      	movs	r1, #0
1a002f64:	9101      	str	r1, [sp, #4]
1a002f66:	e9dd 0100 	ldrd	r0, r1, [sp]
1a002f6a:	4301      	orrs	r1, r0
1a002f6c:	d1c1      	bne.n	1a002ef2 <f_write+0xf4>
			csect = (UINT)(fp->fptr / SS(fs)) & (fs->csize - 1);	/* Sector offset in the cluster */
1a002f6e:	ea4f 2952 	mov.w	r9, r2, lsr #9
1a002f72:	ea49 59c3 	orr.w	r9, r9, r3, lsl #23
1a002f76:	9905      	ldr	r1, [sp, #20]
1a002f78:	8949      	ldrh	r1, [r1, #10]
1a002f7a:	3901      	subs	r1, #1
			if (csect == 0) {				/* On the cluster boundary? */
1a002f7c:	ea19 0901 	ands.w	r9, r9, r1
1a002f80:	d113      	bne.n	1a002faa <f_write+0x1ac>
				if (fp->fptr == 0) {		/* On the top of the file? */
1a002f82:	4313      	orrs	r3, r2
1a002f84:	f47f af69 	bne.w	1a002e5a <f_write+0x5c>
					clst = fp->obj.sclust;	/* Follow from the origin */
1a002f88:	68a0      	ldr	r0, [r4, #8]
					if (clst == 0) {		/* If no cluster is allocated, */
1a002f8a:	2800      	cmp	r0, #0
1a002f8c:	f43f af60 	beq.w	1a002e50 <f_write+0x52>
				if (clst == 0) break;		/* Could not allocate a new cluster (disk full) */
1a002f90:	2800      	cmp	r0, #0
1a002f92:	d045      	beq.n	1a003020 <f_write+0x222>
				if (clst == 1) ABORT(fs, FR_INT_ERR);
1a002f94:	2801      	cmp	r0, #1
1a002f96:	f43f af65 	beq.w	1a002e64 <f_write+0x66>
				if (clst == 0xFFFFFFFF) ABORT(fs, FR_DISK_ERR);
1a002f9a:	f1b0 3fff 	cmp.w	r0, #4294967295	; 0xffffffff
1a002f9e:	f43f af66 	beq.w	1a002e6e <f_write+0x70>
				fp->clust = clst;			/* Update current cluster */
1a002fa2:	6420      	str	r0, [r4, #64]	; 0x40
				if (fp->obj.sclust == 0) fp->obj.sclust = clst;	/* Set start cluster if the first write */
1a002fa4:	68a3      	ldr	r3, [r4, #8]
1a002fa6:	b903      	cbnz	r3, 1a002faa <f_write+0x1ac>
1a002fa8:	60a0      	str	r0, [r4, #8]
			if (fp->flag & FA_DIRTY) {		/* Write-back sector cache */
1a002faa:	f994 3030 	ldrsb.w	r3, [r4, #48]	; 0x30
1a002fae:	2b00      	cmp	r3, #0
1a002fb0:	f6ff af62 	blt.w	1a002e78 <f_write+0x7a>
			sect = clst2sect(fs, fp->clust);	/* Get current sector */
1a002fb4:	9e05      	ldr	r6, [sp, #20]
1a002fb6:	6c21      	ldr	r1, [r4, #64]	; 0x40
1a002fb8:	4630      	mov	r0, r6
1a002fba:	f7fd fdd3 	bl	1a000b64 <clst2sect>
			if (sect == 0) ABORT(fs, FR_INT_ERR);
1a002fbe:	4607      	mov	r7, r0
1a002fc0:	2800      	cmp	r0, #0
1a002fc2:	f43f af6e 	beq.w	1a002ea2 <f_write+0xa4>
			sect += csect;
1a002fc6:	444f      	add	r7, r9
			cc = btw / SS(fs);				/* When remaining bytes >= sector size, */
1a002fc8:	ea4f 2855 	mov.w	r8, r5, lsr #9
			if (cc > 0) {					/* Write maximum contiguous sectors directly */
1a002fcc:	f5b5 7f00 	cmp.w	r5, #512	; 0x200
1a002fd0:	d382      	bcc.n	1a002ed8 <f_write+0xda>
				if (csect + cc > fs->csize) {	/* Clip at cluster boundary */
1a002fd2:	eb09 0308 	add.w	r3, r9, r8
1a002fd6:	8972      	ldrh	r2, [r6, #10]
1a002fd8:	4293      	cmp	r3, r2
1a002fda:	d901      	bls.n	1a002fe0 <f_write+0x1e2>
					cc = fs->csize - csect;
1a002fdc:	eba2 0809 	sub.w	r8, r2, r9
				if (disk_write(fs->pdrv, wbuff, sect, cc) != RES_OK) ABORT(fs, FR_DISK_ERR);
1a002fe0:	4643      	mov	r3, r8
1a002fe2:	463a      	mov	r2, r7
1a002fe4:	4659      	mov	r1, fp
1a002fe6:	7870      	ldrb	r0, [r6, #1]
1a002fe8:	f002 fe0c 	bl	1a005c04 <disk_write>
1a002fec:	2800      	cmp	r0, #0
1a002fee:	f43f af5d 	beq.w	1a002eac <f_write+0xae>
1a002ff2:	2301      	movs	r3, #1
1a002ff4:	f884 3031 	strb.w	r3, [r4, #49]	; 0x31
1a002ff8:	9302      	str	r3, [sp, #8]
}
1a002ffa:	9802      	ldr	r0, [sp, #8]
1a002ffc:	b007      	add	sp, #28
1a002ffe:	e8bd 8ff0 	ldmia.w	sp!, {r4, r5, r6, r7, r8, r9, sl, fp, pc}
				disk_read(fs->pdrv, fp->buf, sect, 1) != RES_OK) {
1a003002:	2301      	movs	r3, #1
1a003004:	463a      	mov	r2, r7
1a003006:	f104 0150 	add.w	r1, r4, #80	; 0x50
1a00300a:	7870      	ldrb	r0, [r6, #1]
1a00300c:	f002 fde8 	bl	1a005be0 <disk_read>
				fp->fptr < fp->obj.objsize &&
1a003010:	2800      	cmp	r0, #0
1a003012:	f43f af6d 	beq.w	1a002ef0 <f_write+0xf2>
					ABORT(fs, FR_DISK_ERR);
1a003016:	2301      	movs	r3, #1
1a003018:	f884 3031 	strb.w	r3, [r4, #49]	; 0x31
1a00301c:	9302      	str	r3, [sp, #8]
1a00301e:	e7ec      	b.n	1a002ffa <f_write+0x1fc>
	fp->flag |= FA_MODIFIED;				/* Set file change flag */
1a003020:	f894 3030 	ldrb.w	r3, [r4, #48]	; 0x30
1a003024:	f043 0340 	orr.w	r3, r3, #64	; 0x40
1a003028:	f884 3030 	strb.w	r3, [r4, #48]	; 0x30
	LEAVE_FF(fs, FR_OK);
1a00302c:	e7e5      	b.n	1a002ffa <f_write+0x1fc>
	if (!(fp->flag & FA_WRITE)) LEAVE_FF(fs, FR_DENIED);	/* Check access mode */
1a00302e:	2307      	movs	r3, #7
1a003030:	9302      	str	r3, [sp, #8]
1a003032:	e7e2      	b.n	1a002ffa <f_write+0x1fc>

1a003034 <putc_bfd>:
{
1a003034:	b5f0      	push	{r4, r5, r6, r7, lr}
1a003036:	b083      	sub	sp, #12
	i = pb->idx;			/* Write index of pb->buf[] */
1a003038:	6845      	ldr	r5, [r0, #4]
	if (i < 0) return;
1a00303a:	2d00      	cmp	r5, #0
1a00303c:	db47      	blt.n	1a0030ce <putc_bfd+0x9a>
1a00303e:	4604      	mov	r4, r0
	nc = pb->nchr;			/* Write unit counter */
1a003040:	6886      	ldr	r6, [r0, #8]
		if (pb->ct == 0) {	/* Out of multi-byte sequence? */
1a003042:	6963      	ldr	r3, [r4, #20]
1a003044:	2b00      	cmp	r3, #0
1a003046:	d044      	beq.n	1a0030d2 <putc_bfd+0x9e>
			if (((BYTE)c & 0xC0) != 0x80) {	/* Broken sequence? */
1a003048:	f001 02c0 	and.w	r2, r1, #192	; 0xc0
1a00304c:	2a80      	cmp	r2, #128	; 0x80
1a00304e:	d15a      	bne.n	1a003106 <putc_bfd+0xd2>
			pb->bs[++pb->wi] = (BYTE)c;	/* Save the trailing byte */
1a003050:	6922      	ldr	r2, [r4, #16]
1a003052:	3201      	adds	r2, #1
1a003054:	6122      	str	r2, [r4, #16]
1a003056:	4422      	add	r2, r4
1a003058:	7311      	strb	r1, [r2, #12]
			if (--pb->ct == 0) break;	/* End of multi-byte sequence? */
1a00305a:	3b01      	subs	r3, #1
1a00305c:	6163      	str	r3, [r4, #20]
1a00305e:	bbb3      	cbnz	r3, 1a0030ce <putc_bfd+0x9a>
	tp = (TCHAR*)pb->bs;
1a003060:	f104 030c 	add.w	r3, r4, #12
1a003064:	9300      	str	r3, [sp, #0]
	dc = tchar2uni((const TCHAR **)&tp);	/* UTF-8 ==> UTF-16 */
1a003066:	4668      	mov	r0, sp
1a003068:	f7fd fd20 	bl	1a000aac <tchar2uni>
	if (dc == 0xFFFFFFFF) return;
1a00306c:	f1b0 3fff 	cmp.w	r0, #4294967295	; 0xffffffff
1a003070:	d02d      	beq.n	1a0030ce <putc_bfd+0x9a>
	wc = (WCHAR)dc;
1a003072:	b282      	uxth	r2, r0
	if (hs != 0) {				/* 4-byte */
1a003074:	0c03      	lsrs	r3, r0, #16
1a003076:	d049      	beq.n	1a00310c <putc_bfd+0xd8>
		nc += 3;
1a003078:	3603      	adds	r6, #3
		hs = (hs & 0x3FF) + 0x40;
1a00307a:	f3c3 0309 	ubfx	r3, r3, #0, #10
1a00307e:	3340      	adds	r3, #64	; 0x40
		pb->buf[i++] = (BYTE)(0xF0 | hs >> 8);
1a003080:	1c6f      	adds	r7, r5, #1
1a003082:	0a19      	lsrs	r1, r3, #8
1a003084:	f041 01f0 	orr.w	r1, r1, #240	; 0xf0
1a003088:	eb04 0c05 	add.w	ip, r4, r5
1a00308c:	f88c 1018 	strb.w	r1, [ip, #24]
		pb->buf[i++] = (BYTE)(0x80 | (hs >> 2 & 0x3F));
1a003090:	f3c3 0c85 	ubfx	ip, r3, #2, #6
1a003094:	1ca9      	adds	r1, r5, #2
1a003096:	f04c 0c80 	orr.w	ip, ip, #128	; 0x80
1a00309a:	4427      	add	r7, r4
1a00309c:	f887 c018 	strb.w	ip, [r7, #24]
		pb->buf[i++] = (BYTE)(0x80 | (hs & 3) << 4 | (wc >> 6 & 0x0F));
1a0030a0:	011b      	lsls	r3, r3, #4
1a0030a2:	f003 0330 	and.w	r3, r3, #48	; 0x30
1a0030a6:	f063 037f 	orn	r3, r3, #127	; 0x7f
1a0030aa:	f3c2 1283 	ubfx	r2, r2, #6, #4
1a0030ae:	4313      	orrs	r3, r2
1a0030b0:	1cea      	adds	r2, r5, #3
1a0030b2:	4421      	add	r1, r4
1a0030b4:	760b      	strb	r3, [r1, #24]
		pb->buf[i++] = (BYTE)(0x80 | (wc & 0x3F));
1a0030b6:	f000 033f 	and.w	r3, r0, #63	; 0x3f
1a0030ba:	1d2f      	adds	r7, r5, #4
1a0030bc:	f043 0380 	orr.w	r3, r3, #128	; 0x80
1a0030c0:	4422      	add	r2, r4
1a0030c2:	7613      	strb	r3, [r2, #24]
	if (i >= (int)(sizeof pb->buf) - 4) {	/* Write buffered characters to the file */
1a0030c4:	2f3b      	cmp	r7, #59	; 0x3b
1a0030c6:	dc48      	bgt.n	1a00315a <putc_bfd+0x126>
	pb->idx = i;
1a0030c8:	6067      	str	r7, [r4, #4]
	pb->nchr = nc + 1;
1a0030ca:	3601      	adds	r6, #1
1a0030cc:	60a6      	str	r6, [r4, #8]
}
1a0030ce:	b003      	add	sp, #12
1a0030d0:	bdf0      	pop	{r4, r5, r6, r7, pc}
			pb->bs[pb->wi = 0] = (BYTE)c;	/* Save 1st byte */
1a0030d2:	6123      	str	r3, [r4, #16]
1a0030d4:	7321      	strb	r1, [r4, #12]
			if ((BYTE)c < 0x80) break;					/* 1-byte? */
1a0030d6:	f011 0f80 	tst.w	r1, #128	; 0x80
1a0030da:	d0c1      	beq.n	1a003060 <putc_bfd+0x2c>
			if (((BYTE)c & 0xE0) == 0xC0) pb->ct = 1;	/* 2-byte? */
1a0030dc:	f001 03e0 	and.w	r3, r1, #224	; 0xe0
1a0030e0:	2bc0      	cmp	r3, #192	; 0xc0
1a0030e2:	d00a      	beq.n	1a0030fa <putc_bfd+0xc6>
			if (((BYTE)c & 0xF0) == 0xE0) pb->ct = 2;	/* 3-byte? */
1a0030e4:	f001 03f0 	and.w	r3, r1, #240	; 0xf0
1a0030e8:	2be0      	cmp	r3, #224	; 0xe0
1a0030ea:	d009      	beq.n	1a003100 <putc_bfd+0xcc>
			if (((BYTE)c & 0xF1) == 0xF0) pb->ct = 3;	/* 4-byte? */
1a0030ec:	f001 01f1 	and.w	r1, r1, #241	; 0xf1
1a0030f0:	29f0      	cmp	r1, #240	; 0xf0
1a0030f2:	d1ec      	bne.n	1a0030ce <putc_bfd+0x9a>
1a0030f4:	2303      	movs	r3, #3
1a0030f6:	6163      	str	r3, [r4, #20]
			return;
1a0030f8:	e7e9      	b.n	1a0030ce <putc_bfd+0x9a>
			if (((BYTE)c & 0xE0) == 0xC0) pb->ct = 1;	/* 2-byte? */
1a0030fa:	2301      	movs	r3, #1
1a0030fc:	6163      	str	r3, [r4, #20]
1a0030fe:	e7f1      	b.n	1a0030e4 <putc_bfd+0xb0>
			if (((BYTE)c & 0xF0) == 0xE0) pb->ct = 2;	/* 3-byte? */
1a003100:	2302      	movs	r3, #2
1a003102:	6163      	str	r3, [r4, #20]
1a003104:	e7f2      	b.n	1a0030ec <putc_bfd+0xb8>
				pb->ct = 0; continue;
1a003106:	2300      	movs	r3, #0
1a003108:	6163      	str	r3, [r4, #20]
		if (pb->ct == 0) {	/* Out of multi-byte sequence? */
1a00310a:	e79a      	b.n	1a003042 <putc_bfd+0xe>
		if (wc < 0x80) {		/* 1-byte */
1a00310c:	2a7f      	cmp	r2, #127	; 0x7f
1a00310e:	d803      	bhi.n	1a003118 <putc_bfd+0xe4>
			pb->buf[i++] = (BYTE)wc;
1a003110:	1c6f      	adds	r7, r5, #1
1a003112:	4425      	add	r5, r4
1a003114:	7628      	strb	r0, [r5, #24]
1a003116:	e7d5      	b.n	1a0030c4 <putc_bfd+0x90>
			if (wc < 0x800) {	/* 2-byte */
1a003118:	f5b2 6f00 	cmp.w	r2, #2048	; 0x800
1a00311c:	d20e      	bcs.n	1a00313c <putc_bfd+0x108>
				nc += 1;
1a00311e:	3601      	adds	r6, #1
				pb->buf[i++] = (BYTE)(0xC0 | wc >> 6);
1a003120:	1c69      	adds	r1, r5, #1
1a003122:	0992      	lsrs	r2, r2, #6
1a003124:	f062 023f 	orn	r2, r2, #63	; 0x3f
1a003128:	4425      	add	r5, r4
1a00312a:	762a      	strb	r2, [r5, #24]
			pb->buf[i++] = (BYTE)(0x80 | (wc & 0x3F));
1a00312c:	f000 033f 	and.w	r3, r0, #63	; 0x3f
1a003130:	1c4f      	adds	r7, r1, #1
1a003132:	f043 0380 	orr.w	r3, r3, #128	; 0x80
1a003136:	4421      	add	r1, r4
1a003138:	760b      	strb	r3, [r1, #24]
1a00313a:	e7c3      	b.n	1a0030c4 <putc_bfd+0x90>
				nc += 2;
1a00313c:	3602      	adds	r6, #2
				pb->buf[i++] = (BYTE)(0xE0 | wc >> 12);
1a00313e:	1c6b      	adds	r3, r5, #1
1a003140:	0b11      	lsrs	r1, r2, #12
1a003142:	f041 01e0 	orr.w	r1, r1, #224	; 0xe0
1a003146:	1967      	adds	r7, r4, r5
1a003148:	7639      	strb	r1, [r7, #24]
				pb->buf[i++] = (BYTE)(0x80 | (wc >> 6 & 0x3F));
1a00314a:	f3c2 1285 	ubfx	r2, r2, #6, #6
1a00314e:	1ca9      	adds	r1, r5, #2
1a003150:	f042 0280 	orr.w	r2, r2, #128	; 0x80
1a003154:	4423      	add	r3, r4
1a003156:	761a      	strb	r2, [r3, #24]
1a003158:	e7e8      	b.n	1a00312c <putc_bfd+0xf8>
		f_write(pb->fp, pb->buf, (UINT)i, &n);
1a00315a:	4621      	mov	r1, r4
1a00315c:	f851 0b18 	ldr.w	r0, [r1], #24
1a003160:	ab01      	add	r3, sp, #4
1a003162:	463a      	mov	r2, r7
1a003164:	f7ff fe4b 	bl	1a002dfe <f_write>
		i = (n == (UINT)i) ? 0 : -1;
1a003168:	9b01      	ldr	r3, [sp, #4]
1a00316a:	429f      	cmp	r7, r3
1a00316c:	d002      	beq.n	1a003174 <putc_bfd+0x140>
1a00316e:	f04f 37ff 	mov.w	r7, #4294967295	; 0xffffffff
1a003172:	e7a9      	b.n	1a0030c8 <putc_bfd+0x94>
1a003174:	2700      	movs	r7, #0
1a003176:	e7a7      	b.n	1a0030c8 <putc_bfd+0x94>

1a003178 <putc_flush>:
	if (   pb->idx >= 0	/* Flush buffered characters to the file */
1a003178:	6842      	ldr	r2, [r0, #4]
1a00317a:	2a00      	cmp	r2, #0
1a00317c:	db10      	blt.n	1a0031a0 <putc_flush+0x28>
{
1a00317e:	b510      	push	{r4, lr}
1a003180:	b082      	sub	sp, #8
1a003182:	4604      	mov	r4, r0
		&& f_write(pb->fp, pb->buf, (UINT)pb->idx, &nw) == FR_OK
1a003184:	4601      	mov	r1, r0
1a003186:	f851 0b18 	ldr.w	r0, [r1], #24
1a00318a:	ab01      	add	r3, sp, #4
1a00318c:	f7ff fe37 	bl	1a002dfe <f_write>
1a003190:	b948      	cbnz	r0, 1a0031a6 <putc_flush+0x2e>
		&& (UINT)pb->idx == nw) return pb->nchr;
1a003192:	6862      	ldr	r2, [r4, #4]
1a003194:	9b01      	ldr	r3, [sp, #4]
1a003196:	429a      	cmp	r2, r3
1a003198:	d108      	bne.n	1a0031ac <putc_flush+0x34>
1a00319a:	68a0      	ldr	r0, [r4, #8]
}
1a00319c:	b002      	add	sp, #8
1a00319e:	bd10      	pop	{r4, pc}
	return EOF;
1a0031a0:	f04f 30ff 	mov.w	r0, #4294967295	; 0xffffffff
}
1a0031a4:	4770      	bx	lr
	return EOF;
1a0031a6:	f04f 30ff 	mov.w	r0, #4294967295	; 0xffffffff
1a0031aa:	e7f7      	b.n	1a00319c <putc_flush+0x24>
1a0031ac:	f04f 30ff 	mov.w	r0, #4294967295	; 0xffffffff
1a0031b0:	e7f4      	b.n	1a00319c <putc_flush+0x24>

1a0031b2 <f_sync>:
{
1a0031b2:	b570      	push	{r4, r5, r6, lr}
1a0031b4:	b096      	sub	sp, #88	; 0x58
1a0031b6:	4604      	mov	r4, r0
	res = validate(&fp->obj, &fs);	/* Check validity of the file object */
1a0031b8:	a915      	add	r1, sp, #84	; 0x54
1a0031ba:	f7fd fe74 	bl	1a000ea6 <validate>
	if (res == FR_OK) {
1a0031be:	b998      	cbnz	r0, 1a0031e8 <f_sync+0x36>
		if (fp->flag & FA_MODIFIED) {	/* Is there any change to the file? */
1a0031c0:	f894 3030 	ldrb.w	r3, [r4, #48]	; 0x30
1a0031c4:	f013 0f40 	tst.w	r3, #64	; 0x40
1a0031c8:	d00e      	beq.n	1a0031e8 <f_sync+0x36>
			if (fp->flag & FA_DIRTY) {	/* Write-back cached data if needed */
1a0031ca:	f013 0f80 	tst.w	r3, #128	; 0x80
1a0031ce:	d10d      	bne.n	1a0031ec <f_sync+0x3a>
			tm = GET_FATTIME();				/* Modified time */
1a0031d0:	f002 fcd6 	bl	1a005b80 <get_fattime>
1a0031d4:	4605      	mov	r5, r0
			if (fs->fs_type == FS_EXFAT) {
1a0031d6:	9815      	ldr	r0, [sp, #84]	; 0x54
1a0031d8:	7803      	ldrb	r3, [r0, #0]
1a0031da:	2b04      	cmp	r3, #4
1a0031dc:	d017      	beq.n	1a00320e <f_sync+0x5c>
				res = move_window(fs, fp->dir_sect);
1a0031de:	6ca1      	ldr	r1, [r4, #72]	; 0x48
1a0031e0:	f7fd fea8 	bl	1a000f34 <move_window>
				if (res == FR_OK) {
1a0031e4:	2800      	cmp	r0, #0
1a0031e6:	d062      	beq.n	1a0032ae <f_sync+0xfc>
}
1a0031e8:	b016      	add	sp, #88	; 0x58
1a0031ea:	bd70      	pop	{r4, r5, r6, pc}
				if (disk_write(fs->pdrv, fp->buf, fp->sect, 1) != RES_OK) LEAVE_FF(fs, FR_DISK_ERR);
1a0031ec:	2301      	movs	r3, #1
1a0031ee:	6c62      	ldr	r2, [r4, #68]	; 0x44
1a0031f0:	f104 0150 	add.w	r1, r4, #80	; 0x50
1a0031f4:	9815      	ldr	r0, [sp, #84]	; 0x54
1a0031f6:	7840      	ldrb	r0, [r0, #1]
1a0031f8:	f002 fd04 	bl	1a005c04 <disk_write>
1a0031fc:	2800      	cmp	r0, #0
1a0031fe:	d17c      	bne.n	1a0032fa <f_sync+0x148>
				fp->flag &= (BYTE)~FA_DIRTY;
1a003200:	f894 3030 	ldrb.w	r3, [r4, #48]	; 0x30
1a003204:	f003 037f 	and.w	r3, r3, #127	; 0x7f
1a003208:	f884 3030 	strb.w	r3, [r4, #48]	; 0x30
1a00320c:	e7e0      	b.n	1a0031d0 <f_sync+0x1e>
				res = fill_first_frag(&fp->obj);	/* Fill first fragment on the FAT if needed */
1a00320e:	4620      	mov	r0, r4
1a003210:	f7fe fa7a 	bl	1a001708 <fill_first_frag>
				if (res == FR_OK) {
1a003214:	2800      	cmp	r0, #0
1a003216:	d043      	beq.n	1a0032a0 <f_sync+0xee>
				if (res == FR_OK) {
1a003218:	2800      	cmp	r0, #0
1a00321a:	d1e5      	bne.n	1a0031e8 <f_sync+0x36>
					res = load_obj_xdir(&dj, &fp->obj);	/* Load directory entry block */
1a00321c:	4621      	mov	r1, r4
1a00321e:	4668      	mov	r0, sp
1a003220:	f7fe fe54 	bl	1a001ecc <load_obj_xdir>
					if (res == FR_OK) {
1a003224:	2800      	cmp	r0, #0
1a003226:	d1df      	bne.n	1a0031e8 <f_sync+0x36>
						fs->dirbuf[XDIR_Attr] |= AM_ARC;				/* Set archive attribute to indicate that the file has been changed */
1a003228:	9b15      	ldr	r3, [sp, #84]	; 0x54
1a00322a:	6919      	ldr	r1, [r3, #16]
1a00322c:	790a      	ldrb	r2, [r1, #4]
1a00322e:	f042 0220 	orr.w	r2, r2, #32
1a003232:	710a      	strb	r2, [r1, #4]
						fs->dirbuf[XDIR_GenFlags] = fp->obj.stat | 1;	/* Update file allocation information */
1a003234:	79e2      	ldrb	r2, [r4, #7]
1a003236:	6919      	ldr	r1, [r3, #16]
1a003238:	f042 0201 	orr.w	r2, r2, #1
1a00323c:	f881 2021 	strb.w	r2, [r1, #33]	; 0x21
						st_dword(fs->dirbuf + XDIR_FstClus, fp->obj.sclust);
1a003240:	6918      	ldr	r0, [r3, #16]
1a003242:	68a1      	ldr	r1, [r4, #8]
1a003244:	3034      	adds	r0, #52	; 0x34
1a003246:	f7fd fbea 	bl	1a000a1e <st_dword>
						st_qword(fs->dirbuf + XDIR_FileSize, fp->obj.objsize);
1a00324a:	9b15      	ldr	r3, [sp, #84]	; 0x54
1a00324c:	6918      	ldr	r0, [r3, #16]
1a00324e:	e9d4 2304 	ldrd	r2, r3, [r4, #16]
1a003252:	3038      	adds	r0, #56	; 0x38
1a003254:	f7fd fbed 	bl	1a000a32 <st_qword>
						st_qword(fs->dirbuf + XDIR_ValidFileSize, fp->obj.objsize);
1a003258:	9b15      	ldr	r3, [sp, #84]	; 0x54
1a00325a:	6918      	ldr	r0, [r3, #16]
1a00325c:	e9d4 2304 	ldrd	r2, r3, [r4, #16]
1a003260:	3028      	adds	r0, #40	; 0x28
1a003262:	f7fd fbe6 	bl	1a000a32 <st_qword>
						st_dword(fs->dirbuf + XDIR_ModTime, tm);		/* Update modified time */
1a003266:	9b15      	ldr	r3, [sp, #84]	; 0x54
1a003268:	6918      	ldr	r0, [r3, #16]
1a00326a:	4629      	mov	r1, r5
1a00326c:	300c      	adds	r0, #12
1a00326e:	f7fd fbd6 	bl	1a000a1e <st_dword>
						fs->dirbuf[XDIR_ModTime10] = 0;
1a003272:	9b15      	ldr	r3, [sp, #84]	; 0x54
1a003274:	691a      	ldr	r2, [r3, #16]
1a003276:	2100      	movs	r1, #0
1a003278:	7551      	strb	r1, [r2, #21]
						st_dword(fs->dirbuf + XDIR_AccTime, 0);
1a00327a:	6918      	ldr	r0, [r3, #16]
1a00327c:	3010      	adds	r0, #16
1a00327e:	f7fd fbce 	bl	1a000a1e <st_dword>
						res = store_xdir(&dj);	/* Restore it to the directory */
1a003282:	4668      	mov	r0, sp
1a003284:	f7fe fee7 	bl	1a002056 <store_xdir>
						if (res == FR_OK) {
1a003288:	2800      	cmp	r0, #0
1a00328a:	d1ad      	bne.n	1a0031e8 <f_sync+0x36>
							res = sync_fs(fs);
1a00328c:	9815      	ldr	r0, [sp, #84]	; 0x54
1a00328e:	f7ff faf9 	bl	1a002884 <sync_fs>
							fp->flag &= (BYTE)~FA_MODIFIED;
1a003292:	f894 3030 	ldrb.w	r3, [r4, #48]	; 0x30
1a003296:	f023 0340 	bic.w	r3, r3, #64	; 0x40
1a00329a:	f884 3030 	strb.w	r3, [r4, #48]	; 0x30
					FREE_NAMBUF();
1a00329e:	e7a3      	b.n	1a0031e8 <f_sync+0x36>
					res = fill_last_frag(&fp->obj, fp->clust, 0xFFFFFFFF);	/* Fill last fragment on the FAT if needed */
1a0032a0:	f04f 32ff 	mov.w	r2, #4294967295	; 0xffffffff
1a0032a4:	6c21      	ldr	r1, [r4, #64]	; 0x40
1a0032a6:	4620      	mov	r0, r4
1a0032a8:	f7fe fa16 	bl	1a0016d8 <fill_last_frag>
1a0032ac:	e7b4      	b.n	1a003218 <f_sync+0x66>
					dir = fp->dir_ptr;
1a0032ae:	6ce6      	ldr	r6, [r4, #76]	; 0x4c
					dir[DIR_Attr] |= AM_ARC;						/* Set archive attribute to indicate that the file has been changed */
1a0032b0:	7af3      	ldrb	r3, [r6, #11]
1a0032b2:	f043 0320 	orr.w	r3, r3, #32
1a0032b6:	72f3      	strb	r3, [r6, #11]
					st_clust(fp->obj.fs, dir, fp->obj.sclust);		/* Update file allocation information  */
1a0032b8:	68a2      	ldr	r2, [r4, #8]
1a0032ba:	4631      	mov	r1, r6
1a0032bc:	6820      	ldr	r0, [r4, #0]
1a0032be:	f7fd fc70 	bl	1a000ba2 <st_clust>
					st_dword(dir + DIR_FileSize, (DWORD)fp->obj.objsize);	/* Update file size */
1a0032c2:	6921      	ldr	r1, [r4, #16]
1a0032c4:	f106 001c 	add.w	r0, r6, #28
1a0032c8:	f7fd fba9 	bl	1a000a1e <st_dword>
					st_dword(dir + DIR_ModTime, tm);				/* Update modified time */
1a0032cc:	4629      	mov	r1, r5
1a0032ce:	f106 0016 	add.w	r0, r6, #22
1a0032d2:	f7fd fba4 	bl	1a000a1e <st_dword>
					st_word(dir + DIR_LstAccDate, 0);
1a0032d6:	2100      	movs	r1, #0
1a0032d8:	f106 0012 	add.w	r0, r6, #18
1a0032dc:	f7fd fb9b 	bl	1a000a16 <st_word>
					fs->wflag = 1;
1a0032e0:	9b15      	ldr	r3, [sp, #84]	; 0x54
1a0032e2:	2201      	movs	r2, #1
1a0032e4:	70da      	strb	r2, [r3, #3]
					res = sync_fs(fs);					/* Restore it to the directory */
1a0032e6:	9815      	ldr	r0, [sp, #84]	; 0x54
1a0032e8:	f7ff facc 	bl	1a002884 <sync_fs>
					fp->flag &= (BYTE)~FA_MODIFIED;
1a0032ec:	f894 3030 	ldrb.w	r3, [r4, #48]	; 0x30
1a0032f0:	f023 0340 	bic.w	r3, r3, #64	; 0x40
1a0032f4:	f884 3030 	strb.w	r3, [r4, #48]	; 0x30
1a0032f8:	e776      	b.n	1a0031e8 <f_sync+0x36>
				if (disk_write(fs->pdrv, fp->buf, fp->sect, 1) != RES_OK) LEAVE_FF(fs, FR_DISK_ERR);
1a0032fa:	2001      	movs	r0, #1
1a0032fc:	e774      	b.n	1a0031e8 <f_sync+0x36>

1a0032fe <f_close>:
{
1a0032fe:	b510      	push	{r4, lr}
1a003300:	b082      	sub	sp, #8
1a003302:	4604      	mov	r4, r0
	res = f_sync(fp);					/* Flush cached data */
1a003304:	f7ff ff55 	bl	1a0031b2 <f_sync>
	if (res == FR_OK)
1a003308:	b108      	cbz	r0, 1a00330e <f_close+0x10>
}
1a00330a:	b002      	add	sp, #8
1a00330c:	bd10      	pop	{r4, pc}
		res = validate(&fp->obj, &fs);	/* Lock volume */
1a00330e:	a901      	add	r1, sp, #4
1a003310:	4620      	mov	r0, r4
1a003312:	f7fd fdc8 	bl	1a000ea6 <validate>
		if (res == FR_OK) {
1a003316:	2800      	cmp	r0, #0
1a003318:	d1f7      	bne.n	1a00330a <f_close+0xc>
			fp->obj.fs = 0;	/* Invalidate file object */
1a00331a:	6020      	str	r0, [r4, #0]
1a00331c:	e7f5      	b.n	1a00330a <f_close+0xc>

1a00331e <f_putc>:

int f_putc (
	TCHAR c,	/* A character to be output */
	FIL* fp		/* Pointer to the file object */
)
{
1a00331e:	b510      	push	{r4, lr}
1a003320:	b096      	sub	sp, #88	; 0x58
1a003322:	4604      	mov	r4, r0
	putbuff pb;


	putc_init(&pb, fp);
1a003324:	4668      	mov	r0, sp
1a003326:	f7fd fdb5 	bl	1a000e94 <putc_init>
	putc_bfd(&pb, c);	/* Put the character */
1a00332a:	4621      	mov	r1, r4
1a00332c:	4668      	mov	r0, sp
1a00332e:	f7ff fe81 	bl	1a003034 <putc_bfd>
	return putc_flush(&pb);
1a003332:	4668      	mov	r0, sp
1a003334:	f7ff ff20 	bl	1a003178 <putc_flush>
}
1a003338:	b016      	add	sp, #88	; 0x58
1a00333a:	bd10      	pop	{r4, pc}

1a00333c <f_puts>:

int f_puts (
	const TCHAR* str,	/* Pointer to the string to be output */
	FIL* fp				/* Pointer to the file object */
)
{
1a00333c:	b510      	push	{r4, lr}
1a00333e:	b096      	sub	sp, #88	; 0x58
1a003340:	4604      	mov	r4, r0
	putbuff pb;


	putc_init(&pb, fp);
1a003342:	4668      	mov	r0, sp
1a003344:	f7fd fda6 	bl	1a000e94 <putc_init>
	while (*str) putc_bfd(&pb, *str++);		/* Put the string */
1a003348:	7821      	ldrb	r1, [r4, #0]
1a00334a:	b121      	cbz	r1, 1a003356 <f_puts+0x1a>
1a00334c:	3401      	adds	r4, #1
1a00334e:	4668      	mov	r0, sp
1a003350:	f7ff fe70 	bl	1a003034 <putc_bfd>
1a003354:	e7f8      	b.n	1a003348 <f_puts+0xc>
	return putc_flush(&pb);
1a003356:	4668      	mov	r0, sp
1a003358:	f7ff ff0e 	bl	1a003178 <putc_flush>
}
1a00335c:	b016      	add	sp, #88	; 0x58
1a00335e:	bd10      	pop	{r4, pc}

1a003360 <ff_uni2oem>:
{
	WCHAR c = 0;
	const WCHAR *p = CVTBL(uc, FF_CODE_PAGE);


	if (uni < 0x80) {	/* ASCII? */
1a003360:	287f      	cmp	r0, #127	; 0x7f
1a003362:	d801      	bhi.n	1a003368 <ff_uni2oem+0x8>
		c = (WCHAR)uni;
1a003364:	b280      	uxth	r0, r0
1a003366:	4770      	bx	lr

	} else {			/* Non-ASCII */
		if (uni < 0x10000 && cp == FF_CODE_PAGE) {	/* Is it in BMP and valid code page? */
1a003368:	f5b0 3f80 	cmp.w	r0, #65536	; 0x10000
1a00336c:	d214      	bcs.n	1a003398 <ff_uni2oem+0x38>
1a00336e:	f240 3352 	movw	r3, #850	; 0x352
1a003372:	4299      	cmp	r1, r3
1a003374:	d00e      	beq.n	1a003394 <ff_uni2oem+0x34>
	WCHAR c = 0;
1a003376:	2000      	movs	r0, #0
1a003378:	4770      	bx	lr
			for (c = 0; c < 0x80 && uni != p[c]; c++) ;
1a00337a:	3301      	adds	r3, #1
1a00337c:	b29b      	uxth	r3, r3
1a00337e:	2b7f      	cmp	r3, #127	; 0x7f
1a003380:	d804      	bhi.n	1a00338c <ff_uni2oem+0x2c>
1a003382:	4a06      	ldr	r2, [pc, #24]	; (1a00339c <ff_uni2oem+0x3c>)
1a003384:	f832 2013 	ldrh.w	r2, [r2, r3, lsl #1]
1a003388:	4282      	cmp	r2, r0
1a00338a:	d1f6      	bne.n	1a00337a <ff_uni2oem+0x1a>
			c = (c + 0x80) & 0xFF;
1a00338c:	f103 0080 	add.w	r0, r3, #128	; 0x80
1a003390:	b2c0      	uxtb	r0, r0
1a003392:	4770      	bx	lr
			for (c = 0; c < 0x80 && uni != p[c]; c++) ;
1a003394:	2300      	movs	r3, #0
1a003396:	e7f2      	b.n	1a00337e <ff_uni2oem+0x1e>
	WCHAR c = 0;
1a003398:	2000      	movs	r0, #0
		}
	}

	return c;
}
1a00339a:	4770      	bx	lr
1a00339c:	1a007074 	.word	0x1a007074

1a0033a0 <ff_wtoupper>:

		0x0000	/* EOT */
	};


	if (uni < 0x10000) {	/* Is it in BMP? */
1a0033a0:	f5b0 3f80 	cmp.w	r0, #65536	; 0x10000
1a0033a4:	d245      	bcs.n	1a003432 <ff_wtoupper+0x92>
{
1a0033a6:	b4f0      	push	{r4, r5, r6, r7}
		uc = (WORD)uni;
1a0033a8:	b287      	uxth	r7, r0
		p = uc < 0x1000 ? cvt1 : cvt2;
1a0033aa:	f5b7 5f80 	cmp.w	r7, #4096	; 0x1000
1a0033ae:	d201      	bcs.n	1a0033b4 <ff_wtoupper+0x14>
1a0033b0:	4b20      	ldr	r3, [pc, #128]	; (1a003434 <ff_wtoupper+0x94>)
1a0033b2:	e002      	b.n	1a0033ba <ff_wtoupper+0x1a>
1a0033b4:	4b20      	ldr	r3, [pc, #128]	; (1a003438 <ff_wtoupper+0x98>)
1a0033b6:	e000      	b.n	1a0033ba <ff_wtoupper+0x1a>
		for (;;) {
			bc = *p++;								/* Get the block base */
			if (bc == 0 || uc < bc) break;			/* Not matched? */
			nc = *p++; cmd = nc >> 8; nc &= 0xFF;	/* Get processing command and block size */
1a0033b8:	4633      	mov	r3, r6
			bc = *p++;								/* Get the block base */
1a0033ba:	881a      	ldrh	r2, [r3, #0]
			if (bc == 0 || uc < bc) break;			/* Not matched? */
1a0033bc:	b1d2      	cbz	r2, 1a0033f4 <ff_wtoupper+0x54>
1a0033be:	4297      	cmp	r7, r2
1a0033c0:	d318      	bcc.n	1a0033f4 <ff_wtoupper+0x54>
			nc = *p++; cmd = nc >> 8; nc &= 0xFF;	/* Get processing command and block size */
1a0033c2:	1d1e      	adds	r6, r3, #4
1a0033c4:	885b      	ldrh	r3, [r3, #2]
1a0033c6:	0a19      	lsrs	r1, r3, #8
1a0033c8:	b2db      	uxtb	r3, r3
			if (uc < bc + nc) {	/* In the block? */
1a0033ca:	b284      	uxth	r4, r0
1a0033cc:	189d      	adds	r5, r3, r2
1a0033ce:	42ac      	cmp	r4, r5
1a0033d0:	db04      	blt.n	1a0033dc <ff_wtoupper+0x3c>
				case 7: uc -= 80; break;			/* Shift -80 */
				case 8:	uc -= 0x1C60; break;		/* Shift -0x1C60 */
				}
				break;
			}
			if (cmd == 0) p += nc;	/* Skip table if needed */
1a0033d2:	2900      	cmp	r1, #0
1a0033d4:	d1f0      	bne.n	1a0033b8 <ff_wtoupper+0x18>
1a0033d6:	eb06 0343 	add.w	r3, r6, r3, lsl #1
1a0033da:	e7ee      	b.n	1a0033ba <ff_wtoupper+0x1a>
				switch (cmd) {
1a0033dc:	2908      	cmp	r1, #8
1a0033de:	d809      	bhi.n	1a0033f4 <ff_wtoupper+0x54>
1a0033e0:	e8df f001 	tbb	[pc, r1]
1a0033e4:	14110b05 	.word	0x14110b05
1a0033e8:	201d1a17 	.word	0x201d1a17
1a0033ec:	23          	.byte	0x23
1a0033ed:	00          	.byte	0x00
				case 0:	uc = p[uc - bc]; break;		/* Table conversion */
1a0033ee:	1aa4      	subs	r4, r4, r2
1a0033f0:	f836 7014 	ldrh.w	r7, [r6, r4, lsl #1]
		}
		uni = uc;
1a0033f4:	4638      	mov	r0, r7
	}

	return uni;
}
1a0033f6:	bcf0      	pop	{r4, r5, r6, r7}
1a0033f8:	4770      	bx	lr
				case 1:	uc -= (uc - bc) & 1; break;	/* Case pairs */
1a0033fa:	1aba      	subs	r2, r7, r2
1a0033fc:	f002 0301 	and.w	r3, r2, #1
1a003400:	1aff      	subs	r7, r7, r3
1a003402:	b2bf      	uxth	r7, r7
1a003404:	e7f6      	b.n	1a0033f4 <ff_wtoupper+0x54>
				case 2: uc -= 16; break;			/* Shift -16 */
1a003406:	3f10      	subs	r7, #16
1a003408:	b2bf      	uxth	r7, r7
1a00340a:	e7f3      	b.n	1a0033f4 <ff_wtoupper+0x54>
				case 3:	uc -= 32; break;			/* Shift -32 */
1a00340c:	3f20      	subs	r7, #32
1a00340e:	b2bf      	uxth	r7, r7
1a003410:	e7f0      	b.n	1a0033f4 <ff_wtoupper+0x54>
				case 4:	uc -= 48; break;			/* Shift -48 */
1a003412:	3f30      	subs	r7, #48	; 0x30
1a003414:	b2bf      	uxth	r7, r7
1a003416:	e7ed      	b.n	1a0033f4 <ff_wtoupper+0x54>
				case 5:	uc -= 26; break;			/* Shift -26 */
1a003418:	3f1a      	subs	r7, #26
1a00341a:	b2bf      	uxth	r7, r7
1a00341c:	e7ea      	b.n	1a0033f4 <ff_wtoupper+0x54>
				case 6:	uc += 8; break;				/* Shift +8 */
1a00341e:	3708      	adds	r7, #8
1a003420:	b2bf      	uxth	r7, r7
1a003422:	e7e7      	b.n	1a0033f4 <ff_wtoupper+0x54>
				case 7: uc -= 80; break;			/* Shift -80 */
1a003424:	3f50      	subs	r7, #80	; 0x50
1a003426:	b2bf      	uxth	r7, r7
1a003428:	e7e4      	b.n	1a0033f4 <ff_wtoupper+0x54>
				case 8:	uc -= 0x1C60; break;		/* Shift -0x1C60 */
1a00342a:	f5a7 57e3 	sub.w	r7, r7, #7264	; 0x1c60
1a00342e:	b2bf      	uxth	r7, r7
1a003430:	e7e0      	b.n	1a0033f4 <ff_wtoupper+0x54>
}
1a003432:	4770      	bx	lr
1a003434:	1a006dc4 	.word	0x1a006dc4
1a003438:	1a006fb8 	.word	0x1a006fb8

1a00343c <sdcardInit>:
}


bool sdcardInit( sdcard_t *u )
{
    if( !u || g_sdcard )
1a00343c:	b1a0      	cbz	r0, 1a003468 <sdcardInit+0x2c>
{
1a00343e:	b510      	push	{r4, lr}
1a003440:	4604      	mov	r4, r0
    if( !u || g_sdcard )
1a003442:	4b0a      	ldr	r3, [pc, #40]	; (1a00346c <sdcardInit+0x30>)
1a003444:	681b      	ldr	r3, [r3, #0]
1a003446:	b10b      	cbz	r3, 1a00344c <sdcardInit+0x10>
    {
        return false;
1a003448:	2000      	movs	r0, #0
    g_sdcard = u;
    
    FSSDC_SetStatusUpdateCallback( statusUpdateCallback );
    FSSDC_InitSPI( );
    return true;
}
1a00344a:	bd10      	pop	{r4, pc}
    memset( u, 0, sizeof( sdcard_t ));
1a00344c:	f44f 720f 	mov.w	r2, #572	; 0x23c
1a003450:	2100      	movs	r1, #0
1a003452:	f002 fdf1 	bl	1a006038 <memset>
    g_sdcard = u;
1a003456:	4b05      	ldr	r3, [pc, #20]	; (1a00346c <sdcardInit+0x30>)
1a003458:	601c      	str	r4, [r3, #0]
    FSSDC_SetStatusUpdateCallback( statusUpdateCallback );
1a00345a:	4805      	ldr	r0, [pc, #20]	; (1a003470 <sdcardInit+0x34>)
1a00345c:	f002 fb74 	bl	1a005b48 <FSSDC_SetStatusUpdateCallback>
    FSSDC_InitSPI( );
1a003460:	f002 fb36 	bl	1a005ad0 <FSSDC_InitSPI>
    return true;
1a003464:	2001      	movs	r0, #1
1a003466:	e7f0      	b.n	1a00344a <sdcardInit+0xe>
        return false;
1a003468:	2000      	movs	r0, #0
}
1a00346a:	4770      	bx	lr
1a00346c:	100005ac 	.word	0x100005ac
1a003470:	1a0034dd 	.word	0x1a0034dd

1a003474 <sdcardMount>:
    return g_sdcardDriveName;
}


bool sdcardMount( bool mount )
{
1a003474:	b538      	push	{r3, r4, r5, lr}
    if( !g_sdcard )
1a003476:	4b17      	ldr	r3, [pc, #92]	; (1a0034d4 <sdcardMount+0x60>)
1a003478:	681d      	ldr	r5, [r3, #0]
1a00347a:	b32d      	cbz	r5, 1a0034c8 <sdcardMount+0x54>
1a00347c:	4604      	mov	r4, r0
    {
        return false;
    }
    
    if( mount && g_sdcard->status != SDCARD_Status_ReadyUnmounted )
1a00347e:	b118      	cbz	r0, 1a003488 <sdcardMount+0x14>
1a003480:	f895 3239 	ldrb.w	r3, [r5, #569]	; 0x239
1a003484:	2b04      	cmp	r3, #4
1a003486:	d121      	bne.n	1a0034cc <sdcardMount+0x58>
    {
        return false;
    }
    
    if(( g_sdcard->result = f_mount( mount? &g_sdcard->fatFs : NULL, 
1a003488:	b10c      	cbz	r4, 1a00348e <sdcardMount+0x1a>
1a00348a:	4628      	mov	r0, r5
1a00348c:	e000      	b.n	1a003490 <sdcardMount+0x1c>
1a00348e:	2000      	movs	r0, #0
1a003490:	2201      	movs	r2, #1
1a003492:	4911      	ldr	r1, [pc, #68]	; (1a0034d8 <sdcardMount+0x64>)
1a003494:	f7ff fa3c 	bl	1a002910 <f_mount>
1a003498:	f885 0238 	strb.w	r0, [r5, #568]	; 0x238
1a00349c:	b9c0      	cbnz	r0, 1a0034d0 <sdcardMount+0x5c>
                                    g_sdcardDriveName, 1 )) != FR_OK )
    {
        return false;
    }
    
    if( mount )
1a00349e:	b134      	cbz	r4, 1a0034ae <sdcardMount+0x3a>
    {
        g_sdcard->status = SDCARD_Status_ReadyMounted;
1a0034a0:	4b0c      	ldr	r3, [pc, #48]	; (1a0034d4 <sdcardMount+0x60>)
1a0034a2:	681b      	ldr	r3, [r3, #0]
1a0034a4:	2205      	movs	r2, #5
1a0034a6:	f883 2239 	strb.w	r2, [r3, #569]	; 0x239
    else if( g_sdcard->status == SDCARD_Status_ReadyMounted )
    {
        g_sdcard->status = SDCARD_Status_ReadyUnmounted;
    }
    
    return true;
1a0034aa:	4620      	mov	r0, r4
1a0034ac:	e011      	b.n	1a0034d2 <sdcardMount+0x5e>
    else if( g_sdcard->status == SDCARD_Status_ReadyMounted )
1a0034ae:	4b09      	ldr	r3, [pc, #36]	; (1a0034d4 <sdcardMount+0x60>)
1a0034b0:	681b      	ldr	r3, [r3, #0]
1a0034b2:	f893 2239 	ldrb.w	r2, [r3, #569]	; 0x239
1a0034b6:	2a05      	cmp	r2, #5
1a0034b8:	d001      	beq.n	1a0034be <sdcardMount+0x4a>
    return true;
1a0034ba:	2001      	movs	r0, #1
1a0034bc:	e009      	b.n	1a0034d2 <sdcardMount+0x5e>
        g_sdcard->status = SDCARD_Status_ReadyUnmounted;
1a0034be:	2204      	movs	r2, #4
1a0034c0:	f883 2239 	strb.w	r2, [r3, #569]	; 0x239
    return true;
1a0034c4:	2001      	movs	r0, #1
1a0034c6:	e004      	b.n	1a0034d2 <sdcardMount+0x5e>
        return false;
1a0034c8:	2000      	movs	r0, #0
1a0034ca:	e002      	b.n	1a0034d2 <sdcardMount+0x5e>
        return false;
1a0034cc:	2000      	movs	r0, #0
1a0034ce:	e000      	b.n	1a0034d2 <sdcardMount+0x5e>
        return false;
1a0034d0:	2000      	movs	r0, #0
}
1a0034d2:	bd38      	pop	{r3, r4, r5, pc}
1a0034d4:	100005ac 	.word	0x100005ac
1a0034d8:	1a007174 	.word	0x1a007174

1a0034dc <statusUpdateCallback>:
{    
1a0034dc:	b508      	push	{r3, lr}
    switch( cardStatus )
1a0034de:	2805      	cmp	r0, #5
1a0034e0:	d80b      	bhi.n	1a0034fa <statusUpdateCallback+0x1e>
1a0034e2:	e8df f000 	tbb	[pc, r0]
1a0034e6:	032b      	.short	0x032b
1a0034e8:	1d17110b 	.word	0x1d17110b
            g_sdcard->status = SDCARD_Status_Removed;
1a0034ec:	4b16      	ldr	r3, [pc, #88]	; (1a003548 <statusUpdateCallback+0x6c>)
1a0034ee:	681b      	ldr	r3, [r3, #0]
1a0034f0:	2000      	movs	r0, #0
1a0034f2:	f883 0239 	strb.w	r0, [r3, #569]	; 0x239
            sdcardMount( false );
1a0034f6:	f7ff ffbd 	bl	1a003474 <sdcardMount>
}
1a0034fa:	bd08      	pop	{r3, pc}
            g_sdcard->status = SDCARD_Status_Inserted;
1a0034fc:	4b12      	ldr	r3, [pc, #72]	; (1a003548 <statusUpdateCallback+0x6c>)
1a0034fe:	681b      	ldr	r3, [r3, #0]
1a003500:	2201      	movs	r2, #1
1a003502:	f883 2239 	strb.w	r2, [r3, #569]	; 0x239
            break;
1a003506:	e7f8      	b.n	1a0034fa <statusUpdateCallback+0x1e>
            g_sdcard->status = SDCARD_Status_NativeMode;
1a003508:	4b0f      	ldr	r3, [pc, #60]	; (1a003548 <statusUpdateCallback+0x6c>)
1a00350a:	681b      	ldr	r3, [r3, #0]
1a00350c:	2202      	movs	r2, #2
1a00350e:	f883 2239 	strb.w	r2, [r3, #569]	; 0x239
            break;
1a003512:	e7f2      	b.n	1a0034fa <statusUpdateCallback+0x1e>
            g_sdcard->status = SDCARD_Status_Initializing;
1a003514:	4b0c      	ldr	r3, [pc, #48]	; (1a003548 <statusUpdateCallback+0x6c>)
1a003516:	681b      	ldr	r3, [r3, #0]
1a003518:	2203      	movs	r2, #3
1a00351a:	f883 2239 	strb.w	r2, [r3, #569]	; 0x239
            break;
1a00351e:	e7ec      	b.n	1a0034fa <statusUpdateCallback+0x1e>
            g_sdcard->status = SDCARD_Status_ReadyUnmounted;
1a003520:	4b09      	ldr	r3, [pc, #36]	; (1a003548 <statusUpdateCallback+0x6c>)
1a003522:	681b      	ldr	r3, [r3, #0]
1a003524:	2204      	movs	r2, #4
1a003526:	f883 2239 	strb.w	r2, [r3, #569]	; 0x239
            if (!sdcardMount( true ))
1a00352a:	2001      	movs	r0, #1
1a00352c:	f7ff ffa2 	bl	1a003474 <sdcardMount>
1a003530:	2800      	cmp	r0, #0
1a003532:	d1e2      	bne.n	1a0034fa <statusUpdateCallback+0x1e>
                Board_UARTPutSTR ("sapi_sdcard: Automount failed!\r\n");
1a003534:	4805      	ldr	r0, [pc, #20]	; (1a00354c <statusUpdateCallback+0x70>)
1a003536:	f000 fe71 	bl	1a00421c <Board_UARTPutSTR>
1a00353a:	e7de      	b.n	1a0034fa <statusUpdateCallback+0x1e>
            g_sdcard->status = SDCARD_Status_Error;
1a00353c:	4b02      	ldr	r3, [pc, #8]	; (1a003548 <statusUpdateCallback+0x6c>)
1a00353e:	681b      	ldr	r3, [r3, #0]
1a003540:	2206      	movs	r2, #6
1a003542:	f883 2239 	strb.w	r2, [r3, #569]	; 0x239
}
1a003546:	e7d8      	b.n	1a0034fa <statusUpdateCallback+0x1e>
1a003548:	100005ac 	.word	0x100005ac
1a00354c:	1a00717c 	.word	0x1a00717c

1a003550 <ADC128D818_setRegister>:

/** @brief read the channel in "raw" format
*	@return none
*/
bool_t ADC128D818_setRegister(uint8_t address, uint8_t reg_addr, uint8_t value) 
{
1a003550:	b500      	push	{lr}
1a003552:	b085      	sub	sp, #20
    int8_t data[2];
    data[0] = reg_addr;
1a003554:	f88d 100c 	strb.w	r1, [sp, #12]
    data[1] = value;
1a003558:	f88d 200d 	strb.w	r2, [sp, #13]
    return i2cWrite(I2C0, address, data, 2, 1);
1a00355c:	2301      	movs	r3, #1
1a00355e:	9300      	str	r3, [sp, #0]
1a003560:	2302      	movs	r3, #2
1a003562:	aa03      	add	r2, sp, #12
1a003564:	4601      	mov	r1, r0
1a003566:	2000      	movs	r0, #0
1a003568:	f000 fcff 	bl	1a003f6a <i2cWrite>
}
1a00356c:	b005      	add	sp, #20
1a00356e:	f85d fb04 	ldr.w	pc, [sp], #4

1a003572 <ADC128D818_readRegister>:

/** @brief read the channel in "raw" format
*	@return none
*/
uint8_t ADC128D818_readRegister(uint8_t address, uint8_t reg_addr) 
{
1a003572:	b510      	push	{r4, lr}
1a003574:	b088      	sub	sp, #32
1a003576:	4604      	mov	r4, r0
1a003578:	f88d 1017 	strb.w	r1, [sp, #23]
    uint8_t val;
    i2cRead(I2C0, address, &reg_addr, 1, 0, &val, 1, 1); 
1a00357c:	2301      	movs	r3, #1
1a00357e:	9303      	str	r3, [sp, #12]
1a003580:	9302      	str	r3, [sp, #8]
1a003582:	f10d 021f 	add.w	r2, sp, #31
1a003586:	9201      	str	r2, [sp, #4]
1a003588:	2000      	movs	r0, #0
1a00358a:	9000      	str	r0, [sp, #0]
1a00358c:	f10d 0217 	add.w	r2, sp, #23
1a003590:	4621      	mov	r1, r4
1a003592:	f000 fcd4 	bl	1a003f3e <i2cRead>
    return val;
}
1a003596:	f89d 001f 	ldrb.w	r0, [sp, #31]
1a00359a:	b008      	add	sp, #32
1a00359c:	bd10      	pop	{r4, pc}

1a00359e <ADC128D818_readChannel>:

uint16_t ADC128D818_readChannel(uint8_t address, uint8_t channel)
{
1a00359e:	b510      	push	{r4, lr}
1a0035a0:	b086      	sub	sp, #24
    
    uint8_t buff[2];
    uint8_t adr_channel = ADC128D818_REG_Channel_Readings_Registers + channel;
1a0035a2:	f101 0320 	add.w	r3, r1, #32
1a0035a6:	f88d 3013 	strb.w	r3, [sp, #19]
    uint16_t result;
    
    if (channel>7) { 
1a0035aa:	2907      	cmp	r1, #7
1a0035ac:	d902      	bls.n	1a0035b4 <ADC128D818_readChannel+0x16>
        return 0;
1a0035ae:	2000      	movs	r0, #0
    i2cRead(I2C0, address, &adr_channel, 1, 0, buff, 2, 1);
    
    result = buff[0];
    result = (result << 8) | buff[1];
    return (result >> 4);
}
1a0035b0:	b006      	add	sp, #24
1a0035b2:	bd10      	pop	{r4, pc}
    i2cRead(I2C0, address, &adr_channel, 1, 0, buff, 2, 1);
1a0035b4:	2301      	movs	r3, #1
1a0035b6:	9303      	str	r3, [sp, #12]
1a0035b8:	2202      	movs	r2, #2
1a0035ba:	9202      	str	r2, [sp, #8]
1a0035bc:	aa05      	add	r2, sp, #20
1a0035be:	9201      	str	r2, [sp, #4]
1a0035c0:	2400      	movs	r4, #0
1a0035c2:	9400      	str	r4, [sp, #0]
1a0035c4:	f10d 0213 	add.w	r2, sp, #19
1a0035c8:	4601      	mov	r1, r0
1a0035ca:	4620      	mov	r0, r4
1a0035cc:	f000 fcb7 	bl	1a003f3e <i2cRead>
    result = buff[0];
1a0035d0:	f89d 3014 	ldrb.w	r3, [sp, #20]
    result = (result << 8) | buff[1];
1a0035d4:	f89d 0015 	ldrb.w	r0, [sp, #21]
1a0035d8:	ea40 2003 	orr.w	r0, r0, r3, lsl #8
    return (result >> 4);
1a0035dc:	0900      	lsrs	r0, r0, #4
1a0035de:	e7e7      	b.n	1a0035b0 <ADC128D818_readChannel+0x12>

1a0035e0 <ADC128D818_init>:
                       ADC128D818_OPERATION_MODE op_mode,
                       ADC128D818_RATE rate,
                       ADC128D818_VREF ref_mode,
                       double ref_voltage,
                       ADC128D818_ENABLE enabled_mask)
{
1a0035e0:	e92d 43f0 	stmdb	sp!, {r4, r5, r6, r7, r8, r9, lr}
1a0035e4:	f2ad 4d04 	subw	sp, sp, #1028	; 0x404
1a0035e8:	4606      	mov	r6, r0
1a0035ea:	4689      	mov	r9, r1
1a0035ec:	4617      	mov	r7, r2
1a0035ee:	4698      	mov	r8, r3
    * 9. Set the 'INT_Clear' bit (address 00h, bit 3) to 0. If needed, program the 'INT_Enable' bit (address 00h, bit 1) to 1 to enable the INT output.
    */

    char line[1024];
    
    strcpy(line, "Start ADC128D818 on address ");
1a0035f0:	494f      	ldr	r1, [pc, #316]	; (1a003730 <ADC128D818_init+0x150>)
1a0035f2:	4668      	mov	r0, sp
1a0035f4:	f002 fd57 	bl	1a0060a6 <strcpy>
    strcat(line, intToHex(address, 2));
1a0035f8:	2202      	movs	r2, #2
1a0035fa:	b2f0      	uxtb	r0, r6
1a0035fc:	2100      	movs	r1, #0
1a0035fe:	f7fc fe83 	bl	1a000308 <intToHex>
1a003602:	4601      	mov	r1, r0
1a003604:	4668      	mov	r0, sp
1a003606:	f002 fd3f 	bl	1a006088 <strcat>
    strcat(line, "h");
1a00360a:	494a      	ldr	r1, [pc, #296]	; (1a003734 <ADC128D818_init+0x154>)
1a00360c:	4668      	mov	r0, sp
1a00360e:	f002 fd3b 	bl	1a006088 <strcat>
    log(line);
1a003612:	4668      	mov	r0, sp
1a003614:	f7fc fef8 	bl	1a000408 <log>

    uint8_t busy_reg = 0x00;
    int cont = 0;
1a003618:	2500      	movs	r5, #0
    do {
        cont++;
1a00361a:	3501      	adds	r5, #1
        if (cont >= MAX_ITER_NOT_READY) {
1a00361c:	2d09      	cmp	r5, #9
1a00361e:	dc38      	bgt.n	1a003692 <ADC128D818_init+0xb2>
            logError("Wait for not busy ADC128D818 timeout");
            return FALSE; 
        }
        
        strcpy(line, "> Wait for device not busy. Trial #");
1a003620:	4945      	ldr	r1, [pc, #276]	; (1a003738 <ADC128D818_init+0x158>)
1a003622:	4668      	mov	r0, sp
1a003624:	f002 fd3f 	bl	1a0060a6 <strcpy>
        strcat(line, intToString(cont));
1a003628:	4628      	mov	r0, r5
1a00362a:	17e9      	asrs	r1, r5, #31
1a00362c:	f000 f92e 	bl	1a00388c <intToString>
1a003630:	4601      	mov	r1, r0
1a003632:	4668      	mov	r0, sp
1a003634:	f002 fd28 	bl	1a006088 <strcat>
        log(line);
1a003638:	4668      	mov	r0, sp
1a00363a:	f7fc fee5 	bl	1a000408 <log>

        delay(33);
1a00363e:	2021      	movs	r0, #33	; 0x21
1a003640:	2100      	movs	r1, #0
1a003642:	f000 fc01 	bl	1a003e48 <delay>
        busy_reg = ADC128D818_readRegister(address, ADC128D818_REG_Busy_Status_Register);
1a003646:	210c      	movs	r1, #12
1a003648:	4630      	mov	r0, r6
1a00364a:	f7ff ff92 	bl	1a003572 <ADC128D818_readRegister>
1a00364e:	4604      	mov	r4, r0
        strcpy(line, ">>> Busy Status Register value: ");
1a003650:	493a      	ldr	r1, [pc, #232]	; (1a00373c <ADC128D818_init+0x15c>)
1a003652:	4668      	mov	r0, sp
1a003654:	f002 fd27 	bl	1a0060a6 <strcpy>
        strcat(line, intToHex(busy_reg, 2));
1a003658:	2202      	movs	r2, #2
1a00365a:	b2e0      	uxtb	r0, r4
1a00365c:	2100      	movs	r1, #0
1a00365e:	f7fc fe53 	bl	1a000308 <intToHex>
1a003662:	4601      	mov	r1, r0
1a003664:	4668      	mov	r0, sp
1a003666:	f002 fd0f 	bl	1a006088 <strcat>
        strcat(line, "h");
1a00366a:	4932      	ldr	r1, [pc, #200]	; (1a003734 <ADC128D818_init+0x154>)
1a00366c:	4668      	mov	r0, sp
1a00366e:	f002 fd0b 	bl	1a006088 <strcat>
        log(line);
1a003672:	4668      	mov	r0, sp
1a003674:	f7fc fec8 	bl	1a000408 <log>

    } while (busy_reg&( ADC128D818_STATUS_NOT_READY_BIT ));
1a003678:	f014 0f01 	tst.w	r4, #1
1a00367c:	d1cd      	bne.n	1a00361a <ADC128D818_init+0x3a>

    
    // program advanced config reg
    log("> Setting Advanced Configuration Register");
1a00367e:	4830      	ldr	r0, [pc, #192]	; (1a003740 <ADC128D818_init+0x160>)
1a003680:	f7fc fec2 	bl	1a000408 <log>
    switch (op_mode) {
1a003684:	f1b9 0f03 	cmp.w	r9, #3
1a003688:	d80e      	bhi.n	1a0036a8 <ADC128D818_init+0xc8>
1a00368a:	e8df f009 	tbb	[pc, r9]
1a00368e:	340a      	.short	0x340a
1a003690:	3c38      	.short	0x3c38
            logError("Wait for not busy ADC128D818 timeout");
1a003692:	482c      	ldr	r0, [pc, #176]	; (1a003744 <ADC128D818_init+0x164>)
1a003694:	f7fc fee6 	bl	1a000464 <logError>
            return FALSE; 
1a003698:	2000      	movs	r0, #0

    // set start bit in configuration (interrupts disabled)
    ADC128D818_setRegister(address, ADC128D818_REG_Configuration_Register, 1);
    
    return TRUE;
}
1a00369a:	f20d 4d04 	addw	sp, sp, #1028	; 0x404
1a00369e:	e8bd 83f0 	ldmia.w	sp!, {r4, r5, r6, r7, r8, r9, pc}
        case ADC128D818_OPERATION_MODE_0: log("    Single ended with temp.: IN0..IN6 plus temp"); break;
1a0036a2:	4829      	ldr	r0, [pc, #164]	; (1a003748 <ADC128D818_init+0x168>)
1a0036a4:	f7fc feb0 	bl	1a000408 <log>
    if (ref_mode == ADC128D818_VREF_INT) {
1a0036a8:	f1b8 0f00 	cmp.w	r8, #0
1a0036ac:	d12f      	bne.n	1a00370e <ADC128D818_init+0x12e>
        log("    Internal Voltage Reference");
1a0036ae:	4827      	ldr	r0, [pc, #156]	; (1a00374c <ADC128D818_init+0x16c>)
1a0036b0:	f7fc feaa 	bl	1a000408 <log>
    ADC128D818_setRegister(address, ADC128D818_REG_Advanced_Configuration_Register, ref_mode | (op_mode << 1));
1a0036b4:	ea48 0249 	orr.w	r2, r8, r9, lsl #1
1a0036b8:	b2d2      	uxtb	r2, r2
1a0036ba:	210b      	movs	r1, #11
1a0036bc:	4630      	mov	r0, r6
1a0036be:	f7ff ff47 	bl	1a003550 <ADC128D818_setRegister>
    log("> Setting Convertion Rate");
1a0036c2:	4823      	ldr	r0, [pc, #140]	; (1a003750 <ADC128D818_init+0x170>)
1a0036c4:	f7fc fea0 	bl	1a000408 <log>
    switch (rate) {
1a0036c8:	2f01      	cmp	r7, #1
1a0036ca:	d028      	beq.n	1a00371e <ADC128D818_init+0x13e>
1a0036cc:	2f03      	cmp	r7, #3
1a0036ce:	d02a      	beq.n	1a003726 <ADC128D818_init+0x146>
1a0036d0:	b30f      	cbz	r7, 1a003716 <ADC128D818_init+0x136>
    ADC128D818_setRegister(address, ADC128D818_REG_Conversion_Rate_Register, rate);
1a0036d2:	463a      	mov	r2, r7
1a0036d4:	2107      	movs	r1, #7
1a0036d6:	4630      	mov	r0, r6
1a0036d8:	f7ff ff3a 	bl	1a003550 <ADC128D818_setRegister>
    ADC128D818_setRegister(address, ADC128D818_REG_Channel_Disable_Register, enabled_mask);
1a0036dc:	f89d 2420 	ldrb.w	r2, [sp, #1056]	; 0x420
1a0036e0:	2108      	movs	r1, #8
1a0036e2:	4630      	mov	r0, r6
1a0036e4:	f7ff ff34 	bl	1a003550 <ADC128D818_setRegister>
    ADC128D818_setRegister(address, ADC128D818_REG_Configuration_Register, 1);
1a0036e8:	2201      	movs	r2, #1
1a0036ea:	2100      	movs	r1, #0
1a0036ec:	4630      	mov	r0, r6
1a0036ee:	f7ff ff2f 	bl	1a003550 <ADC128D818_setRegister>
    return TRUE;
1a0036f2:	2001      	movs	r0, #1
1a0036f4:	e7d1      	b.n	1a00369a <ADC128D818_init+0xba>
        case ADC128D818_OPERATION_MODE_1: log("    Single ended: IN0..IN7"); break;
1a0036f6:	4817      	ldr	r0, [pc, #92]	; (1a003754 <ADC128D818_init+0x174>)
1a0036f8:	f7fc fe86 	bl	1a000408 <log>
1a0036fc:	e7d4      	b.n	1a0036a8 <ADC128D818_init+0xc8>
        case ADC128D818_OPERATION_MODE_2: log("    Differential: IN0-IN1, IN3-IN2, IN4-IN5, IN7-IN6"); break;
1a0036fe:	4816      	ldr	r0, [pc, #88]	; (1a003758 <ADC128D818_init+0x178>)
1a003700:	f7fc fe82 	bl	1a000408 <log>
1a003704:	e7d0      	b.n	1a0036a8 <ADC128D818_init+0xc8>
        case ADC128D818_OPERATION_MODE_3: log("    Mixed: IN0..IN3, IN4-IN5, IN7-IN6"); break;
1a003706:	4815      	ldr	r0, [pc, #84]	; (1a00375c <ADC128D818_init+0x17c>)
1a003708:	f7fc fe7e 	bl	1a000408 <log>
1a00370c:	e7cc      	b.n	1a0036a8 <ADC128D818_init+0xc8>
        log("    External Voltage Reference");
1a00370e:	4814      	ldr	r0, [pc, #80]	; (1a003760 <ADC128D818_init+0x180>)
1a003710:	f7fc fe7a 	bl	1a000408 <log>
1a003714:	e7ce      	b.n	1a0036b4 <ADC128D818_init+0xd4>
        case ADC128D818_RATE_LOW_POWER:  log("    Low Power"); break;
1a003716:	4813      	ldr	r0, [pc, #76]	; (1a003764 <ADC128D818_init+0x184>)
1a003718:	f7fc fe76 	bl	1a000408 <log>
1a00371c:	e7d9      	b.n	1a0036d2 <ADC128D818_init+0xf2>
        case ADC128D818_RATE_CONTINUOUS: log("    Continuous"); break;
1a00371e:	4812      	ldr	r0, [pc, #72]	; (1a003768 <ADC128D818_init+0x188>)
1a003720:	f7fc fe72 	bl	1a000408 <log>
1a003724:	e7d5      	b.n	1a0036d2 <ADC128D818_init+0xf2>
        case ADC128D818_RATE_ONE_SHOT:   log("    One Shot"); break;
1a003726:	4811      	ldr	r0, [pc, #68]	; (1a00376c <ADC128D818_init+0x18c>)
1a003728:	f7fc fe6e 	bl	1a000408 <log>
1a00372c:	e7d1      	b.n	1a0036d2 <ADC128D818_init+0xf2>
1a00372e:	bf00      	nop
1a003730:	1a0071a0 	.word	0x1a0071a0
1a003734:	1a0071c0 	.word	0x1a0071c0
1a003738:	1a0071ec 	.word	0x1a0071ec
1a00373c:	1a007210 	.word	0x1a007210
1a003740:	1a007234 	.word	0x1a007234
1a003744:	1a0071c4 	.word	0x1a0071c4
1a003748:	1a007260 	.word	0x1a007260
1a00374c:	1a00730c 	.word	0x1a00730c
1a003750:	1a00734c 	.word	0x1a00734c
1a003754:	1a007290 	.word	0x1a007290
1a003758:	1a0072ac 	.word	0x1a0072ac
1a00375c:	1a0072e4 	.word	0x1a0072e4
1a003760:	1a00732c 	.word	0x1a00732c
1a003764:	1a007368 	.word	0x1a007368
1a003768:	1a007378 	.word	0x1a007378
1a00376c:	1a007388 	.word	0x1a007388

1a003770 <clearInterrupt>:
}

static void clearInterrupt(uint8_t irqChannel)
{
   /* Clear interrupt flag for irqChannel */
   Chip_PININT_ClearIntStatus(LPC_GPIO_PIN_INT,PININTCH(irqChannel));
1a003770:	2301      	movs	r3, #1
1a003772:	4083      	lsls	r3, r0
 * @param	pins	: Pin interrupts to clear (ORed value of PININTCH*)
 * @return	Nothing
 */
STATIC INLINE void Chip_PININT_ClearIntStatus(LPC_PIN_INT_T *pPININT, uint32_t pins)
{
	pPININT->IST = pins;
1a003774:	4a01      	ldr	r2, [pc, #4]	; (1a00377c <clearInterrupt+0xc>)
1a003776:	6253      	str	r3, [r2, #36]	; 0x24
}
1a003778:	4770      	bx	lr
1a00377a:	bf00      	nop
1a00377c:	40087000 	.word	0x40087000

1a003780 <serveInterrupt>:

static void serveInterrupt(uint8_t irqChannel)
{
1a003780:	b538      	push	{r3, r4, r5, lr}
   ultrasonicSensorMap_t aSensor = ultrasonicSensorsIrqMap[irqChannel];
1a003782:	4b13      	ldr	r3, [pc, #76]	; (1a0037d0 <serveInterrupt+0x50>)
1a003784:	5c1b      	ldrb	r3, [r3, r0]
	return pPININT->RISE;
1a003786:	4a13      	ldr	r2, [pc, #76]	; (1a0037d4 <serveInterrupt+0x54>)
1a003788:	69d1      	ldr	r1, [r2, #28]
   /* If interrupt was because a rising edge */
   if ( Chip_PININT_GetRiseStates(LPC_GPIO_PIN_INT) & PININTCH(irqChannel) ) {
1a00378a:	2201      	movs	r2, #1
1a00378c:	4082      	lsls	r2, r0
1a00378e:	420a      	tst	r2, r1
1a003790:	d00c      	beq.n	1a0037ac <serveInterrupt+0x2c>
 * @return	Current timer terminal count value
 * @note	Returns the current timer terminal count.
 */
STATIC INLINE uint32_t Chip_TIMER_ReadCount(LPC_TIMER_T *pTMR)
{
	return pTMR->TC;
1a003792:	4911      	ldr	r1, [pc, #68]	; (1a0037d8 <serveInterrupt+0x58>)
1a003794:	688c      	ldr	r4, [r1, #8]
      //TODO add method to sapi_timer.h in order to get a timer count -> avoid using LPC_TIMER0 directly

      /* Save actual timer count in echoRiseTime */
      ultrasonicSensors[aSensor].echoRiseTime = Chip_TIMER_ReadCount(LPC_TIMER0);
1a003796:	eb03 0343 	add.w	r3, r3, r3, lsl #1
1a00379a:	4910      	ldr	r1, [pc, #64]	; (1a0037dc <serveInterrupt+0x5c>)
1a00379c:	eb01 03c3 	add.w	r3, r1, r3, lsl #3
1a0037a0:	605c      	str	r4, [r3, #4]
	pPININT->RISE = pins;
1a0037a2:	4b0c      	ldr	r3, [pc, #48]	; (1a0037d4 <serveInterrupt+0x54>)
1a0037a4:	61da      	str	r2, [r3, #28]
      /* Clear falling edge irq */
      Chip_PININT_ClearFallStates(LPC_GPIO_PIN_INT,PININTCH(irqChannel));
   }

   /* Clear IRQ status */
   clearInterrupt(irqChannel);
1a0037a6:	f7ff ffe3 	bl	1a003770 <clearInterrupt>
}
1a0037aa:	bd38      	pop	{r3, r4, r5, pc}
1a0037ac:	490a      	ldr	r1, [pc, #40]	; (1a0037d8 <serveInterrupt+0x58>)
1a0037ae:	688c      	ldr	r4, [r1, #8]
      ultrasonicSensors[aSensor].echoFallTime = Chip_TIMER_ReadCount(LPC_TIMER0);
1a0037b0:	490a      	ldr	r1, [pc, #40]	; (1a0037dc <serveInterrupt+0x5c>)
1a0037b2:	eb03 0543 	add.w	r5, r3, r3, lsl #1
1a0037b6:	eb01 05c5 	add.w	r5, r1, r5, lsl #3
1a0037ba:	60ac      	str	r4, [r5, #8]
      ultrasonicSensors[aSensor].lastEchoWidth = ultrasonicSensors[aSensor].echoFallTime - ultrasonicSensors[aSensor].echoRiseTime;
1a0037bc:	686d      	ldr	r5, [r5, #4]
1a0037be:	1b64      	subs	r4, r4, r5
1a0037c0:	eb03 0343 	add.w	r3, r3, r3, lsl #1
1a0037c4:	eb01 03c3 	add.w	r3, r1, r3, lsl #3
1a0037c8:	60dc      	str	r4, [r3, #12]
	pPININT->FALL = pins;
1a0037ca:	4b02      	ldr	r3, [pc, #8]	; (1a0037d4 <serveInterrupt+0x54>)
1a0037cc:	621a      	str	r2, [r3, #32]
}
1a0037ce:	e7ea      	b.n	1a0037a6 <serveInterrupt+0x26>
1a0037d0:	1a007398 	.word	0x1a007398
1a0037d4:	40087000 	.word	0x40087000
1a0037d8:	40084000 	.word	0x40084000
1a0037dc:	10000000 	.word	0x10000000

1a0037e0 <GPIO0_IRQHandler>:
/*==================[ISR external functions definition]======================*/
/*
 * @Brief:   GPIO Echo interrupt handler for each sensor
 */
void GPIO0_IRQHandler(void)
{
1a0037e0:	b508      	push	{r3, lr}
   serveInterrupt(0);
1a0037e2:	2000      	movs	r0, #0
1a0037e4:	f7ff ffcc 	bl	1a003780 <serveInterrupt>
}
1a0037e8:	bd08      	pop	{r3, pc}

1a0037ea <GPIO1_IRQHandler>:

void GPIO1_IRQHandler(void)
{
1a0037ea:	b508      	push	{r3, lr}
   serveInterrupt(1);
1a0037ec:	2001      	movs	r0, #1
1a0037ee:	f7ff ffc7 	bl	1a003780 <serveInterrupt>
}
1a0037f2:	bd08      	pop	{r3, pc}

1a0037f4 <GPIO2_IRQHandler>:

void GPIO2_IRQHandler(void)
{
1a0037f4:	b508      	push	{r3, lr}
   serveInterrupt(2);
1a0037f6:	2002      	movs	r0, #2
1a0037f8:	f7ff ffc2 	bl	1a003780 <serveInterrupt>
}
1a0037fc:	bd08      	pop	{r3, pc}
1a0037fe:	Address 0x000000001a0037fe is out of bounds.


1a003800 <int64ToString>:
// C++ version 0.4 char* style "itoa":
// Written by Luks Chmela
// Released under GPLv3.
// Modified by Eric Pernia.
bool_t int64ToString( int64_t value, char* result, uint8_t base )
{
1a003800:	e92d 47f0 	stmdb	sp!, {r4, r5, r6, r7, r8, r9, sl, lr}
1a003804:	4605      	mov	r5, r0
1a003806:	460c      	mov	r4, r1
1a003808:	4628      	mov	r0, r5
1a00380a:	4615      	mov	r5, r2
1a00380c:	469a      	mov	sl, r3
   // check that the base if valid
   if( base < 2 || base > 36 ) {
1a00380e:	3b02      	subs	r3, #2
1a003810:	b2db      	uxtb	r3, r3
1a003812:	2b22      	cmp	r3, #34	; 0x22
1a003814:	d825      	bhi.n	1a003862 <int64ToString+0x62>
1a003816:	4621      	mov	r1, r4
      *result = '\0';
      return FALSE;
   }

   char* ptr = result, *ptr1 = result, tmp_char;
1a003818:	4614      	mov	r4, r2
   int64_t tmp_value;

   do {
      tmp_value = value;
      value /= (int64_t)base;
1a00381a:	4680      	mov	r8, r0
1a00381c:	4689      	mov	r9, r1
1a00381e:	fa5f f68a 	uxtb.w	r6, sl
1a003822:	2700      	movs	r7, #0
1a003824:	4632      	mov	r2, r6
1a003826:	463b      	mov	r3, r7
1a003828:	f002 fa08 	bl	1a005c3c <__aeabi_ldivmod>
1a00382c:	4602      	mov	r2, r0
1a00382e:	460b      	mov	r3, r1
1a003830:	4610      	mov	r0, r2
1a003832:	4619      	mov	r1, r3
      *ptr++ = "zyxwvutsrqponmlkjihgfedcba9876543210123456789abcdefghijklmnopqrstuvwxyz" [35 + (tmp_value - value * (int64_t)base)];
1a003834:	fba6 2302 	umull	r2, r3, r6, r2
1a003838:	ebb8 0202 	subs.w	r2, r8, r2
1a00383c:	3223      	adds	r2, #35	; 0x23
1a00383e:	4626      	mov	r6, r4
1a003840:	3401      	adds	r4, #1
1a003842:	4b11      	ldr	r3, [pc, #68]	; (1a003888 <int64ToString+0x88>)
1a003844:	441a      	add	r2, r3
1a003846:	7813      	ldrb	r3, [r2, #0]
1a003848:	7033      	strb	r3, [r6, #0]
   } while ( value );
1a00384a:	ea50 0301 	orrs.w	r3, r0, r1
1a00384e:	d1e4      	bne.n	1a00381a <int64ToString+0x1a>

   // Apply negative sign
   if (tmp_value < 0) *ptr++ = '-';
1a003850:	f1b8 0f00 	cmp.w	r8, #0
1a003854:	f179 0300 	sbcs.w	r3, r9, #0
1a003858:	db06      	blt.n	1a003868 <int64ToString+0x68>
   *ptr-- = '\0';
1a00385a:	2300      	movs	r3, #0
1a00385c:	f804 3901 	strb.w	r3, [r4], #-1
   while(ptr1 < ptr) {
1a003860:	e00c      	b.n	1a00387c <int64ToString+0x7c>
      *result = '\0';
1a003862:	2000      	movs	r0, #0
1a003864:	7010      	strb	r0, [r2, #0]
      return FALSE;
1a003866:	e00c      	b.n	1a003882 <int64ToString+0x82>
   if (tmp_value < 0) *ptr++ = '-';
1a003868:	232d      	movs	r3, #45	; 0x2d
1a00386a:	7023      	strb	r3, [r4, #0]
1a00386c:	1cb4      	adds	r4, r6, #2
1a00386e:	e7f4      	b.n	1a00385a <int64ToString+0x5a>
      tmp_char = *ptr;
1a003870:	7823      	ldrb	r3, [r4, #0]
      *ptr--= *ptr1;
1a003872:	782a      	ldrb	r2, [r5, #0]
1a003874:	f804 2901 	strb.w	r2, [r4], #-1
      *ptr1++ = tmp_char;
1a003878:	f805 3b01 	strb.w	r3, [r5], #1
   while(ptr1 < ptr) {
1a00387c:	42ac      	cmp	r4, r5
1a00387e:	d8f7      	bhi.n	1a003870 <int64ToString+0x70>
   }
   return TRUE;
1a003880:	2001      	movs	r0, #1
}
1a003882:	e8bd 87f0 	ldmia.w	sp!, {r4, r5, r6, r7, r8, r9, sl, pc}
1a003886:	bf00      	nop
1a003888:	1a00739c 	.word	0x1a00739c

1a00388c <intToString>:

   return result;
}

char* intToString( int64_t value )
{
1a00388c:	b510      	push	{r4, lr}
   static char result[20];
   result[0] = 0;
1a00388e:	4c04      	ldr	r4, [pc, #16]	; (1a0038a0 <intToString+0x14>)
1a003890:	2300      	movs	r3, #0
1a003892:	7023      	strb	r3, [r4, #0]
   int64ToString( value, result, 10 );
1a003894:	230a      	movs	r3, #10
1a003896:	4622      	mov	r2, r4
1a003898:	f7ff ffb2 	bl	1a003800 <int64ToString>
   return result;
}
1a00389c:	4620      	mov	r0, r4
1a00389e:	bd10      	pop	{r4, pc}
1a0038a0:	100005b0 	.word	0x100005b0

1a0038a4 <cyclesCounterInit>:
 * @return TRUE si esta OK, FALSE en caso de error.
 */
bool_t cyclesCounterInit( uint32_t clockSpeed )
{
   //Asigna  a la variable local ClockSpeed el valor recibido como argumento.
   ClockSpeed = clockSpeed;
1a0038a4:	4b04      	ldr	r3, [pc, #16]	; (1a0038b8 <cyclesCounterInit+0x14>)
1a0038a6:	6018      	str	r0, [r3, #0]
   //Iniciar el contador de ciclos de clock.
   *DWT_CTRL  |= 1;
1a0038a8:	4b04      	ldr	r3, [pc, #16]	; (1a0038bc <cyclesCounterInit+0x18>)
1a0038aa:	681a      	ldr	r2, [r3, #0]
1a0038ac:	6813      	ldr	r3, [r2, #0]
1a0038ae:	f043 0301 	orr.w	r3, r3, #1
1a0038b2:	6013      	str	r3, [r2, #0]
   return TRUE;
}
1a0038b4:	2001      	movs	r0, #1
1a0038b6:	4770      	bx	lr
1a0038b8:	10000048 	.word	0x10000048
1a0038bc:	1000004c 	.word	0x1000004c

1a0038c0 <gpioObtainPinInit>:

static void gpioObtainPinInit( gpioMap_t pin,
                               int8_t *pinNamePort, int8_t *pinNamePin,
                               int8_t *func, int8_t *gpioPort,
                               int8_t *gpioPin )
{
1a0038c0:	b430      	push	{r4, r5}

   *pinNamePort = gpioPinsInit[pin].pinName.port;
1a0038c2:	4d0b      	ldr	r5, [pc, #44]	; (1a0038f0 <gpioObtainPinInit+0x30>)
1a0038c4:	eb00 0080 	add.w	r0, r0, r0, lsl #2
1a0038c8:	182c      	adds	r4, r5, r0
1a0038ca:	5628      	ldrsb	r0, [r5, r0]
1a0038cc:	7008      	strb	r0, [r1, #0]
   *pinNamePin  = gpioPinsInit[pin].pinName.pin;
1a0038ce:	f994 1001 	ldrsb.w	r1, [r4, #1]
1a0038d2:	7011      	strb	r1, [r2, #0]
   *func        = gpioPinsInit[pin].func;
1a0038d4:	f994 2002 	ldrsb.w	r2, [r4, #2]
1a0038d8:	701a      	strb	r2, [r3, #0]
   *gpioPort    = gpioPinsInit[pin].gpio.port;
1a0038da:	f994 2003 	ldrsb.w	r2, [r4, #3]
1a0038de:	9b02      	ldr	r3, [sp, #8]
1a0038e0:	701a      	strb	r2, [r3, #0]
   *gpioPin     = gpioPinsInit[pin].gpio.pin;
1a0038e2:	f994 2004 	ldrsb.w	r2, [r4, #4]
1a0038e6:	9b03      	ldr	r3, [sp, #12]
1a0038e8:	701a      	strb	r2, [r3, #0]
}
1a0038ea:	bc30      	pop	{r4, r5}
1a0038ec:	4770      	bx	lr
1a0038ee:	bf00      	nop
1a0038f0:	1a0073e4 	.word	0x1a0073e4

1a0038f4 <gpioInit>:

/*==================[external functions definition]==========================*/

bool_t gpioInit( gpioMap_t pin, gpioInit_t config )
{
1a0038f4:	b570      	push	{r4, r5, r6, lr}
1a0038f6:	b084      	sub	sp, #16
1a0038f8:	460c      	mov	r4, r1

   bool_t ret_val     = 1;

   int8_t pinNamePort = 0;
1a0038fa:	2300      	movs	r3, #0
1a0038fc:	f88d 300f 	strb.w	r3, [sp, #15]
   int8_t pinNamePin  = 0;
1a003900:	f88d 300e 	strb.w	r3, [sp, #14]

   int8_t func        = 0;
1a003904:	f88d 300d 	strb.w	r3, [sp, #13]

   int8_t gpioPort    = 0;
1a003908:	f88d 300c 	strb.w	r3, [sp, #12]
   int8_t gpioPin     = 0;
1a00390c:	f88d 300b 	strb.w	r3, [sp, #11]

   gpioObtainPinInit( pin, &pinNamePort, &pinNamePin, &func,
1a003910:	f10d 030b 	add.w	r3, sp, #11
1a003914:	9301      	str	r3, [sp, #4]
1a003916:	ab03      	add	r3, sp, #12
1a003918:	9300      	str	r3, [sp, #0]
1a00391a:	f10d 030d 	add.w	r3, sp, #13
1a00391e:	f10d 020e 	add.w	r2, sp, #14
1a003922:	f10d 010f 	add.w	r1, sp, #15
1a003926:	f7ff ffcb 	bl	1a0038c0 <gpioObtainPinInit>
                      &gpioPort, &gpioPin );

   switch(config) {
1a00392a:	2c05      	cmp	r4, #5
1a00392c:	f200 80a5 	bhi.w	1a003a7a <gpioInit+0x186>
1a003930:	e8df f004 	tbb	[pc, r4]
1a003934:	45278109 	.word	0x45278109
1a003938:	0363      	.short	0x0363

   case GPIO_ENABLE:
      /* Initializes GPIO */
      Chip_GPIO_Init(LPC_GPIO_PORT);
1a00393a:	4851      	ldr	r0, [pc, #324]	; (1a003a80 <gpioInit+0x18c>)
1a00393c:	f001 fb69 	bl	1a005012 <Chip_GPIO_Init>
   bool_t ret_val     = 1;
1a003940:	2001      	movs	r0, #1
      break;
   }

   return ret_val;

}
1a003942:	b004      	add	sp, #16
1a003944:	bd70      	pop	{r4, r5, r6, pc}
      Chip_SCU_PinMux(
1a003946:	f89d 100f 	ldrb.w	r1, [sp, #15]
1a00394a:	f89d 300e 	ldrb.w	r3, [sp, #14]
1a00394e:	f89d 200d 	ldrb.w	r2, [sp, #13]
 * @note	Do not use for clock pins (SFSCLK0 .. SFSCLK4). Use
 * Chip_SCU_ClockPinMux() function for SFSCLKx clock pins.
 */
STATIC INLINE void Chip_SCU_PinMuxSet(uint8_t port, uint8_t pin, uint16_t modefunc)
{
	LPC_SCU->SFSP[port][pin] = modefunc;
1a003952:	f042 02d0 	orr.w	r2, r2, #208	; 0xd0
1a003956:	eb03 1341 	add.w	r3, r3, r1, lsl #5
1a00395a:	494a      	ldr	r1, [pc, #296]	; (1a003a84 <gpioInit+0x190>)
1a00395c:	f841 2023 	str.w	r2, [r1, r3, lsl #2]
      Chip_GPIO_SetDir( LPC_GPIO_PORT, gpioPort, ( 1 << gpioPin ), GPIO_INPUT );
1a003960:	f89d 300c 	ldrb.w	r3, [sp, #12]
1a003964:	f99d 200b 	ldrsb.w	r2, [sp, #11]
1a003968:	2001      	movs	r0, #1
1a00396a:	fa00 f102 	lsl.w	r1, r0, r2
{
	if (out) {
		pGPIO->DIR[portNum] |= bitValue;
	}
	else {
		pGPIO->DIR[portNum] &= ~bitValue;
1a00396e:	4c44      	ldr	r4, [pc, #272]	; (1a003a80 <gpioInit+0x18c>)
1a003970:	f503 6300 	add.w	r3, r3, #2048	; 0x800
1a003974:	f854 2023 	ldr.w	r2, [r4, r3, lsl #2]
1a003978:	ea22 0201 	bic.w	r2, r2, r1
1a00397c:	f844 2023 	str.w	r2, [r4, r3, lsl #2]
1a003980:	e7df      	b.n	1a003942 <gpioInit+0x4e>
      Chip_SCU_PinMux(
1a003982:	f89d 100f 	ldrb.w	r1, [sp, #15]
1a003986:	f89d 300e 	ldrb.w	r3, [sp, #14]
1a00398a:	f89d 200d 	ldrb.w	r2, [sp, #13]
1a00398e:	f042 02c0 	orr.w	r2, r2, #192	; 0xc0
1a003992:	eb03 1341 	add.w	r3, r3, r1, lsl #5
1a003996:	493b      	ldr	r1, [pc, #236]	; (1a003a84 <gpioInit+0x190>)
1a003998:	f841 2023 	str.w	r2, [r1, r3, lsl #2]
      Chip_GPIO_SetDir( LPC_GPIO_PORT, gpioPort, ( 1 << gpioPin ), GPIO_INPUT );
1a00399c:	f89d 300c 	ldrb.w	r3, [sp, #12]
1a0039a0:	f99d 200b 	ldrsb.w	r2, [sp, #11]
1a0039a4:	2001      	movs	r0, #1
1a0039a6:	fa00 f102 	lsl.w	r1, r0, r2
1a0039aa:	4c35      	ldr	r4, [pc, #212]	; (1a003a80 <gpioInit+0x18c>)
1a0039ac:	f503 6300 	add.w	r3, r3, #2048	; 0x800
1a0039b0:	f854 2023 	ldr.w	r2, [r4, r3, lsl #2]
1a0039b4:	ea22 0201 	bic.w	r2, r2, r1
1a0039b8:	f844 2023 	str.w	r2, [r4, r3, lsl #2]
1a0039bc:	e7c1      	b.n	1a003942 <gpioInit+0x4e>
      Chip_SCU_PinMux(
1a0039be:	f89d 100f 	ldrb.w	r1, [sp, #15]
1a0039c2:	f89d 300e 	ldrb.w	r3, [sp, #14]
1a0039c6:	f89d 200d 	ldrb.w	r2, [sp, #13]
1a0039ca:	f042 02d8 	orr.w	r2, r2, #216	; 0xd8
1a0039ce:	eb03 1341 	add.w	r3, r3, r1, lsl #5
1a0039d2:	492c      	ldr	r1, [pc, #176]	; (1a003a84 <gpioInit+0x190>)
1a0039d4:	f841 2023 	str.w	r2, [r1, r3, lsl #2]
      Chip_GPIO_SetDir( LPC_GPIO_PORT, gpioPort, ( 1 << gpioPin ), GPIO_INPUT );
1a0039d8:	f89d 300c 	ldrb.w	r3, [sp, #12]
1a0039dc:	f99d 200b 	ldrsb.w	r2, [sp, #11]
1a0039e0:	2001      	movs	r0, #1
1a0039e2:	fa00 f102 	lsl.w	r1, r0, r2
1a0039e6:	4c26      	ldr	r4, [pc, #152]	; (1a003a80 <gpioInit+0x18c>)
1a0039e8:	f503 6300 	add.w	r3, r3, #2048	; 0x800
1a0039ec:	f854 2023 	ldr.w	r2, [r4, r3, lsl #2]
1a0039f0:	ea22 0201 	bic.w	r2, r2, r1
1a0039f4:	f844 2023 	str.w	r2, [r4, r3, lsl #2]
1a0039f8:	e7a3      	b.n	1a003942 <gpioInit+0x4e>
      Chip_SCU_PinMux(
1a0039fa:	f89d 100f 	ldrb.w	r1, [sp, #15]
1a0039fe:	f89d 300e 	ldrb.w	r3, [sp, #14]
1a003a02:	f89d 200d 	ldrb.w	r2, [sp, #13]
1a003a06:	f042 02c8 	orr.w	r2, r2, #200	; 0xc8
1a003a0a:	eb03 1341 	add.w	r3, r3, r1, lsl #5
1a003a0e:	491d      	ldr	r1, [pc, #116]	; (1a003a84 <gpioInit+0x190>)
1a003a10:	f841 2023 	str.w	r2, [r1, r3, lsl #2]
      Chip_GPIO_SetDir( LPC_GPIO_PORT, gpioPort, ( 1 << gpioPin ), GPIO_INPUT );
1a003a14:	f89d 300c 	ldrb.w	r3, [sp, #12]
1a003a18:	f99d 200b 	ldrsb.w	r2, [sp, #11]
1a003a1c:	2001      	movs	r0, #1
1a003a1e:	fa00 f102 	lsl.w	r1, r0, r2
1a003a22:	4c17      	ldr	r4, [pc, #92]	; (1a003a80 <gpioInit+0x18c>)
1a003a24:	f503 6300 	add.w	r3, r3, #2048	; 0x800
1a003a28:	f854 2023 	ldr.w	r2, [r4, r3, lsl #2]
1a003a2c:	ea22 0201 	bic.w	r2, r2, r1
1a003a30:	f844 2023 	str.w	r2, [r4, r3, lsl #2]
1a003a34:	e785      	b.n	1a003942 <gpioInit+0x4e>
      Chip_SCU_PinMux(
1a003a36:	f89d 100f 	ldrb.w	r1, [sp, #15]
1a003a3a:	f89d 300e 	ldrb.w	r3, [sp, #14]
1a003a3e:	f89d 200d 	ldrb.w	r2, [sp, #13]
1a003a42:	f042 02d0 	orr.w	r2, r2, #208	; 0xd0
1a003a46:	eb03 1341 	add.w	r3, r3, r1, lsl #5
1a003a4a:	490e      	ldr	r1, [pc, #56]	; (1a003a84 <gpioInit+0x190>)
1a003a4c:	f841 2023 	str.w	r2, [r1, r3, lsl #2]
      Chip_GPIO_SetDir( LPC_GPIO_PORT, gpioPort, ( 1 << gpioPin ), GPIO_OUTPUT );
1a003a50:	f89d 000c 	ldrb.w	r0, [sp, #12]
1a003a54:	f99d 100b 	ldrsb.w	r1, [sp, #11]
1a003a58:	2201      	movs	r2, #1
1a003a5a:	408a      	lsls	r2, r1
		pGPIO->DIR[portNum] |= bitValue;
1a003a5c:	4b08      	ldr	r3, [pc, #32]	; (1a003a80 <gpioInit+0x18c>)
1a003a5e:	f500 6500 	add.w	r5, r0, #2048	; 0x800
1a003a62:	f853 6025 	ldr.w	r6, [r3, r5, lsl #2]
1a003a66:	4332      	orrs	r2, r6
1a003a68:	f843 2025 	str.w	r2, [r3, r5, lsl #2]
      Chip_GPIO_SetPinState( LPC_GPIO_PORT, gpioPort, gpioPin, 0);
1a003a6c:	b2c9      	uxtb	r1, r1
	pGPIO->B[port][pin] = setting;
1a003a6e:	eb03 1340 	add.w	r3, r3, r0, lsl #5
1a003a72:	2200      	movs	r2, #0
1a003a74:	545a      	strb	r2, [r3, r1]
   bool_t ret_val     = 1;
1a003a76:	4620      	mov	r0, r4
}
1a003a78:	e763      	b.n	1a003942 <gpioInit+0x4e>
   gpioObtainPinInit( pin, &pinNamePort, &pinNamePin, &func,
1a003a7a:	2000      	movs	r0, #0
1a003a7c:	e761      	b.n	1a003942 <gpioInit+0x4e>
1a003a7e:	bf00      	nop
1a003a80:	400f4000 	.word	0x400f4000
1a003a84:	40086000 	.word	0x40086000

1a003a88 <gpioWrite>:


bool_t gpioWrite( gpioMap_t pin, bool_t value )
{
1a003a88:	b510      	push	{r4, lr}
1a003a8a:	b084      	sub	sp, #16
1a003a8c:	460c      	mov	r4, r1

   bool_t ret_val     = 1;

   int8_t pinNamePort = 0;
1a003a8e:	2300      	movs	r3, #0
1a003a90:	f88d 300f 	strb.w	r3, [sp, #15]
   int8_t pinNamePin  = 0;
1a003a94:	f88d 300e 	strb.w	r3, [sp, #14]

   int8_t func        = 0;
1a003a98:	f88d 300d 	strb.w	r3, [sp, #13]

   int8_t gpioPort    = 0;
1a003a9c:	f88d 300c 	strb.w	r3, [sp, #12]
   int8_t gpioPin     = 0;
1a003aa0:	f88d 300b 	strb.w	r3, [sp, #11]

   gpioObtainPinInit( pin, &pinNamePort, &pinNamePin, &func,
1a003aa4:	f10d 030b 	add.w	r3, sp, #11
1a003aa8:	9301      	str	r3, [sp, #4]
1a003aaa:	ab03      	add	r3, sp, #12
1a003aac:	9300      	str	r3, [sp, #0]
1a003aae:	f10d 030d 	add.w	r3, sp, #13
1a003ab2:	f10d 020e 	add.w	r2, sp, #14
1a003ab6:	f10d 010f 	add.w	r1, sp, #15
1a003aba:	f7ff ff01 	bl	1a0038c0 <gpioObtainPinInit>
                      &gpioPort, &gpioPin );

   Chip_GPIO_SetPinState( LPC_GPIO_PORT, gpioPort, gpioPin, value);
1a003abe:	f89d 300c 	ldrb.w	r3, [sp, #12]
1a003ac2:	f89d 200b 	ldrb.w	r2, [sp, #11]
1a003ac6:	3c00      	subs	r4, #0
1a003ac8:	bf18      	it	ne
1a003aca:	2401      	movne	r4, #1
	pGPIO->B[port][pin] = setting;
1a003acc:	015b      	lsls	r3, r3, #5
1a003ace:	f103 2340 	add.w	r3, r3, #1073758208	; 0x40004000
1a003ad2:	f503 2370 	add.w	r3, r3, #983040	; 0xf0000
1a003ad6:	549c      	strb	r4, [r3, r2]

   return ret_val;
}
1a003ad8:	2001      	movs	r0, #1
1a003ada:	b004      	add	sp, #16
1a003adc:	bd10      	pop	{r4, pc}

1a003ade <gpioRead>:
   return gpioWrite( pin, !gpioRead(pin) );
}


bool_t gpioRead( gpioMap_t pin )
{
1a003ade:	b500      	push	{lr}
1a003ae0:	b085      	sub	sp, #20

   bool_t ret_val     = OFF;

   int8_t pinNamePort = 0;
1a003ae2:	2300      	movs	r3, #0
1a003ae4:	f88d 300f 	strb.w	r3, [sp, #15]
   int8_t pinNamePin  = 0;
1a003ae8:	f88d 300e 	strb.w	r3, [sp, #14]

   int8_t func        = 0;
1a003aec:	f88d 300d 	strb.w	r3, [sp, #13]

   int8_t gpioPort    = 0;
1a003af0:	f88d 300c 	strb.w	r3, [sp, #12]
   int8_t gpioPin     = 0;
1a003af4:	f88d 300b 	strb.w	r3, [sp, #11]

   gpioObtainPinInit( pin, &pinNamePort, &pinNamePin, &func,
1a003af8:	f10d 030b 	add.w	r3, sp, #11
1a003afc:	9301      	str	r3, [sp, #4]
1a003afe:	ab03      	add	r3, sp, #12
1a003b00:	9300      	str	r3, [sp, #0]
1a003b02:	f10d 030d 	add.w	r3, sp, #13
1a003b06:	f10d 020e 	add.w	r2, sp, #14
1a003b0a:	f10d 010f 	add.w	r1, sp, #15
1a003b0e:	f7ff fed7 	bl	1a0038c0 <gpioObtainPinInit>
                      &gpioPort, &gpioPin );

   ret_val = (bool_t) Chip_GPIO_ReadPortBit( LPC_GPIO_PORT, gpioPort, gpioPin );
1a003b12:	f99d 300c 	ldrsb.w	r3, [sp, #12]
1a003b16:	f89d 200b 	ldrb.w	r2, [sp, #11]
	return (bool) pGPIO->B[port][pin];
1a003b1a:	015b      	lsls	r3, r3, #5
1a003b1c:	f103 2340 	add.w	r3, r3, #1073758208	; 0x40004000
1a003b20:	f503 2370 	add.w	r3, r3, #983040	; 0xf0000
1a003b24:	5c98      	ldrb	r0, [r3, r2]

   return ret_val;
}
1a003b26:	3800      	subs	r0, #0
1a003b28:	bf18      	it	ne
1a003b2a:	2001      	movne	r0, #1
1a003b2c:	b005      	add	sp, #20
1a003b2e:	f85d fb04 	ldr.w	pc, [sp], #4
1a003b32:	Address 0x000000001a003b32 is out of bounds.


1a003b34 <tickRead>:

// Read Tick Counter
tick_t tickRead( void )
{
   return tickCounter;
}
1a003b34:	4b01      	ldr	r3, [pc, #4]	; (1a003b3c <tickRead+0x8>)
1a003b36:	e9d3 0100 	ldrd	r0, r1, [r3]
1a003b3a:	4770      	bx	lr
1a003b3c:	10000c40 	.word	0x10000c40

1a003b40 <tickCallbackSet>:

// Tick interrupt callback
bool_t tickCallbackSet( callBackFuncPtr_t tickCallback, void* tickCallbackParams )
{
   bool_t retVal = TRUE;
   if( tickCallback != NULL ) {
1a003b40:	b130      	cbz	r0, 1a003b50 <tickCallbackSet+0x10>
      tickHookFunction = tickCallback;
1a003b42:	4a05      	ldr	r2, [pc, #20]	; (1a003b58 <tickCallbackSet+0x18>)
1a003b44:	6010      	str	r0, [r2, #0]
   bool_t retVal = TRUE;
1a003b46:	2001      	movs	r0, #1
   } else {
      retVal = FALSE;
   }
   if( tickCallbackParams != NULL ) {
1a003b48:	b121      	cbz	r1, 1a003b54 <tickCallbackSet+0x14>
      callBackFuncParams = tickCallbackParams;
1a003b4a:	4b04      	ldr	r3, [pc, #16]	; (1a003b5c <tickCallbackSet+0x1c>)
1a003b4c:	6019      	str	r1, [r3, #0]
1a003b4e:	4770      	bx	lr
      retVal = FALSE;
1a003b50:	2000      	movs	r0, #0
1a003b52:	e7f9      	b.n	1a003b48 <tickCallbackSet+0x8>
   } else {
      retVal &= FALSE;
1a003b54:	2000      	movs	r0, #0
   }
   return retVal;
}
1a003b56:	4770      	bx	lr
1a003b58:	100005c8 	.word	0x100005c8
1a003b5c:	100005c4 	.word	0x100005c4

1a003b60 <tickPowerSet>:

// Enable or disable the peripheral energy and clock
void tickPowerSet( bool_t power )
{
   if( power ) {
1a003b60:	b118      	cbz	r0, 1a003b6a <tickPowerSet+0xa>
      // Enable SysTick IRQ and SysTick Timer
      SysTick->CTRL = SysTick_CTRL_CLKSOURCE_Msk |
1a003b62:	4b04      	ldr	r3, [pc, #16]	; (1a003b74 <tickPowerSet+0x14>)
1a003b64:	2207      	movs	r2, #7
1a003b66:	601a      	str	r2, [r3, #0]
1a003b68:	4770      	bx	lr
                      SysTick_CTRL_TICKINT_Msk   |
                      SysTick_CTRL_ENABLE_Msk;
   } else {
      // Disable SysTick IRQ and SysTick Timer
      SysTick->CTRL = 0x0000000;
1a003b6a:	4b02      	ldr	r3, [pc, #8]	; (1a003b74 <tickPowerSet+0x14>)
1a003b6c:	2200      	movs	r2, #0
1a003b6e:	601a      	str	r2, [r3, #0]
   }
}
1a003b70:	4770      	bx	lr
1a003b72:	bf00      	nop
1a003b74:	e000e010 	.word	0xe000e010

1a003b78 <tickInit>:
{
1a003b78:	b538      	push	{r3, r4, r5, lr}
1a003b7a:	4602      	mov	r2, r0
1a003b7c:	460b      	mov	r3, r1
      if( tickRateMSvalue == 0 ) {
1a003b7e:	ea52 0103 	orrs.w	r1, r2, r3
1a003b82:	d028      	beq.n	1a003bd6 <tickInit+0x5e>
         if( (tickRateMSvalue >= 1) && (tickRateMSvalue <= 50) ) {
1a003b84:	f110 34ff 	adds.w	r4, r0, #4294967295	; 0xffffffff
1a003b88:	f143 35ff 	adc.w	r5, r3, #4294967295	; 0xffffffff
1a003b8c:	2d00      	cmp	r5, #0
1a003b8e:	bf08      	it	eq
1a003b90:	2c32      	cmpeq	r4, #50	; 0x32
1a003b92:	d225      	bcs.n	1a003be0 <tickInit+0x68>
            tickRateMS = tickRateMSvalue;
1a003b94:	4913      	ldr	r1, [pc, #76]	; (1a003be4 <tickInit+0x6c>)
1a003b96:	e9c1 2300 	strd	r2, r3, [r1]
            SysTick_Config( SystemCoreClock * tickRateMSvalue / 1000 );
1a003b9a:	4913      	ldr	r1, [pc, #76]	; (1a003be8 <tickInit+0x70>)
1a003b9c:	680c      	ldr	r4, [r1, #0]
1a003b9e:	fba4 0100 	umull	r0, r1, r4, r0
1a003ba2:	fb04 1103 	mla	r1, r4, r3, r1
1a003ba6:	f44f 727a 	mov.w	r2, #1000	; 0x3e8
1a003baa:	2300      	movs	r3, #0
1a003bac:	f002 f896 	bl	1a005cdc <__aeabi_uldivmod>
    must contain a vendor-specific implementation of this function.

 */
__STATIC_INLINE uint32_t SysTick_Config(uint32_t ticks)
{
  if ((ticks - 1) > SysTick_LOAD_RELOAD_Msk)  return (1);      /* Reload value impossible */
1a003bb0:	3801      	subs	r0, #1
1a003bb2:	f1b0 7f80 	cmp.w	r0, #16777216	; 0x1000000
1a003bb6:	d209      	bcs.n	1a003bcc <tickInit+0x54>

  SysTick->LOAD  = ticks - 1;                                  /* set reload register */
1a003bb8:	4b0c      	ldr	r3, [pc, #48]	; (1a003bec <tickInit+0x74>)
1a003bba:	6058      	str	r0, [r3, #4]
    SCB->SHP[((uint32_t)(IRQn) & 0xF)-4] = ((priority << (8 - __NVIC_PRIO_BITS)) & 0xff); } /* set Priority for Cortex-M  System Interrupts */
1a003bbc:	4a0c      	ldr	r2, [pc, #48]	; (1a003bf0 <tickInit+0x78>)
1a003bbe:	21e0      	movs	r1, #224	; 0xe0
1a003bc0:	f882 1023 	strb.w	r1, [r2, #35]	; 0x23
  NVIC_SetPriority (SysTick_IRQn, (1<<__NVIC_PRIO_BITS) - 1);  /* set Priority for Systick Interrupt */
  SysTick->VAL   = 0;                                          /* Load the SysTick Counter Value */
1a003bc4:	2200      	movs	r2, #0
1a003bc6:	609a      	str	r2, [r3, #8]
  SysTick->CTRL  = SysTick_CTRL_CLKSOURCE_Msk |
1a003bc8:	2207      	movs	r2, #7
1a003bca:	601a      	str	r2, [r3, #0]
            tickPowerSet( ON );
1a003bcc:	2001      	movs	r0, #1
1a003bce:	f7ff ffc7 	bl	1a003b60 <tickPowerSet>
      bool_t ret_val = 1;
1a003bd2:	2001      	movs	r0, #1
1a003bd4:	e005      	b.n	1a003be2 <tickInit+0x6a>
         tickPowerSet( OFF );
1a003bd6:	2000      	movs	r0, #0
1a003bd8:	f7ff ffc2 	bl	1a003b60 <tickPowerSet>
         ret_val = 0;
1a003bdc:	2000      	movs	r0, #0
1a003bde:	e000      	b.n	1a003be2 <tickInit+0x6a>
            ret_val = 0;
1a003be0:	2000      	movs	r0, #0
}
1a003be2:	bd38      	pop	{r3, r4, r5, pc}
1a003be4:	10000c48 	.word	0x10000c48
1a003be8:	10000c50 	.word	0x10000c50
1a003bec:	e000e010 	.word	0xe000e010
1a003bf0:	e000ed00 	.word	0xe000ed00

1a003bf4 <SysTick_Handler>:

//__attribute__ ((section(".after_vectors")))

// SysTick Timer ISR Handler
void tickerCallback( void )   // Before SysTick_Handler
{
1a003bf4:	b538      	push	{r3, r4, r5, lr}
   // Increment Tick counters
   tickCounter++;
1a003bf6:	4908      	ldr	r1, [pc, #32]	; (1a003c18 <SysTick_Handler+0x24>)
1a003bf8:	e9d1 2300 	ldrd	r2, r3, [r1]
1a003bfc:	1c54      	adds	r4, r2, #1
1a003bfe:	f143 0500 	adc.w	r5, r3, #0
1a003c02:	e9c1 4500 	strd	r4, r5, [r1]
   // Execute Tick Hook function if pointer is not NULL
   if( (tickHookFunction != NULL) ) {
1a003c06:	4b05      	ldr	r3, [pc, #20]	; (1a003c1c <SysTick_Handler+0x28>)
1a003c08:	681b      	ldr	r3, [r3, #0]
1a003c0a:	b123      	cbz	r3, 1a003c16 <SysTick_Handler+0x22>
      (* tickHookFunction )( callBackFuncParams );
1a003c0c:	4b03      	ldr	r3, [pc, #12]	; (1a003c1c <SysTick_Handler+0x28>)
1a003c0e:	681b      	ldr	r3, [r3, #0]
1a003c10:	4a03      	ldr	r2, [pc, #12]	; (1a003c20 <SysTick_Handler+0x2c>)
1a003c12:	6810      	ldr	r0, [r2, #0]
1a003c14:	4798      	blx	r3
   }
}
1a003c16:	bd38      	pop	{r3, r4, r5, pc}
1a003c18:	10000c40 	.word	0x10000c40
1a003c1c:	100005c8 	.word	0x100005c8
1a003c20:	100005c4 	.word	0x100005c4

1a003c24 <uartProcessIRQ>:
{
1a003c24:	b570      	push	{r4, r5, r6, lr}
1a003c26:	4604      	mov	r4, r0
   uint8_t status = Chip_UART_ReadLineStatus( lpcUarts[uart].uartAddr );
1a003c28:	eb00 0240 	add.w	r2, r0, r0, lsl #1
1a003c2c:	4b25      	ldr	r3, [pc, #148]	; (1a003cc4 <uartProcessIRQ+0xa0>)
1a003c2e:	f853 5022 	ldr.w	r5, [r3, r2, lsl #2]
 * @note	Mask bits of the returned status value with UART_LSR_*
 *			definitions for specific statuses.
 */
STATIC INLINE uint32_t Chip_UART_ReadLineStatus(LPC_USART_T *pUART)
{
	return pUART->LSR;
1a003c32:	696b      	ldr	r3, [r5, #20]
   if(status & UART_LSR_RDR) { // uartRxReady
1a003c34:	b2de      	uxtb	r6, r3
1a003c36:	f013 0f01 	tst.w	r3, #1
1a003c3a:	d00b      	beq.n	1a003c54 <uartProcessIRQ+0x30>
      if( ( uart == UART_GPIO ) && (rxIsrCallbackUART0 != 0) )
1a003c3c:	b930      	cbnz	r0, 1a003c4c <uartProcessIRQ+0x28>
1a003c3e:	4b22      	ldr	r3, [pc, #136]	; (1a003cc8 <uartProcessIRQ+0xa4>)
1a003c40:	681b      	ldr	r3, [r3, #0]
1a003c42:	b11b      	cbz	r3, 1a003c4c <uartProcessIRQ+0x28>
         (*rxIsrCallbackUART0)(0);
1a003c44:	4b20      	ldr	r3, [pc, #128]	; (1a003cc8 <uartProcessIRQ+0xa4>)
1a003c46:	681b      	ldr	r3, [r3, #0]
1a003c48:	2000      	movs	r0, #0
1a003c4a:	4798      	blx	r3
      if( ( uart == UART_USB )  && (rxIsrCallbackUART2 != 0) )
1a003c4c:	2c03      	cmp	r4, #3
1a003c4e:	d015      	beq.n	1a003c7c <uartProcessIRQ+0x58>
      if( ( uart == UART_232 )  && (rxIsrCallbackUART3 != 0) )
1a003c50:	2c05      	cmp	r4, #5
1a003c52:	d01c      	beq.n	1a003c8e <uartProcessIRQ+0x6a>
   if( ( status & UART_LSR_THRE ) && // uartTxReady
1a003c54:	f016 0f20 	tst.w	r6, #32
1a003c58:	d00f      	beq.n	1a003c7a <uartProcessIRQ+0x56>
	return pUART->IER;
1a003c5a:	686b      	ldr	r3, [r5, #4]
1a003c5c:	f013 0f02 	tst.w	r3, #2
1a003c60:	d00b      	beq.n	1a003c7a <uartProcessIRQ+0x56>
      if( ( uart == UART_GPIO ) && (txIsrCallbackUART0 != 0) )
1a003c62:	b934      	cbnz	r4, 1a003c72 <uartProcessIRQ+0x4e>
1a003c64:	4b19      	ldr	r3, [pc, #100]	; (1a003ccc <uartProcessIRQ+0xa8>)
1a003c66:	681b      	ldr	r3, [r3, #0]
1a003c68:	b11b      	cbz	r3, 1a003c72 <uartProcessIRQ+0x4e>
         (*txIsrCallbackUART0)(0);
1a003c6a:	4b18      	ldr	r3, [pc, #96]	; (1a003ccc <uartProcessIRQ+0xa8>)
1a003c6c:	681b      	ldr	r3, [r3, #0]
1a003c6e:	2000      	movs	r0, #0
1a003c70:	4798      	blx	r3
      if( ( uart == UART_USB )  && (txIsrCallbackUART2 != 0) )
1a003c72:	2c03      	cmp	r4, #3
1a003c74:	d014      	beq.n	1a003ca0 <uartProcessIRQ+0x7c>
      if( ( uart == UART_232 )  && (txIsrCallbackUART3 != 0) )
1a003c76:	2c05      	cmp	r4, #5
1a003c78:	d01b      	beq.n	1a003cb2 <uartProcessIRQ+0x8e>
}
1a003c7a:	bd70      	pop	{r4, r5, r6, pc}
      if( ( uart == UART_USB )  && (rxIsrCallbackUART2 != 0) )
1a003c7c:	4b14      	ldr	r3, [pc, #80]	; (1a003cd0 <uartProcessIRQ+0xac>)
1a003c7e:	681b      	ldr	r3, [r3, #0]
1a003c80:	2b00      	cmp	r3, #0
1a003c82:	d0e5      	beq.n	1a003c50 <uartProcessIRQ+0x2c>
         (*rxIsrCallbackUART2)(0);
1a003c84:	4b12      	ldr	r3, [pc, #72]	; (1a003cd0 <uartProcessIRQ+0xac>)
1a003c86:	681b      	ldr	r3, [r3, #0]
1a003c88:	2000      	movs	r0, #0
1a003c8a:	4798      	blx	r3
1a003c8c:	e7e0      	b.n	1a003c50 <uartProcessIRQ+0x2c>
      if( ( uart == UART_232 )  && (rxIsrCallbackUART3 != 0) )
1a003c8e:	4b11      	ldr	r3, [pc, #68]	; (1a003cd4 <uartProcessIRQ+0xb0>)
1a003c90:	681b      	ldr	r3, [r3, #0]
1a003c92:	2b00      	cmp	r3, #0
1a003c94:	d0de      	beq.n	1a003c54 <uartProcessIRQ+0x30>
         (*rxIsrCallbackUART3)(0);
1a003c96:	4b0f      	ldr	r3, [pc, #60]	; (1a003cd4 <uartProcessIRQ+0xb0>)
1a003c98:	681b      	ldr	r3, [r3, #0]
1a003c9a:	2000      	movs	r0, #0
1a003c9c:	4798      	blx	r3
1a003c9e:	e7d9      	b.n	1a003c54 <uartProcessIRQ+0x30>
      if( ( uart == UART_USB )  && (txIsrCallbackUART2 != 0) )
1a003ca0:	4b0d      	ldr	r3, [pc, #52]	; (1a003cd8 <uartProcessIRQ+0xb4>)
1a003ca2:	681b      	ldr	r3, [r3, #0]
1a003ca4:	2b00      	cmp	r3, #0
1a003ca6:	d0e6      	beq.n	1a003c76 <uartProcessIRQ+0x52>
         (*txIsrCallbackUART2)(0);
1a003ca8:	4b0b      	ldr	r3, [pc, #44]	; (1a003cd8 <uartProcessIRQ+0xb4>)
1a003caa:	681b      	ldr	r3, [r3, #0]
1a003cac:	2000      	movs	r0, #0
1a003cae:	4798      	blx	r3
1a003cb0:	e7e1      	b.n	1a003c76 <uartProcessIRQ+0x52>
      if( ( uart == UART_232 )  && (txIsrCallbackUART3 != 0) )
1a003cb2:	4b0a      	ldr	r3, [pc, #40]	; (1a003cdc <uartProcessIRQ+0xb8>)
1a003cb4:	681b      	ldr	r3, [r3, #0]
1a003cb6:	2b00      	cmp	r3, #0
1a003cb8:	d0df      	beq.n	1a003c7a <uartProcessIRQ+0x56>
         (*txIsrCallbackUART3)(0);
1a003cba:	4b08      	ldr	r3, [pc, #32]	; (1a003cdc <uartProcessIRQ+0xb8>)
1a003cbc:	681b      	ldr	r3, [r3, #0]
1a003cbe:	2000      	movs	r0, #0
1a003cc0:	4798      	blx	r3
}
1a003cc2:	e7da      	b.n	1a003c7a <uartProcessIRQ+0x56>
1a003cc4:	1a007530 	.word	0x1a007530
1a003cc8:	100005cc 	.word	0x100005cc
1a003ccc:	100005d8 	.word	0x100005d8
1a003cd0:	100005d0 	.word	0x100005d0
1a003cd4:	100005d4 	.word	0x100005d4
1a003cd8:	100005dc 	.word	0x100005dc
1a003cdc:	100005e0 	.word	0x100005e0

1a003ce0 <uartRxReady>:
   return Chip_UART_ReadLineStatus( lpcUarts[uart].uartAddr ) & UART_LSR_RDR;
1a003ce0:	eb00 0040 	add.w	r0, r0, r0, lsl #1
1a003ce4:	4b03      	ldr	r3, [pc, #12]	; (1a003cf4 <uartRxReady+0x14>)
1a003ce6:	f853 3020 	ldr.w	r3, [r3, r0, lsl #2]
	return pUART->LSR;
1a003cea:	6958      	ldr	r0, [r3, #20]
}
1a003cec:	f000 0001 	and.w	r0, r0, #1
1a003cf0:	4770      	bx	lr
1a003cf2:	bf00      	nop
1a003cf4:	1a007530 	.word	0x1a007530

1a003cf8 <uartTxReady>:
   return Chip_UART_ReadLineStatus( lpcUarts[uart].uartAddr ) & UART_LSR_THRE;
1a003cf8:	eb00 0040 	add.w	r0, r0, r0, lsl #1
1a003cfc:	4b03      	ldr	r3, [pc, #12]	; (1a003d0c <uartTxReady+0x14>)
1a003cfe:	f853 3020 	ldr.w	r3, [r3, r0, lsl #2]
1a003d02:	6958      	ldr	r0, [r3, #20]
}
1a003d04:	f000 0020 	and.w	r0, r0, #32
1a003d08:	4770      	bx	lr
1a003d0a:	bf00      	nop
1a003d0c:	1a007530 	.word	0x1a007530

1a003d10 <uartRxRead>:
   return Chip_UART_ReadByte( lpcUarts[uart].uartAddr );
1a003d10:	eb00 0040 	add.w	r0, r0, r0, lsl #1
1a003d14:	4b02      	ldr	r3, [pc, #8]	; (1a003d20 <uartRxRead+0x10>)
1a003d16:	f853 3020 	ldr.w	r3, [r3, r0, lsl #2]
	return (uint8_t) (pUART->RBR & UART_RBR_MASKBIT);
1a003d1a:	6818      	ldr	r0, [r3, #0]
}
1a003d1c:	b2c0      	uxtb	r0, r0
1a003d1e:	4770      	bx	lr
1a003d20:	1a007530 	.word	0x1a007530

1a003d24 <uartTxWrite>:
   Chip_UART_SendByte( lpcUarts[uart].uartAddr, value );
1a003d24:	eb00 0040 	add.w	r0, r0, r0, lsl #1
1a003d28:	4b02      	ldr	r3, [pc, #8]	; (1a003d34 <uartTxWrite+0x10>)
1a003d2a:	f853 3020 	ldr.w	r3, [r3, r0, lsl #2]
	pUART->THR = (uint32_t) data;
1a003d2e:	6019      	str	r1, [r3, #0]
}
1a003d30:	4770      	bx	lr
1a003d32:	bf00      	nop
1a003d34:	1a007530 	.word	0x1a007530

1a003d38 <uartInit>:
{
1a003d38:	e92d 43f8 	stmdb	sp!, {r3, r4, r5, r6, r7, r8, r9, lr}
1a003d3c:	4604      	mov	r4, r0
1a003d3e:	4689      	mov	r9, r1
   Chip_UART_Init( lpcUarts[uart].uartAddr );
1a003d40:	4d19      	ldr	r5, [pc, #100]	; (1a003da8 <uartInit+0x70>)
1a003d42:	eb00 0340 	add.w	r3, r0, r0, lsl #1
1a003d46:	eb05 0683 	add.w	r6, r5, r3, lsl #2
1a003d4a:	f855 7023 	ldr.w	r7, [r5, r3, lsl #2]
1a003d4e:	4638      	mov	r0, r7
1a003d50:	f000 fc3c 	bl	1a0045cc <Chip_UART_Init>
   Chip_UART_SetBaud( lpcUarts[uart].uartAddr, baudRate );
1a003d54:	4649      	mov	r1, r9
1a003d56:	4638      	mov	r0, r7
1a003d58:	f000 fc62 	bl	1a004620 <Chip_UART_SetBaud>
	pUART->FCR = fcr;
1a003d5c:	2307      	movs	r3, #7
1a003d5e:	60bb      	str	r3, [r7, #8]
	return (uint8_t) (pUART->RBR & UART_RBR_MASKBIT);
1a003d60:	683b      	ldr	r3, [r7, #0]
    pUART->TER2 = UART_TER2_TXEN;
1a003d62:	2301      	movs	r3, #1
1a003d64:	65fb      	str	r3, [r7, #92]	; 0x5c
   Chip_SCU_PinMux( lpcUarts[uart].txPin.lpcScuPort,
1a003d66:	7930      	ldrb	r0, [r6, #4]
1a003d68:	7973      	ldrb	r3, [r6, #5]
1a003d6a:	79b2      	ldrb	r2, [r6, #6]
1a003d6c:	f042 0218 	orr.w	r2, r2, #24
1a003d70:	490e      	ldr	r1, [pc, #56]	; (1a003dac <uartInit+0x74>)
1a003d72:	eb03 1340 	add.w	r3, r3, r0, lsl #5
1a003d76:	f841 2023 	str.w	r2, [r1, r3, lsl #2]
   Chip_SCU_PinMux( lpcUarts[uart].rxPin.lpcScuPort,
1a003d7a:	79f0      	ldrb	r0, [r6, #7]
1a003d7c:	7a33      	ldrb	r3, [r6, #8]
1a003d7e:	7a72      	ldrb	r2, [r6, #9]
1a003d80:	f042 02d0 	orr.w	r2, r2, #208	; 0xd0
1a003d84:	eb03 1340 	add.w	r3, r3, r0, lsl #5
1a003d88:	f841 2023 	str.w	r2, [r1, r3, lsl #2]
   if( uart == UART_485 ) {
1a003d8c:	2c01      	cmp	r4, #1
1a003d8e:	d001      	beq.n	1a003d94 <uartInit+0x5c>
}
1a003d90:	e8bd 83f8 	ldmia.w	sp!, {r3, r4, r5, r6, r7, r8, r9, pc}
 * @note	Use an Or'ed value of UART_RS485CTRL_* definitions with this
 *			call to set specific options.
 */
STATIC INLINE void Chip_UART_SetRS485Flags(LPC_USART_T *pUART, uint32_t ctrl)
{
	pUART->RS485CTRL |= ctrl;
1a003d94:	4a06      	ldr	r2, [pc, #24]	; (1a003db0 <uartInit+0x78>)
1a003d96:	6cd3      	ldr	r3, [r2, #76]	; 0x4c
1a003d98:	f043 0330 	orr.w	r3, r3, #48	; 0x30
1a003d9c:	64d3      	str	r3, [r2, #76]	; 0x4c
1a003d9e:	221a      	movs	r2, #26
1a003da0:	f8c1 2308 	str.w	r2, [r1, #776]	; 0x308
1a003da4:	e7f4      	b.n	1a003d90 <uartInit+0x58>
1a003da6:	bf00      	nop
1a003da8:	1a007530 	.word	0x1a007530
1a003dac:	40086000 	.word	0x40086000
1a003db0:	40081000 	.word	0x40081000

1a003db4 <uartWriteByte>:
{
1a003db4:	b538      	push	{r3, r4, r5, lr}
1a003db6:	4604      	mov	r4, r0
1a003db8:	460d      	mov	r5, r1
   while( uartTxReady( uart ) == FALSE );
1a003dba:	4620      	mov	r0, r4
1a003dbc:	f7ff ff9c 	bl	1a003cf8 <uartTxReady>
1a003dc0:	2800      	cmp	r0, #0
1a003dc2:	d0fa      	beq.n	1a003dba <uartWriteByte+0x6>
   uartTxWrite( uart, value );
1a003dc4:	4629      	mov	r1, r5
1a003dc6:	4620      	mov	r0, r4
1a003dc8:	f7ff ffac 	bl	1a003d24 <uartTxWrite>
}
1a003dcc:	bd38      	pop	{r3, r4, r5, pc}

1a003dce <uartWriteString>:
{
1a003dce:	b538      	push	{r3, r4, r5, lr}
1a003dd0:	4605      	mov	r5, r0
1a003dd2:	460c      	mov	r4, r1
   while( *str != 0 ) {
1a003dd4:	7821      	ldrb	r1, [r4, #0]
1a003dd6:	b121      	cbz	r1, 1a003de2 <uartWriteString+0x14>
      uartWriteByte( uart, (uint8_t)*str );
1a003dd8:	4628      	mov	r0, r5
1a003dda:	f7ff ffeb 	bl	1a003db4 <uartWriteByte>
      str++;
1a003dde:	3401      	adds	r4, #1
1a003de0:	e7f8      	b.n	1a003dd4 <uartWriteString+0x6>
}
1a003de2:	bd38      	pop	{r3, r4, r5, pc}

1a003de4 <UART2_IRQHandler>:

// UART2 (USB-UART) or UART_ENET
// 0x2a 0x000000A8 - Handler for ISR UART2 (IRQ 26)
void UART2_IRQHandler(void)
{
1a003de4:	b508      	push	{r3, lr}
   uartProcessIRQ( UART_USB );
1a003de6:	2003      	movs	r0, #3
1a003de8:	f7ff ff1c 	bl	1a003c24 <uartProcessIRQ>
}
1a003dec:	bd08      	pop	{r3, pc}

1a003dee <UART3_IRQHandler>:

// UART3 (RS232)
// 0x2b 0x000000AC - Handler for ISR UART3 (IRQ 27)
void UART3_IRQHandler(void)
{
1a003dee:	b508      	push	{r3, lr}
   uartProcessIRQ( UART_232 );
1a003df0:	2005      	movs	r0, #5
1a003df2:	f7ff ff17 	bl	1a003c24 <uartProcessIRQ>
}
1a003df6:	bd08      	pop	{r3, pc}

1a003df8 <spiInit>:
bool_t spiInit( spiMap_t spi )
{

   bool_t retVal = TRUE;

   if( spi == SPI0 ) {
1a003df8:	b108      	cbz	r0, 1a003dfe <spiInit+0x6>
      // Initialize SSP Peripheral
      Chip_SSP_Init( LPC_SSP1 );
      Chip_SSP_Enable( LPC_SSP1 );

   } else {
      retVal = FALSE;
1a003dfa:	2000      	movs	r0, #0
   }

   return retVal;
}
1a003dfc:	4770      	bx	lr
{
1a003dfe:	b510      	push	{r4, lr}
1a003e00:	4b0e      	ldr	r3, [pc, #56]	; (1a003e3c <spiInit+0x44>)
1a003e02:	2200      	movs	r2, #0
1a003e04:	f8c3 2790 	str.w	r2, [r3, #1936]	; 0x790
1a003e08:	22c5      	movs	r2, #197	; 0xc5
1a003e0a:	f8c3 208c 	str.w	r2, [r3, #140]	; 0x8c
1a003e0e:	2205      	movs	r2, #5
1a003e10:	f8c3 2090 	str.w	r2, [r3, #144]	; 0x90
1a003e14:	2204      	movs	r2, #4
1a003e16:	f8c3 231c 	str.w	r2, [r3, #796]	; 0x31c
	pGPIO->DIR[port] |= 1UL << pin;
1a003e1a:	4909      	ldr	r1, [pc, #36]	; (1a003e40 <spiInit+0x48>)
1a003e1c:	f242 0214 	movw	r2, #8212	; 0x2014
1a003e20:	588b      	ldr	r3, [r1, r2]
1a003e22:	f443 4300 	orr.w	r3, r3, #32768	; 0x8000
1a003e26:	508b      	str	r3, [r1, r2]
      Chip_SSP_Init( LPC_SSP1 );
1a003e28:	4c06      	ldr	r4, [pc, #24]	; (1a003e44 <spiInit+0x4c>)
1a003e2a:	4620      	mov	r0, r4
1a003e2c:	f001 f9da 	bl	1a0051e4 <Chip_SSP_Init>
 * @param	pSSP		: The base of SSP peripheral on the chip
 * @return	 Nothing
 */
STATIC INLINE void Chip_SSP_Enable(LPC_SSP_T *pSSP)
{
	pSSP->CR1 |= SSP_CR1_SSP_EN;
1a003e30:	6863      	ldr	r3, [r4, #4]
1a003e32:	f043 0302 	orr.w	r3, r3, #2
1a003e36:	6063      	str	r3, [r4, #4]
   bool_t retVal = TRUE;
1a003e38:	2001      	movs	r0, #1
}
1a003e3a:	bd10      	pop	{r4, pc}
1a003e3c:	40086000 	.word	0x40086000
1a003e40:	400f4000 	.word	0x400f4000
1a003e44:	400c5000 	.word	0x400c5000

1a003e48 <delay>:
/* ---- Blocking Delay ---- */

// delay( 1, DELAY_US );

void delay(tick_t duration)
{
1a003e48:	e92d 43f8 	stmdb	sp!, {r3, r4, r5, r6, r7, r8, r9, lr}
1a003e4c:	4681      	mov	r9, r0
1a003e4e:	4688      	mov	r8, r1
   tick_t startTime = tickRead();
1a003e50:	f7ff fe70 	bl	1a003b34 <tickRead>
1a003e54:	4606      	mov	r6, r0
1a003e56:	460f      	mov	r7, r1
   while ( (tick_t)(tickRead() - startTime) < duration/tickRateMS );
1a003e58:	f7ff fe6c 	bl	1a003b34 <tickRead>
1a003e5c:	1b84      	subs	r4, r0, r6
1a003e5e:	eb61 0507 	sbc.w	r5, r1, r7
1a003e62:	4b06      	ldr	r3, [pc, #24]	; (1a003e7c <delay+0x34>)
1a003e64:	e9d3 2300 	ldrd	r2, r3, [r3]
1a003e68:	4648      	mov	r0, r9
1a003e6a:	4641      	mov	r1, r8
1a003e6c:	f001 ff36 	bl	1a005cdc <__aeabi_uldivmod>
1a003e70:	428d      	cmp	r5, r1
1a003e72:	bf08      	it	eq
1a003e74:	4284      	cmpeq	r4, r0
1a003e76:	d3ef      	bcc.n	1a003e58 <delay+0x10>
}
1a003e78:	e8bd 83f8 	ldmia.w	sp!, {r3, r4, r5, r6, r7, r8, r9, pc}
1a003e7c:	10000c48 	.word	0x10000c48

1a003e80 <i2cHardwareInit>:
   return retVal;
}
#else

static bool_t i2cHardwareInit( i2cMap_t i2cNumber, uint32_t clockRateHz )
{
1a003e80:	b538      	push	{r3, r4, r5, lr}
1a003e82:	4604      	mov	r4, r0
1a003e84:	460d      	mov	r5, r1
 *                  - I2C0_FAST_MODE_PLUS: Fast-mode Plus transmit
 * @return	Nothing
 */
STATIC INLINE void Chip_SCU_I2C0PinConfig(uint32_t I2C0Mode)
{
	LPC_SCU->SFSI2C0 = I2C0Mode;
1a003e86:	4b08      	ldr	r3, [pc, #32]	; (1a003ea8 <i2cHardwareInit+0x28>)
1a003e88:	f640 0208 	movw	r2, #2056	; 0x808
1a003e8c:	f8c3 2c84 	str.w	r2, [r3, #3204]	; 0xc84

   // Configuracion de las lineas de SDA y SCL de la placa
   Chip_SCU_I2C0PinConfig( I2C0_STANDARD_FAST_MODE );

   // Inicializacion del periferico
   Chip_I2C_Init( i2cNumber );
1a003e90:	f000 faf8 	bl	1a004484 <Chip_I2C_Init>
   // Seleccion de velocidad del bus
   Chip_I2C_SetClockRate( i2cNumber, clockRateHz );
1a003e94:	4629      	mov	r1, r5
1a003e96:	4620      	mov	r0, r4
1a003e98:	f000 fb08 	bl	1a0044ac <Chip_I2C_SetClockRate>
   // Configuracion para que los eventos se resuelvan por polliong
   // (la otra opcion es por interrupcion)
   Chip_I2C_SetMasterEventHandler( i2cNumber, Chip_I2C_EventHandlerPolling );
1a003e9c:	4903      	ldr	r1, [pc, #12]	; (1a003eac <i2cHardwareInit+0x2c>)
1a003e9e:	4620      	mov	r0, r4
1a003ea0:	f000 fb22 	bl	1a0044e8 <Chip_I2C_SetMasterEventHandler>

   return TRUE;
}
1a003ea4:	2001      	movs	r0, #1
1a003ea6:	bd38      	pop	{r3, r4, r5, pc}
1a003ea8:	40086000 	.word	0x40086000
1a003eac:	1a004569 	.word	0x1a004569

1a003eb0 <i2cHardwareRead>:
                               uint16_t dataToReadBufferSize,
                               bool_t   sendWriteStop,
                               uint8_t* receiveDataBuffer,
                               uint16_t receiveDataBufferSize,
                               bool_t   sendReadStop )
{
1a003eb0:	b500      	push	{lr}
1a003eb2:	b085      	sub	sp, #20

   //TODO: ver i2cData.options si se puede poner la condicion opcional de stop

   I2CM_XFER_T i2cData;

   i2cData.slaveAddr = i2cSlaveAddress;
1a003eb4:	f88d 1000 	strb.w	r1, [sp]
   i2cData.options   = 0;
1a003eb8:	2100      	movs	r1, #0
1a003eba:	f88d 1001 	strb.w	r1, [sp, #1]
   i2cData.status    = 0;
1a003ebe:	f8ad 1002 	strh.w	r1, [sp, #2]
   i2cData.txBuff    = dataToReadBuffer;
1a003ec2:	9202      	str	r2, [sp, #8]
   i2cData.txSz      = dataToReadBufferSize;
1a003ec4:	f8ad 3004 	strh.w	r3, [sp, #4]
   i2cData.rxBuff    = receiveDataBuffer;
1a003ec8:	9b07      	ldr	r3, [sp, #28]
1a003eca:	9303      	str	r3, [sp, #12]
   i2cData.rxSz      = receiveDataBufferSize;
1a003ecc:	f8bd 3020 	ldrh.w	r3, [sp, #32]
1a003ed0:	f8ad 3006 	strh.w	r3, [sp, #6]

   if( Chip_I2CM_XferBlocking( LPC_I2C0, &i2cData ) == 0 ) {
1a003ed4:	4669      	mov	r1, sp
1a003ed6:	4805      	ldr	r0, [pc, #20]	; (1a003eec <i2cHardwareRead+0x3c>)
1a003ed8:	f001 f847 	bl	1a004f6a <Chip_I2CM_XferBlocking>
1a003edc:	b118      	cbz	r0, 1a003ee6 <i2cHardwareRead+0x36>
      return FALSE;
   }

   return TRUE;
1a003ede:	2001      	movs	r0, #1
}
1a003ee0:	b005      	add	sp, #20
1a003ee2:	f85d fb04 	ldr.w	pc, [sp], #4
      return FALSE;
1a003ee6:	2000      	movs	r0, #0
1a003ee8:	e7fa      	b.n	1a003ee0 <i2cHardwareRead+0x30>
1a003eea:	bf00      	nop
1a003eec:	400a1000 	.word	0x400a1000

1a003ef0 <i2cHardwareWrite>:

   //TODO: ver i2cData.options si se puede poner la condicion opcional de stop

   I2CM_XFER_T i2cData;

   if( i2cNumber != I2C0 ) {
1a003ef0:	b108      	cbz	r0, 1a003ef6 <i2cHardwareWrite+0x6>
      return FALSE;
1a003ef2:	2000      	movs	r0, #0
   }

   *** END - TEST I2C Response *** */

   return TRUE;
}
1a003ef4:	4770      	bx	lr
{
1a003ef6:	b510      	push	{r4, lr}
1a003ef8:	b084      	sub	sp, #16
1a003efa:	4604      	mov	r4, r0
   i2cData.slaveAddr = i2cSlaveAddress;
1a003efc:	f88d 1000 	strb.w	r1, [sp]
   i2cData.options   = 0;
1a003f00:	2100      	movs	r1, #0
1a003f02:	f88d 1001 	strb.w	r1, [sp, #1]
   i2cData.status    = 0;
1a003f06:	f8ad 1002 	strh.w	r1, [sp, #2]
   i2cData.txBuff    = transmitDataBuffer;
1a003f0a:	9202      	str	r2, [sp, #8]
   i2cData.txSz      = transmitDataBufferSize;
1a003f0c:	f8ad 3004 	strh.w	r3, [sp, #4]
   i2cData.rxBuff    = 0;
1a003f10:	9103      	str	r1, [sp, #12]
   i2cData.rxSz      = 0;
1a003f12:	f8ad 1006 	strh.w	r1, [sp, #6]
   if( Chip_I2CM_XferBlocking( LPC_I2C0, &i2cData ) == 0 ) {
1a003f16:	4669      	mov	r1, sp
1a003f18:	4804      	ldr	r0, [pc, #16]	; (1a003f2c <i2cHardwareWrite+0x3c>)
1a003f1a:	f001 f826 	bl	1a004f6a <Chip_I2CM_XferBlocking>
1a003f1e:	b110      	cbz	r0, 1a003f26 <i2cHardwareWrite+0x36>
   return TRUE;
1a003f20:	2001      	movs	r0, #1
}
1a003f22:	b004      	add	sp, #16
1a003f24:	bd10      	pop	{r4, pc}
      return FALSE;
1a003f26:	4620      	mov	r0, r4
1a003f28:	e7fb      	b.n	1a003f22 <i2cHardwareWrite+0x32>
1a003f2a:	bf00      	nop
1a003f2c:	400a1000 	.word	0x400a1000

1a003f30 <i2cInit>:
bool_t i2cInit( i2cMap_t i2cNumber, uint32_t clockRateHz )
{

   bool_t retVal = FALSE;

   if( i2cNumber != I2C0 ) {
1a003f30:	b108      	cbz	r0, 1a003f36 <i2cInit+0x6>
      return FALSE;
1a003f32:	2000      	movs	r0, #0
#else
   retVal = i2cHardwareInit( i2cNumber, clockRateHz );
#endif

   return retVal;
}
1a003f34:	4770      	bx	lr
{
1a003f36:	b508      	push	{r3, lr}
   retVal = i2cHardwareInit( i2cNumber, clockRateHz );
1a003f38:	f7ff ffa2 	bl	1a003e80 <i2cHardwareInit>
}
1a003f3c:	bd08      	pop	{r3, pc}

1a003f3e <i2cRead>:
                bool_t   sendReadStop )
{

   bool_t retVal = FALSE;

   if( i2cNumber != I2C0 ) {
1a003f3e:	b108      	cbz	r0, 1a003f44 <i2cRead+0x6>
      return FALSE;
1a003f40:	2000      	movs	r0, #0
                             receiveDataBufferSize,
                             sendReadStop );
#endif

   return retVal;
}
1a003f42:	4770      	bx	lr
{
1a003f44:	b510      	push	{r4, lr}
1a003f46:	b084      	sub	sp, #16
1a003f48:	4604      	mov	r4, r0
   retVal = i2cHardwareRead( i2cNumber,
1a003f4a:	f89d 0024 	ldrb.w	r0, [sp, #36]	; 0x24
1a003f4e:	9003      	str	r0, [sp, #12]
1a003f50:	f8bd 0020 	ldrh.w	r0, [sp, #32]
1a003f54:	9002      	str	r0, [sp, #8]
1a003f56:	9807      	ldr	r0, [sp, #28]
1a003f58:	9001      	str	r0, [sp, #4]
1a003f5a:	f89d 0018 	ldrb.w	r0, [sp, #24]
1a003f5e:	9000      	str	r0, [sp, #0]
1a003f60:	4620      	mov	r0, r4
1a003f62:	f7ff ffa5 	bl	1a003eb0 <i2cHardwareRead>
}
1a003f66:	b004      	add	sp, #16
1a003f68:	bd10      	pop	{r4, pc}

1a003f6a <i2cWrite>:
                 bool_t   sendWriteStop )
{

   bool_t retVal = FALSE;

   if( i2cNumber != I2C0 ) {
1a003f6a:	b108      	cbz	r0, 1a003f70 <i2cWrite+0x6>
      return FALSE;
1a003f6c:	2000      	movs	r0, #0
                              transmitDataBufferSize,
                              sendWriteStop );
#endif

   return retVal;
}
1a003f6e:	4770      	bx	lr
{
1a003f70:	b510      	push	{r4, lr}
1a003f72:	b082      	sub	sp, #8
1a003f74:	4604      	mov	r4, r0
   retVal = i2cHardwareWrite( i2cNumber,
1a003f76:	f89d 0010 	ldrb.w	r0, [sp, #16]
1a003f7a:	9000      	str	r0, [sp, #0]
1a003f7c:	4620      	mov	r0, r4
1a003f7e:	f7ff ffb7 	bl	1a003ef0 <i2cHardwareWrite>
}
1a003f82:	b002      	add	sp, #8
1a003f84:	bd10      	pop	{r4, pc}

1a003f86 <errorOcurred>:
/* Causes:
 * User forgot to initialize the functions for the compare match interrupt on Timer_init call
 */
static void errorOcurred( void* ptr )
{
   while(1);
1a003f86:	e7fe      	b.n	1a003f86 <errorOcurred>

1a003f88 <doNothing>:
}

static void doNothing( void* ptr )
{
}
1a003f88:	4770      	bx	lr
1a003f8a:	Address 0x000000001a003f8a is out of bounds.


1a003f8c <TIMER0_IRQHandler>:
/*
 * @Brief:   Executes the functions passed by parameter in the Timer_init,
 *   at the chosen frequencies
 */
void TIMER0_IRQHandler(void)
{
1a003f8c:	b538      	push	{r3, r4, r5, lr}

   uint8_t compareMatchNumber = 0;

   for( compareMatchNumber = TIMERCOMPAREMATCH0;
1a003f8e:	2400      	movs	r4, #0
1a003f90:	e001      	b.n	1a003f96 <TIMER0_IRQHandler+0xa>
        compareMatchNumber <= TIMERCOMPAREMATCH3;
        compareMatchNumber++ ) {
1a003f92:	3401      	adds	r4, #1
1a003f94:	b2e4      	uxtb	r4, r4
   for( compareMatchNumber = TIMERCOMPAREMATCH0;
1a003f96:	2c03      	cmp	r4, #3
1a003f98:	d812      	bhi.n	1a003fc0 <TIMER0_IRQHandler+0x34>
      if( Chip_TIMER_MatchPending(LPC_TIMER0, compareMatchNumber) ) {
1a003f9a:	b265      	sxtb	r5, r4
	return (bool) ((pTMR->IR & TIMER_MATCH_INT(matchnum)) != 0);
1a003f9c:	4b09      	ldr	r3, [pc, #36]	; (1a003fc4 <TIMER0_IRQHandler+0x38>)
1a003f9e:	681a      	ldr	r2, [r3, #0]
1a003fa0:	f004 010f 	and.w	r1, r4, #15
1a003fa4:	2301      	movs	r3, #1
1a003fa6:	408b      	lsls	r3, r1
1a003fa8:	421a      	tst	r2, r3
1a003faa:	d0f2      	beq.n	1a003f92 <TIMER0_IRQHandler+0x6>
         /*Run the functions saved in the timer dynamic data structure*/
         (*timer_dd[TIMER0].timerCompareMatchFunctionPointer[compareMatchNumber])(0);
1a003fac:	4b06      	ldr	r3, [pc, #24]	; (1a003fc8 <TIMER0_IRQHandler+0x3c>)
1a003fae:	f853 3024 	ldr.w	r3, [r3, r4, lsl #2]
1a003fb2:	2000      	movs	r0, #0
1a003fb4:	4798      	blx	r3
	pTMR->IR = TIMER_IR_CLR(matchnum);
1a003fb6:	2301      	movs	r3, #1
1a003fb8:	40ab      	lsls	r3, r5
1a003fba:	4a02      	ldr	r2, [pc, #8]	; (1a003fc4 <TIMER0_IRQHandler+0x38>)
1a003fbc:	6013      	str	r3, [r2, #0]
}
1a003fbe:	e7e8      	b.n	1a003f92 <TIMER0_IRQHandler+0x6>
         Chip_TIMER_ClearMatch(LPC_TIMER0, compareMatchNumber);
      }
   }
}
1a003fc0:	bd38      	pop	{r3, r4, r5, pc}
1a003fc2:	bf00      	nop
1a003fc4:	40084000 	.word	0x40084000
1a003fc8:	10000050 	.word	0x10000050

1a003fcc <TIMER1_IRQHandler>:

void TIMER1_IRQHandler( void )
{
1a003fcc:	b538      	push	{r3, r4, r5, lr}

   uint8_t compareMatchNumber = 0;

   for( compareMatchNumber = TIMERCOMPAREMATCH0;
1a003fce:	2400      	movs	r4, #0
1a003fd0:	e001      	b.n	1a003fd6 <TIMER1_IRQHandler+0xa>
        compareMatchNumber <= TIMERCOMPAREMATCH3;
        compareMatchNumber++ ) {
1a003fd2:	3401      	adds	r4, #1
1a003fd4:	b2e4      	uxtb	r4, r4
   for( compareMatchNumber = TIMERCOMPAREMATCH0;
1a003fd6:	2c03      	cmp	r4, #3
1a003fd8:	d813      	bhi.n	1a004002 <TIMER1_IRQHandler+0x36>
      if( Chip_TIMER_MatchPending(LPC_TIMER1, compareMatchNumber) ) {
1a003fda:	b265      	sxtb	r5, r4
	return (bool) ((pTMR->IR & TIMER_MATCH_INT(matchnum)) != 0);
1a003fdc:	4b09      	ldr	r3, [pc, #36]	; (1a004004 <TIMER1_IRQHandler+0x38>)
1a003fde:	681a      	ldr	r2, [r3, #0]
1a003fe0:	f004 010f 	and.w	r1, r4, #15
1a003fe4:	2301      	movs	r3, #1
1a003fe6:	408b      	lsls	r3, r1
1a003fe8:	421a      	tst	r2, r3
1a003fea:	d0f2      	beq.n	1a003fd2 <TIMER1_IRQHandler+0x6>
         /*Run the functions saved in the timer dynamic data structure*/
         (*timer_dd[TIMER1].timerCompareMatchFunctionPointer[compareMatchNumber])(0);
1a003fec:	1d23      	adds	r3, r4, #4
1a003fee:	4a06      	ldr	r2, [pc, #24]	; (1a004008 <TIMER1_IRQHandler+0x3c>)
1a003ff0:	f852 3023 	ldr.w	r3, [r2, r3, lsl #2]
1a003ff4:	2000      	movs	r0, #0
1a003ff6:	4798      	blx	r3
	pTMR->IR = TIMER_IR_CLR(matchnum);
1a003ff8:	2301      	movs	r3, #1
1a003ffa:	40ab      	lsls	r3, r5
1a003ffc:	4a01      	ldr	r2, [pc, #4]	; (1a004004 <TIMER1_IRQHandler+0x38>)
1a003ffe:	6013      	str	r3, [r2, #0]
}
1a004000:	e7e7      	b.n	1a003fd2 <TIMER1_IRQHandler+0x6>
         Chip_TIMER_ClearMatch(LPC_TIMER1, compareMatchNumber);
      }
   }
}
1a004002:	bd38      	pop	{r3, r4, r5, pc}
1a004004:	40085000 	.word	0x40085000
1a004008:	10000050 	.word	0x10000050

1a00400c <TIMER2_IRQHandler>:

void TIMER2_IRQHandler( void )
{
1a00400c:	b538      	push	{r3, r4, r5, lr}
   uint8_t compareMatchNumber = 0;

   for( compareMatchNumber = TIMERCOMPAREMATCH0;
1a00400e:	2400      	movs	r4, #0
1a004010:	e001      	b.n	1a004016 <TIMER2_IRQHandler+0xa>
        compareMatchNumber <= TIMERCOMPAREMATCH3;
        compareMatchNumber++ ) {
1a004012:	3401      	adds	r4, #1
1a004014:	b2e4      	uxtb	r4, r4
   for( compareMatchNumber = TIMERCOMPAREMATCH0;
1a004016:	2c03      	cmp	r4, #3
1a004018:	d814      	bhi.n	1a004044 <TIMER2_IRQHandler+0x38>
      if( Chip_TIMER_MatchPending(LPC_TIMER2, compareMatchNumber) ) {
1a00401a:	b265      	sxtb	r5, r4
	return (bool) ((pTMR->IR & TIMER_MATCH_INT(matchnum)) != 0);
1a00401c:	4b0a      	ldr	r3, [pc, #40]	; (1a004048 <TIMER2_IRQHandler+0x3c>)
1a00401e:	681a      	ldr	r2, [r3, #0]
1a004020:	f004 010f 	and.w	r1, r4, #15
1a004024:	2301      	movs	r3, #1
1a004026:	408b      	lsls	r3, r1
1a004028:	421a      	tst	r2, r3
1a00402a:	d0f2      	beq.n	1a004012 <TIMER2_IRQHandler+0x6>
         /*Run the functions saved in the timer dynamic data structure*/
         (*timer_dd[TIMER2].timerCompareMatchFunctionPointer[compareMatchNumber])(0);
1a00402c:	f104 0308 	add.w	r3, r4, #8
1a004030:	4a06      	ldr	r2, [pc, #24]	; (1a00404c <TIMER2_IRQHandler+0x40>)
1a004032:	f852 3023 	ldr.w	r3, [r2, r3, lsl #2]
1a004036:	2000      	movs	r0, #0
1a004038:	4798      	blx	r3
	pTMR->IR = TIMER_IR_CLR(matchnum);
1a00403a:	2301      	movs	r3, #1
1a00403c:	40ab      	lsls	r3, r5
1a00403e:	4a02      	ldr	r2, [pc, #8]	; (1a004048 <TIMER2_IRQHandler+0x3c>)
1a004040:	6013      	str	r3, [r2, #0]
}
1a004042:	e7e6      	b.n	1a004012 <TIMER2_IRQHandler+0x6>
         Chip_TIMER_ClearMatch(LPC_TIMER2, compareMatchNumber);
      }
   }
}
1a004044:	bd38      	pop	{r3, r4, r5, pc}
1a004046:	bf00      	nop
1a004048:	400c3000 	.word	0x400c3000
1a00404c:	10000050 	.word	0x10000050

1a004050 <TIMER3_IRQHandler>:

/*fixme __attribute__ ((section(".after_vectors")))*/
void TIMER3_IRQHandler( void )
{
1a004050:	b538      	push	{r3, r4, r5, lr}

   uint8_t compareMatchNumber = 0;

   for( compareMatchNumber = TIMERCOMPAREMATCH0;
1a004052:	2400      	movs	r4, #0
1a004054:	e001      	b.n	1a00405a <TIMER3_IRQHandler+0xa>
        compareMatchNumber <= TIMERCOMPAREMATCH3;
        compareMatchNumber++ ) {
1a004056:	3401      	adds	r4, #1
1a004058:	b2e4      	uxtb	r4, r4
   for( compareMatchNumber = TIMERCOMPAREMATCH0;
1a00405a:	2c03      	cmp	r4, #3
1a00405c:	d814      	bhi.n	1a004088 <TIMER3_IRQHandler+0x38>
      if (Chip_TIMER_MatchPending(LPC_TIMER3, compareMatchNumber)) {
1a00405e:	b265      	sxtb	r5, r4
	return (bool) ((pTMR->IR & TIMER_MATCH_INT(matchnum)) != 0);
1a004060:	4b0a      	ldr	r3, [pc, #40]	; (1a00408c <TIMER3_IRQHandler+0x3c>)
1a004062:	681a      	ldr	r2, [r3, #0]
1a004064:	f004 010f 	and.w	r1, r4, #15
1a004068:	2301      	movs	r3, #1
1a00406a:	408b      	lsls	r3, r1
1a00406c:	421a      	tst	r2, r3
1a00406e:	d0f2      	beq.n	1a004056 <TIMER3_IRQHandler+0x6>
         /*Run the functions saved in the timer dynamic data structure*/
         (*timer_dd[TIMER3].timerCompareMatchFunctionPointer[compareMatchNumber])(0);
1a004070:	f104 030c 	add.w	r3, r4, #12
1a004074:	4a06      	ldr	r2, [pc, #24]	; (1a004090 <TIMER3_IRQHandler+0x40>)
1a004076:	f852 3023 	ldr.w	r3, [r2, r3, lsl #2]
1a00407a:	2000      	movs	r0, #0
1a00407c:	4798      	blx	r3
	pTMR->IR = TIMER_IR_CLR(matchnum);
1a00407e:	2301      	movs	r3, #1
1a004080:	40ab      	lsls	r3, r5
1a004082:	4a02      	ldr	r2, [pc, #8]	; (1a00408c <TIMER3_IRQHandler+0x3c>)
1a004084:	6013      	str	r3, [r2, #0]
}
1a004086:	e7e6      	b.n	1a004056 <TIMER3_IRQHandler+0x6>
         Chip_TIMER_ClearMatch(LPC_TIMER3, compareMatchNumber);
      }
   }
}
1a004088:	bd38      	pop	{r3, r4, r5, pc}
1a00408a:	bf00      	nop
1a00408c:	400c4000 	.word	0x400c4000
1a004090:	10000050 	.word	0x10000050

1a004094 <boardInit>:

/*==================[external functions definition]==========================*/

/* Set up and initialize board hardware */
void boardInit(void)
{
1a004094:	b508      	push	{r3, lr}
   // Read clock settings and update SystemCoreClock variable
   SystemCoreClockUpdate();
1a004096:	f000 fb51 	bl	1a00473c <SystemCoreClockUpdate>

   cyclesCounterInit( SystemCoreClock );
1a00409a:	4b3a      	ldr	r3, [pc, #232]	; (1a004184 <boardInit+0xf0>)
1a00409c:	6818      	ldr	r0, [r3, #0]
1a00409e:	f7ff fc01 	bl	1a0038a4 <cyclesCounterInit>

   // Inicializar el conteo de Ticks con resolucion de 1ms
   tickInit( 1 );
1a0040a2:	2001      	movs	r0, #1
1a0040a4:	2100      	movs	r1, #0
1a0040a6:	f7ff fd67 	bl	1a003b78 <tickInit>

   // Inicializar GPIOs
   gpioInit( 0, GPIO_ENABLE );
1a0040aa:	2105      	movs	r1, #5
1a0040ac:	2000      	movs	r0, #0
1a0040ae:	f7ff fc21 	bl	1a0038f4 <gpioInit>

   // Configuracion de pines de entrada para Teclas de la EDU-CIAA-NXP
   gpioInit( TEC1, GPIO_INPUT );
1a0040b2:	2100      	movs	r1, #0
1a0040b4:	2024      	movs	r0, #36	; 0x24
1a0040b6:	f7ff fc1d 	bl	1a0038f4 <gpioInit>
   gpioInit( TEC2, GPIO_INPUT );
1a0040ba:	2100      	movs	r1, #0
1a0040bc:	2025      	movs	r0, #37	; 0x25
1a0040be:	f7ff fc19 	bl	1a0038f4 <gpioInit>
   gpioInit( TEC3, GPIO_INPUT );
1a0040c2:	2100      	movs	r1, #0
1a0040c4:	2026      	movs	r0, #38	; 0x26
1a0040c6:	f7ff fc15 	bl	1a0038f4 <gpioInit>
   gpioInit( TEC4, GPIO_INPUT );
1a0040ca:	2100      	movs	r1, #0
1a0040cc:	2027      	movs	r0, #39	; 0x27
1a0040ce:	f7ff fc11 	bl	1a0038f4 <gpioInit>

   // Configuracion de pines de salida para Leds de la EDU-CIAA-NXP
   gpioInit( LEDR, GPIO_OUTPUT );
1a0040d2:	2101      	movs	r1, #1
1a0040d4:	2028      	movs	r0, #40	; 0x28
1a0040d6:	f7ff fc0d 	bl	1a0038f4 <gpioInit>
   gpioInit( LEDG, GPIO_OUTPUT );
1a0040da:	2101      	movs	r1, #1
1a0040dc:	2029      	movs	r0, #41	; 0x29
1a0040de:	f7ff fc09 	bl	1a0038f4 <gpioInit>
   gpioInit( LEDB, GPIO_OUTPUT );
1a0040e2:	2101      	movs	r1, #1
1a0040e4:	202a      	movs	r0, #42	; 0x2a
1a0040e6:	f7ff fc05 	bl	1a0038f4 <gpioInit>
   gpioInit( LED1, GPIO_OUTPUT );
1a0040ea:	2101      	movs	r1, #1
1a0040ec:	202b      	movs	r0, #43	; 0x2b
1a0040ee:	f7ff fc01 	bl	1a0038f4 <gpioInit>
   gpioInit( LED2, GPIO_OUTPUT );
1a0040f2:	2101      	movs	r1, #1
1a0040f4:	202c      	movs	r0, #44	; 0x2c
1a0040f6:	f7ff fbfd 	bl	1a0038f4 <gpioInit>
   gpioInit( LED3, GPIO_OUTPUT );
1a0040fa:	2101      	movs	r1, #1
1a0040fc:	202d      	movs	r0, #45	; 0x2d
1a0040fe:	f7ff fbf9 	bl	1a0038f4 <gpioInit>


   // Configuracion de pines de entrada de la CIAA-NXP
   gpioInit( DI0, GPIO_INPUT );
1a004102:	2100      	movs	r1, #0
1a004104:	202e      	movs	r0, #46	; 0x2e
1a004106:	f7ff fbf5 	bl	1a0038f4 <gpioInit>
   gpioInit( DI1, GPIO_INPUT );
1a00410a:	2100      	movs	r1, #0
1a00410c:	202f      	movs	r0, #47	; 0x2f
1a00410e:	f7ff fbf1 	bl	1a0038f4 <gpioInit>
   gpioInit( DI2, GPIO_INPUT );
1a004112:	2100      	movs	r1, #0
1a004114:	2030      	movs	r0, #48	; 0x30
1a004116:	f7ff fbed 	bl	1a0038f4 <gpioInit>
   gpioInit( DI3, GPIO_INPUT );
1a00411a:	2100      	movs	r1, #0
1a00411c:	2031      	movs	r0, #49	; 0x31
1a00411e:	f7ff fbe9 	bl	1a0038f4 <gpioInit>
   gpioInit( DI4, GPIO_INPUT );
1a004122:	2100      	movs	r1, #0
1a004124:	2032      	movs	r0, #50	; 0x32
1a004126:	f7ff fbe5 	bl	1a0038f4 <gpioInit>
   gpioInit( DI5, GPIO_INPUT );
1a00412a:	2100      	movs	r1, #0
1a00412c:	2033      	movs	r0, #51	; 0x33
1a00412e:	f7ff fbe1 	bl	1a0038f4 <gpioInit>
   gpioInit( DI6, GPIO_INPUT );
1a004132:	2100      	movs	r1, #0
1a004134:	2034      	movs	r0, #52	; 0x34
1a004136:	f7ff fbdd 	bl	1a0038f4 <gpioInit>
   gpioInit( DI7, GPIO_INPUT );
1a00413a:	2100      	movs	r1, #0
1a00413c:	2035      	movs	r0, #53	; 0x35
1a00413e:	f7ff fbd9 	bl	1a0038f4 <gpioInit>

   // Configuracion de pines de salida de la CIAA-NXP
   gpioInit( DO0, GPIO_OUTPUT );
1a004142:	2101      	movs	r1, #1
1a004144:	2036      	movs	r0, #54	; 0x36
1a004146:	f7ff fbd5 	bl	1a0038f4 <gpioInit>
   gpioInit( DO1, GPIO_OUTPUT );
1a00414a:	2101      	movs	r1, #1
1a00414c:	2037      	movs	r0, #55	; 0x37
1a00414e:	f7ff fbd1 	bl	1a0038f4 <gpioInit>
   gpioInit( DO2, GPIO_OUTPUT );
1a004152:	2101      	movs	r1, #1
1a004154:	2038      	movs	r0, #56	; 0x38
1a004156:	f7ff fbcd 	bl	1a0038f4 <gpioInit>
   gpioInit( DO3, GPIO_OUTPUT );
1a00415a:	2101      	movs	r1, #1
1a00415c:	2039      	movs	r0, #57	; 0x39
1a00415e:	f7ff fbc9 	bl	1a0038f4 <gpioInit>
   gpioInit( DO4, GPIO_OUTPUT );
1a004162:	2101      	movs	r1, #1
1a004164:	203a      	movs	r0, #58	; 0x3a
1a004166:	f7ff fbc5 	bl	1a0038f4 <gpioInit>
   gpioInit( DO5, GPIO_OUTPUT );
1a00416a:	2101      	movs	r1, #1
1a00416c:	203b      	movs	r0, #59	; 0x3b
1a00416e:	f7ff fbc1 	bl	1a0038f4 <gpioInit>
   gpioInit( DO6, GPIO_OUTPUT );
1a004172:	2101      	movs	r1, #1
1a004174:	203c      	movs	r0, #60	; 0x3c
1a004176:	f7ff fbbd 	bl	1a0038f4 <gpioInit>
   gpioInit( DO7, GPIO_OUTPUT );
1a00417a:	2101      	movs	r1, #1
1a00417c:	203d      	movs	r0, #61	; 0x3d
1a00417e:	f7ff fbb9 	bl	1a0038f4 <gpioInit>

}
1a004182:	bd08      	pop	{r3, pc}
1a004184:	10000c50 	.word	0x10000c50

1a004188 <Board_DOUT_Init>:

static void Board_DOUT_Init()
{
   uint32_t idx;

   for (idx = 0; idx < (sizeof(gpioDOUTBits) / sizeof(io_port_t)); ++idx) {
1a004188:	2200      	movs	r2, #0
1a00418a:	2a07      	cmp	r2, #7
1a00418c:	d819      	bhi.n	1a0041c2 <Board_DOUT_Init+0x3a>
{
1a00418e:	b470      	push	{r4, r5, r6}
       /* Set pin direction and init to off */
       Chip_GPIO_SetPinDIROutput(LPC_GPIO_PORT, gpioDOUTBits[idx].port, gpioDOUTBits[idx].pin);
1a004190:	490c      	ldr	r1, [pc, #48]	; (1a0041c4 <Board_DOUT_Init+0x3c>)
1a004192:	f811 5012 	ldrb.w	r5, [r1, r2, lsl #1]
1a004196:	eb01 0142 	add.w	r1, r1, r2, lsl #1
1a00419a:	784c      	ldrb	r4, [r1, #1]
1a00419c:	4b0a      	ldr	r3, [pc, #40]	; (1a0041c8 <Board_DOUT_Init+0x40>)
1a00419e:	f505 6600 	add.w	r6, r5, #2048	; 0x800
1a0041a2:	f853 1026 	ldr.w	r1, [r3, r6, lsl #2]
1a0041a6:	2001      	movs	r0, #1
1a0041a8:	40a0      	lsls	r0, r4
1a0041aa:	4301      	orrs	r1, r0
1a0041ac:	f843 1026 	str.w	r1, [r3, r6, lsl #2]
	pGPIO->B[port][pin] = setting;
1a0041b0:	eb03 1345 	add.w	r3, r3, r5, lsl #5
1a0041b4:	2100      	movs	r1, #0
1a0041b6:	5519      	strb	r1, [r3, r4]
   for (idx = 0; idx < (sizeof(gpioDOUTBits) / sizeof(io_port_t)); ++idx) {
1a0041b8:	3201      	adds	r2, #1
1a0041ba:	2a07      	cmp	r2, #7
1a0041bc:	d9e8      	bls.n	1a004190 <Board_DOUT_Init+0x8>
       Chip_GPIO_SetPinState(LPC_GPIO_PORT, gpioDOUTBits[idx].port, gpioDOUTBits[idx].pin, (bool) false);
   }
}
1a0041be:	bc70      	pop	{r4, r5, r6}
1a0041c0:	4770      	bx	lr
1a0041c2:	4770      	bx	lr
1a0041c4:	1a007580 	.word	0x1a007580
1a0041c8:	400f4000 	.word	0x400f4000

1a0041cc <Board_UART_Init>:
	LPC_SCU->SFSP[port][pin] = modefunc;
1a0041cc:	4b03      	ldr	r3, [pc, #12]	; (1a0041dc <Board_UART_Init+0x10>)
1a0041ce:	2212      	movs	r2, #18
1a0041d0:	f8c3 2310 	str.w	r2, [r3, #784]	; 0x310
1a0041d4:	22d1      	movs	r2, #209	; 0xd1
1a0041d6:	f8c3 2104 	str.w	r2, [r3, #260]	; 0x104
}
1a0041da:	4770      	bx	lr
1a0041dc:	40086000 	.word	0x40086000

1a0041e0 <Board_Debug_Init>:
{
1a0041e0:	b510      	push	{r4, lr}
   Board_UART_Init(DEBUG_UART);
1a0041e2:	4c08      	ldr	r4, [pc, #32]	; (1a004204 <Board_Debug_Init+0x24>)
1a0041e4:	4620      	mov	r0, r4
1a0041e6:	f7ff fff1 	bl	1a0041cc <Board_UART_Init>
   Chip_UART_Init(DEBUG_UART);
1a0041ea:	4620      	mov	r0, r4
1a0041ec:	f000 f9ee 	bl	1a0045cc <Chip_UART_Init>
   Chip_UART_SetBaudFDR(DEBUG_UART, 115200);
1a0041f0:	f44f 31e1 	mov.w	r1, #115200	; 0x1c200
1a0041f4:	4620      	mov	r0, r4
1a0041f6:	f000 fa33 	bl	1a004660 <Chip_UART_SetBaudFDR>
	pUART->LCR = config;
1a0041fa:	2303      	movs	r3, #3
1a0041fc:	60e3      	str	r3, [r4, #12]
    pUART->TER2 = UART_TER2_TXEN;
1a0041fe:	2301      	movs	r3, #1
1a004200:	65e3      	str	r3, [r4, #92]	; 0x5c
}
1a004202:	bd10      	pop	{r4, pc}
1a004204:	400c1000 	.word	0x400c1000

1a004208 <Board_UARTPutChar>:
	return pUART->LSR;
1a004208:	4b03      	ldr	r3, [pc, #12]	; (1a004218 <Board_UARTPutChar+0x10>)
1a00420a:	695b      	ldr	r3, [r3, #20]
   while ((Chip_UART_ReadLineStatus(DEBUG_UART) & UART_LSR_THRE) == 0) {}
1a00420c:	f013 0f20 	tst.w	r3, #32
1a004210:	d0fa      	beq.n	1a004208 <Board_UARTPutChar>
	pUART->THR = (uint32_t) data;
1a004212:	4b01      	ldr	r3, [pc, #4]	; (1a004218 <Board_UARTPutChar+0x10>)
1a004214:	6018      	str	r0, [r3, #0]
}
1a004216:	4770      	bx	lr
1a004218:	400c1000 	.word	0x400c1000

1a00421c <Board_UARTPutSTR>:
{
1a00421c:	b510      	push	{r4, lr}
1a00421e:	4604      	mov	r4, r0
   while (*str != '\0') {
1a004220:	7820      	ldrb	r0, [r4, #0]
1a004222:	b118      	cbz	r0, 1a00422c <Board_UARTPutSTR+0x10>
       Board_UARTPutChar(*str++);
1a004224:	3401      	adds	r4, #1
1a004226:	f7ff ffef 	bl	1a004208 <Board_UARTPutChar>
1a00422a:	e7f9      	b.n	1a004220 <Board_UARTPutSTR+0x4>
}
1a00422c:	bd10      	pop	{r4, pc}
1a00422e:	Address 0x000000001a00422e is out of bounds.


1a004230 <Board_Init>:
}

/* Set up and initialize all required blocks and functions related to the
   board hardware */
void Board_Init(void)
{
1a004230:	b508      	push	{r3, lr}
   /* Sets up DEBUG UART */
   DEBUGINIT();
1a004232:	f7ff ffd5 	bl	1a0041e0 <Board_Debug_Init>

   /* Initializes GPIO */
   Chip_GPIO_Init(LPC_GPIO_PORT);
1a004236:	4806      	ldr	r0, [pc, #24]	; (1a004250 <Board_Init+0x20>)
1a004238:	f000 feeb 	bl	1a005012 <Chip_GPIO_Init>

   /* Initialize DOUTs */
   Board_DOUT_Init();
1a00423c:	f7ff ffa4 	bl	1a004188 <Board_DOUT_Init>
 * RMII PHY, and must be called before calling any Ethernet
 * functions.
 */
STATIC INLINE void Chip_ENET_RMIIEnable(LPC_ENET_T *pENET)
{
	LPC_CREG->CREG6 |= 0x4;
1a004240:	4a04      	ldr	r2, [pc, #16]	; (1a004254 <Board_Init+0x24>)
1a004242:	f8d2 312c 	ldr.w	r3, [r2, #300]	; 0x12c
1a004246:	f043 0304 	orr.w	r3, r3, #4
1a00424a:	f8c2 312c 	str.w	r3, [r2, #300]	; 0x12c
   Chip_ENET_RMIIEnable(LPC_ETHERNET);
}
1a00424e:	bd08      	pop	{r3, pc}
1a004250:	400f4000 	.word	0x400f4000
1a004254:	40043000 	.word	0x40043000

1a004258 <_sbrk_r>:

void *_sbrk_r(struct _reent *r, ptrdiff_t incr) {
   extern int _pvHeapStart;
   static void *heap_end;
   void *prev_heap_end;
   if (heap_end == 0) {
1a004258:	4b05      	ldr	r3, [pc, #20]	; (1a004270 <_sbrk_r+0x18>)
1a00425a:	681b      	ldr	r3, [r3, #0]
1a00425c:	b123      	cbz	r3, 1a004268 <_sbrk_r+0x10>
       heap_end = &_pvHeapStart;
   }
   prev_heap_end = heap_end;
1a00425e:	4b04      	ldr	r3, [pc, #16]	; (1a004270 <_sbrk_r+0x18>)
1a004260:	6818      	ldr	r0, [r3, #0]
   heap_end += incr;
1a004262:	4401      	add	r1, r0
1a004264:	6019      	str	r1, [r3, #0]
   return prev_heap_end;
}
1a004266:	4770      	bx	lr
       heap_end = &_pvHeapStart;
1a004268:	4b01      	ldr	r3, [pc, #4]	; (1a004270 <_sbrk_r+0x18>)
1a00426a:	4a02      	ldr	r2, [pc, #8]	; (1a004274 <_sbrk_r+0x1c>)
1a00426c:	601a      	str	r2, [r3, #0]
1a00426e:	e7f6      	b.n	1a00425e <_sbrk_r+0x6>
1a004270:	100005e4 	.word	0x100005e4
1a004274:	10000c60 	.word	0x10000c60

1a004278 <SystemInit>:
 * Public functions
 ****************************************************************************/

/* Set up and initialize hardware prior to call to main */
void SystemInit(void)
{
1a004278:	b508      	push	{r3, lr}
   unsigned int *pSCB_VTOR = (unsigned int *) 0xE000ED08;

   extern void *g_pfnVectors;

   *pSCB_VTOR = (unsigned int) &g_pfnVectors;
1a00427a:	4a04      	ldr	r2, [pc, #16]	; (1a00428c <SystemInit+0x14>)
1a00427c:	4b04      	ldr	r3, [pc, #16]	; (1a004290 <SystemInit+0x18>)
1a00427e:	601a      	str	r2, [r3, #0]

#if defined(__FPU_PRESENT) && __FPU_PRESENT == 1
   fpuInit();
1a004280:	f000 fe86 	bl	1a004f90 <fpuInit>
#endif

   /* Board specific SystemInit */
   Board_SystemInit();
1a004284:	f000 f858 	bl	1a004338 <Board_SystemInit>
}
1a004288:	bd08      	pop	{r3, pc}
1a00428a:	bf00      	nop
1a00428c:	1a000000 	.word	0x1a000000
1a004290:	e000ed08 	.word	0xe000ed08

1a004294 <Board_SetupMuxing>:
 * @return	Nothing
 */
STATIC INLINE void Chip_SCU_SetPinMuxing(const PINMUX_GRP_T *pinArray, uint32_t arrayLength)
{
	uint32_t ix;
	for (ix = 0; ix < arrayLength; ix++ ) {
1a004294:	2300      	movs	r3, #0
1a004296:	2b25      	cmp	r3, #37	; 0x25
1a004298:	d812      	bhi.n	1a0042c0 <Board_SetupMuxing+0x2c>
    {0,  1, (SCU_MODE_HIGHSPEEDSLEW_EN | SCU_MODE_INACT | SCU_MODE_ZIF_DIS | SCU_MODE_FUNC6)}, /* TXEN */
};


void Board_SetupMuxing(void)
{
1a00429a:	b410      	push	{r4}
		Chip_SCU_PinMuxSet(pinArray[ix].pingrp, pinArray[ix].pinnum, pinArray[ix].modefunc);
1a00429c:	4a09      	ldr	r2, [pc, #36]	; (1a0042c4 <Board_SetupMuxing+0x30>)
1a00429e:	eb02 0183 	add.w	r1, r2, r3, lsl #2
1a0042a2:	f812 4023 	ldrb.w	r4, [r2, r3, lsl #2]
1a0042a6:	784a      	ldrb	r2, [r1, #1]
1a0042a8:	8848      	ldrh	r0, [r1, #2]
	LPC_SCU->SFSP[port][pin] = modefunc;
1a0042aa:	eb02 1244 	add.w	r2, r2, r4, lsl #5
1a0042ae:	4906      	ldr	r1, [pc, #24]	; (1a0042c8 <Board_SetupMuxing+0x34>)
1a0042b0:	f841 0022 	str.w	r0, [r1, r2, lsl #2]
	for (ix = 0; ix < arrayLength; ix++ ) {
1a0042b4:	3301      	adds	r3, #1
1a0042b6:	2b25      	cmp	r3, #37	; 0x25
1a0042b8:	d9f0      	bls.n	1a00429c <Board_SetupMuxing+0x8>
    Chip_SCU_SetPinMuxing(pinmuxing, sizeof(pinmuxing) / sizeof(PINMUX_GRP_T));
}
1a0042ba:	f85d 4b04 	ldr.w	r4, [sp], #4
1a0042be:	4770      	bx	lr
1a0042c0:	4770      	bx	lr
1a0042c2:	bf00      	nop
1a0042c4:	1a00759c 	.word	0x1a00759c
1a0042c8:	40086000 	.word	0x40086000

1a0042cc <Board_SetupClocking>:


void Board_SetupClocking(void)
{
1a0042cc:	b510      	push	{r4, lr}
 */
STATIC INLINE void Chip_CREG_SetFlashAcceleration(uint32_t Hz)
{
	uint32_t FAValue = Hz / 21510000;

	LPC_CREG->FLASHCFGA = (LPC_CREG->FLASHCFGA & (~(0xF << 12))) | (FAValue << 12);
1a0042ce:	4a17      	ldr	r2, [pc, #92]	; (1a00432c <Board_SetupClocking+0x60>)
1a0042d0:	f8d2 3120 	ldr.w	r3, [r2, #288]	; 0x120
1a0042d4:	f423 4370 	bic.w	r3, r3, #61440	; 0xf000
1a0042d8:	f443 4310 	orr.w	r3, r3, #36864	; 0x9000
1a0042dc:	f8c2 3120 	str.w	r3, [r2, #288]	; 0x120
	LPC_CREG->FLASHCFGB = (LPC_CREG->FLASHCFGB & (~(0xF << 12))) | (FAValue << 12);
1a0042e0:	f8d2 3124 	ldr.w	r3, [r2, #292]	; 0x124
1a0042e4:	f423 4370 	bic.w	r3, r3, #61440	; 0xf000
1a0042e8:	f443 4310 	orr.w	r3, r3, #36864	; 0x9000
1a0042ec:	f8c2 3124 	str.w	r3, [r2, #292]	; 0x124
    Chip_CREG_SetFlashAcceleration(MAX_CLOCK_FREQ);
    Chip_SetupCoreClock(CLKIN_CRYSTAL, MAX_CLOCK_FREQ, true);
1a0042f0:	2201      	movs	r2, #1
1a0042f2:	490f      	ldr	r1, [pc, #60]	; (1a004330 <Board_SetupClocking+0x64>)
1a0042f4:	2006      	movs	r0, #6
1a0042f6:	f000 fced 	bl	1a004cd4 <Chip_SetupCoreClock>

    /* Setup system base clocks and initial states. This won't enable and
       disable individual clocks, but sets up the base clock sources for
       each individual peripheral clock. */
    for (uint32_t i = 0; i < (sizeof(InitClkStates) / sizeof(InitClkStates[0])); ++i)
1a0042fa:	2400      	movs	r4, #0
1a0042fc:	e00a      	b.n	1a004314 <Board_SetupClocking+0x48>
    {
        const struct CLK_BASE_STATES *c = &InitClkStates[i];
        Chip_Clock_SetBaseClock (c->clk, c->clkin, c->autoblock_enab,
1a0042fe:	480d      	ldr	r0, [pc, #52]	; (1a004334 <Board_SetupClocking+0x68>)
1a004300:	eb00 0184 	add.w	r1, r0, r4, lsl #2
1a004304:	78cb      	ldrb	r3, [r1, #3]
1a004306:	788a      	ldrb	r2, [r1, #2]
1a004308:	7849      	ldrb	r1, [r1, #1]
1a00430a:	f810 0024 	ldrb.w	r0, [r0, r4, lsl #2]
1a00430e:	f000 fc3d 	bl	1a004b8c <Chip_Clock_SetBaseClock>
    for (uint32_t i = 0; i < (sizeof(InitClkStates) / sizeof(InitClkStates[0])); ++i)
1a004312:	3401      	adds	r4, #1
1a004314:	2c02      	cmp	r4, #2
1a004316:	d9f2      	bls.n	1a0042fe <Board_SetupClocking+0x32>
                                c->powerdn);
    }

    /* Reset and enable 32Khz oscillator */
    LPC_CREG->CREG0 &= ~((1 << 3) | (1 << 2));
1a004318:	4b04      	ldr	r3, [pc, #16]	; (1a00432c <Board_SetupClocking+0x60>)
1a00431a:	685a      	ldr	r2, [r3, #4]
1a00431c:	f022 020c 	bic.w	r2, r2, #12
1a004320:	605a      	str	r2, [r3, #4]
    LPC_CREG->CREG0 |= (1 << 1) | (1 << 0);
1a004322:	685a      	ldr	r2, [r3, #4]
1a004324:	f042 0203 	orr.w	r2, r2, #3
1a004328:	605a      	str	r2, [r3, #4]
}
1a00432a:	bd10      	pop	{r4, pc}
1a00432c:	40043000 	.word	0x40043000
1a004330:	0c28cb00 	.word	0x0c28cb00
1a004334:	1a007590 	.word	0x1a007590

1a004338 <Board_SystemInit>:


/* Set up and initialize hardware prior to call to main */
void Board_SystemInit(void)
{
1a004338:	b508      	push	{r3, lr}
    /* Setup system clocking and memory. This is done early to allow the
       application and tools to clear memory and use scatter loading to
       external memory. */
    Board_SetupMuxing();
1a00433a:	f7ff ffab 	bl	1a004294 <Board_SetupMuxing>
    Board_SetupClocking();
1a00433e:	f7ff ffc5 	bl	1a0042cc <Board_SetupClocking>
}
1a004342:	bd08      	pop	{r3, pc}

1a004344 <Chip_I2C_EventHandler>:
{
	struct i2c_interface *iic = &i2c[id];
	volatile I2C_STATUS_T *stat;

	/* Only WAIT event needs to be handled */
	if (event != I2C_EVENT_WAIT) {
1a004344:	2901      	cmp	r1, #1
1a004346:	d109      	bne.n	1a00435c <Chip_I2C_EventHandler+0x18>
		return;
	}

	stat = &iic->mXfer->status;
1a004348:	ebc0 00c0 	rsb	r0, r0, r0, lsl #3
1a00434c:	4b04      	ldr	r3, [pc, #16]	; (1a004360 <Chip_I2C_EventHandler+0x1c>)
1a00434e:	eb03 0080 	add.w	r0, r3, r0, lsl #2
1a004352:	6902      	ldr	r2, [r0, #16]
	/* Wait for the status to change */
	while (*stat == I2C_STATUS_BUSY) {}
1a004354:	7d13      	ldrb	r3, [r2, #20]
1a004356:	b2db      	uxtb	r3, r3
1a004358:	2b04      	cmp	r3, #4
1a00435a:	d0fb      	beq.n	1a004354 <Chip_I2C_EventHandler+0x10>
}
1a00435c:	4770      	bx	lr
1a00435e:	bf00      	nop
1a004360:	10000090 	.word	0x10000090

1a004364 <handleMasterXferState>:
{
1a004364:	b430      	push	{r4, r5}
	return (int) (pI2C->STAT & I2C_STAT_CODE_BITMASK);
1a004366:	6843      	ldr	r3, [r0, #4]
1a004368:	f003 03f8 	and.w	r3, r3, #248	; 0xf8
1a00436c:	2b58      	cmp	r3, #88	; 0x58
1a00436e:	d871      	bhi.n	1a004454 <handleMasterXferState+0xf0>
1a004370:	e8df f003 	tbb	[pc, r3]
1a004374:	7070706c 	.word	0x7070706c
1a004378:	70707070 	.word	0x70707070
1a00437c:	7070702f 	.word	0x7070702f
1a004380:	70707070 	.word	0x70707070
1a004384:	7070702f 	.word	0x7070702f
1a004388:	70707070 	.word	0x70707070
1a00438c:	70707039 	.word	0x70707039
1a004390:	70707070 	.word	0x70707070
1a004394:	70707060 	.word	0x70707060
1a004398:	70707070 	.word	0x70707070
1a00439c:	70707039 	.word	0x70707039
1a0043a0:	70707070 	.word	0x70707070
1a0043a4:	70707064 	.word	0x70707064
1a0043a8:	70707070 	.word	0x70707070
1a0043ac:	70707068 	.word	0x70707068
1a0043b0:	70707070 	.word	0x70707070
1a0043b4:	7070705e 	.word	0x7070705e
1a0043b8:	70707070 	.word	0x70707070
1a0043bc:	70707060 	.word	0x70707060
1a0043c0:	70707070 	.word	0x70707070
1a0043c4:	7070702d 	.word	0x7070702d
1a0043c8:	70707070 	.word	0x70707070
1a0043cc:	4f          	.byte	0x4f
1a0043cd:	00          	.byte	0x00
1a0043ce:	233c      	movs	r3, #60	; 0x3c
1a0043d0:	e020      	b.n	1a004414 <handleMasterXferState+0xb0>
		pI2C->DAT = (xfer->slaveAddr << 1) | (xfer->txSz == 0);
1a0043d2:	780a      	ldrb	r2, [r1, #0]
1a0043d4:	688b      	ldr	r3, [r1, #8]
1a0043d6:	fab3 f383 	clz	r3, r3
1a0043da:	095b      	lsrs	r3, r3, #5
1a0043dc:	ea43 0342 	orr.w	r3, r3, r2, lsl #1
1a0043e0:	6083      	str	r3, [r0, #8]
	uint32_t cclr = I2C_CON_FLAGS;
1a0043e2:	233c      	movs	r3, #60	; 0x3c
		break;
1a0043e4:	e037      	b.n	1a004456 <handleMasterXferState+0xf2>
		if (!xfer->txSz) {
1a0043e6:	688b      	ldr	r3, [r1, #8]
1a0043e8:	b94b      	cbnz	r3, 1a0043fe <handleMasterXferState+0x9a>
			cclr &= ~(xfer->rxSz ? I2C_CON_STA : I2C_CON_STO);
1a0043ea:	690b      	ldr	r3, [r1, #16]
1a0043ec:	b123      	cbz	r3, 1a0043f8 <handleMasterXferState+0x94>
1a0043ee:	f06f 0320 	mvn.w	r3, #32
1a0043f2:	f003 033c 	and.w	r3, r3, #60	; 0x3c
1a0043f6:	e02e      	b.n	1a004456 <handleMasterXferState+0xf2>
1a0043f8:	f06f 0310 	mvn.w	r3, #16
1a0043fc:	e7f9      	b.n	1a0043f2 <handleMasterXferState+0x8e>
			pI2C->DAT = *xfer->txBuff++;
1a0043fe:	684b      	ldr	r3, [r1, #4]
1a004400:	1c5a      	adds	r2, r3, #1
1a004402:	604a      	str	r2, [r1, #4]
1a004404:	781b      	ldrb	r3, [r3, #0]
1a004406:	6083      	str	r3, [r0, #8]
			xfer->txSz--;
1a004408:	688b      	ldr	r3, [r1, #8]
1a00440a:	3b01      	subs	r3, #1
1a00440c:	608b      	str	r3, [r1, #8]
	uint32_t cclr = I2C_CON_FLAGS;
1a00440e:	233c      	movs	r3, #60	; 0x3c
1a004410:	e021      	b.n	1a004456 <handleMasterXferState+0xf2>
		cclr &= ~I2C_CON_STO;
1a004412:	232c      	movs	r3, #44	; 0x2c
		*xfer->rxBuff++ = pI2C->DAT;
1a004414:	6884      	ldr	r4, [r0, #8]
1a004416:	68ca      	ldr	r2, [r1, #12]
1a004418:	1c55      	adds	r5, r2, #1
1a00441a:	60cd      	str	r5, [r1, #12]
1a00441c:	7014      	strb	r4, [r2, #0]
		xfer->rxSz--;
1a00441e:	690a      	ldr	r2, [r1, #16]
1a004420:	3a01      	subs	r2, #1
1a004422:	610a      	str	r2, [r1, #16]
		if (xfer->rxSz > 1) {
1a004424:	690a      	ldr	r2, [r1, #16]
1a004426:	2a01      	cmp	r2, #1
1a004428:	dd15      	ble.n	1a004456 <handleMasterXferState+0xf2>
			cclr &= ~I2C_CON_AA;
1a00442a:	f023 0304 	bic.w	r3, r3, #4
1a00442e:	e012      	b.n	1a004456 <handleMasterXferState+0xf2>
	return (int) (pI2C->STAT & I2C_STAT_CODE_BITMASK);
1a004430:	233c      	movs	r3, #60	; 0x3c
1a004432:	e7f7      	b.n	1a004424 <handleMasterXferState+0xc0>
		xfer->status = I2C_STATUS_SLAVENAK;
1a004434:	2305      	movs	r3, #5
1a004436:	750b      	strb	r3, [r1, #20]
		cclr &= ~I2C_CON_STO;
1a004438:	232c      	movs	r3, #44	; 0x2c
		break;
1a00443a:	e00c      	b.n	1a004456 <handleMasterXferState+0xf2>
		xfer->status = I2C_STATUS_NAK;
1a00443c:	2301      	movs	r3, #1
1a00443e:	750b      	strb	r3, [r1, #20]
		cclr &= ~I2C_CON_STO;
1a004440:	232c      	movs	r3, #44	; 0x2c
		break;
1a004442:	e008      	b.n	1a004456 <handleMasterXferState+0xf2>
		xfer->status = I2C_STATUS_ARBLOST;
1a004444:	2302      	movs	r3, #2
1a004446:	750b      	strb	r3, [r1, #20]
	uint32_t cclr = I2C_CON_FLAGS;
1a004448:	233c      	movs	r3, #60	; 0x3c
		break;
1a00444a:	e004      	b.n	1a004456 <handleMasterXferState+0xf2>
		xfer->status = I2C_STATUS_BUSERR;
1a00444c:	2303      	movs	r3, #3
1a00444e:	750b      	strb	r3, [r1, #20]
		cclr &= ~I2C_CON_STO;
1a004450:	232c      	movs	r3, #44	; 0x2c
1a004452:	e000      	b.n	1a004456 <handleMasterXferState+0xf2>
	return (int) (pI2C->STAT & I2C_STAT_CODE_BITMASK);
1a004454:	233c      	movs	r3, #60	; 0x3c
	pI2C->CONSET = cclr ^ I2C_CON_FLAGS;
1a004456:	f083 023c 	eor.w	r2, r3, #60	; 0x3c
1a00445a:	6002      	str	r2, [r0, #0]
	pI2C->CONCLR = cclr & ~I2C_CON_STO;
1a00445c:	f023 0210 	bic.w	r2, r3, #16
1a004460:	6182      	str	r2, [r0, #24]
	if (!(cclr & I2C_CON_STO) || (xfer->status == I2C_STATUS_ARBLOST)) {
1a004462:	f013 0f10 	tst.w	r3, #16
1a004466:	d005      	beq.n	1a004474 <handleMasterXferState+0x110>
1a004468:	7d0b      	ldrb	r3, [r1, #20]
1a00446a:	2b02      	cmp	r3, #2
1a00446c:	d002      	beq.n	1a004474 <handleMasterXferState+0x110>
	return 1;
1a00446e:	2001      	movs	r0, #1
}
1a004470:	bc30      	pop	{r4, r5}
1a004472:	4770      	bx	lr
		if (xfer->status == I2C_STATUS_BUSY) {
1a004474:	7d0b      	ldrb	r3, [r1, #20]
1a004476:	2b04      	cmp	r3, #4
1a004478:	d001      	beq.n	1a00447e <handleMasterXferState+0x11a>
		return 0;
1a00447a:	2000      	movs	r0, #0
1a00447c:	e7f8      	b.n	1a004470 <handleMasterXferState+0x10c>
			xfer->status = I2C_STATUS_DONE;
1a00447e:	2300      	movs	r3, #0
1a004480:	750b      	strb	r3, [r1, #20]
1a004482:	e7fa      	b.n	1a00447a <handleMasterXferState+0x116>

1a004484 <Chip_I2C_Init>:
	}
}

/* Initializes the LPC_I2C peripheral with specified parameter */
void Chip_I2C_Init(I2C_ID_T id)
{
1a004484:	b570      	push	{r4, r5, r6, lr}
1a004486:	4604      	mov	r4, r0
	Chip_Clock_Enable(i2c[id].clk);
1a004488:	4e07      	ldr	r6, [pc, #28]	; (1a0044a8 <Chip_I2C_Init+0x24>)
1a00448a:	00c5      	lsls	r5, r0, #3
1a00448c:	ebc0 03c0 	rsb	r3, r0, r0, lsl #3
1a004490:	eb06 0383 	add.w	r3, r6, r3, lsl #2
1a004494:	8898      	ldrh	r0, [r3, #4]
1a004496:	f000 fbdd 	bl	1a004c54 <Chip_Clock_Enable>
	enableClk(id);

	/* Set I2C operation to default */
	LPC_I2Cx(id)->CONCLR = (I2C_CON_AA | I2C_CON_SI | I2C_CON_STA | I2C_CON_I2EN);
1a00449a:	1b2c      	subs	r4, r5, r4
1a00449c:	f856 3024 	ldr.w	r3, [r6, r4, lsl #2]
1a0044a0:	226c      	movs	r2, #108	; 0x6c
1a0044a2:	619a      	str	r2, [r3, #24]
}
1a0044a4:	bd70      	pop	{r4, r5, r6, pc}
1a0044a6:	bf00      	nop
1a0044a8:	10000090 	.word	0x10000090

1a0044ac <Chip_I2C_SetClockRate>:
	disableClk(id);
}

/* Set up clock rate for LPC_I2C peripheral */
void Chip_I2C_SetClockRate(I2C_ID_T id, uint32_t clockrate)
{
1a0044ac:	e92d 41f0 	stmdb	sp!, {r4, r5, r6, r7, r8, lr}
1a0044b0:	4604      	mov	r4, r0
1a0044b2:	4688      	mov	r8, r1
	return Chip_Clock_GetRate(i2c[id].clk);
1a0044b4:	4d0b      	ldr	r5, [pc, #44]	; (1a0044e4 <Chip_I2C_SetClockRate+0x38>)
1a0044b6:	00c6      	lsls	r6, r0, #3
1a0044b8:	ebc0 03c0 	rsb	r3, r0, r0, lsl #3
1a0044bc:	009f      	lsls	r7, r3, #2
1a0044be:	eb05 0383 	add.w	r3, r5, r3, lsl #2
1a0044c2:	8898      	ldrh	r0, [r3, #4]
1a0044c4:	f000 fbe0 	bl	1a004c88 <Chip_Clock_GetRate>
	uint32_t SCLValue;

	SCLValue = (getClkRate(id) / clockrate);
1a0044c8:	fbb0 f1f8 	udiv	r1, r0, r8
	LPC_I2Cx(id)->SCLH = (uint32_t) (SCLValue >> 1);
1a0044cc:	59eb      	ldr	r3, [r5, r7]
1a0044ce:	084a      	lsrs	r2, r1, #1
1a0044d0:	611a      	str	r2, [r3, #16]
	LPC_I2Cx(id)->SCLL = (uint32_t) (SCLValue - LPC_I2Cx(id)->SCLH);
1a0044d2:	1b34      	subs	r4, r6, r4
1a0044d4:	f855 3024 	ldr.w	r3, [r5, r4, lsl #2]
1a0044d8:	6918      	ldr	r0, [r3, #16]
1a0044da:	1a09      	subs	r1, r1, r0
1a0044dc:	6159      	str	r1, [r3, #20]
}
1a0044de:	e8bd 81f0 	ldmia.w	sp!, {r4, r5, r6, r7, r8, pc}
1a0044e2:	bf00      	nop
1a0044e4:	10000090 	.word	0x10000090

1a0044e8 <Chip_I2C_SetMasterEventHandler>:

/* Set the master event handler */
int Chip_I2C_SetMasterEventHandler(I2C_ID_T id, I2C_EVENTHANDLER_T event)
{
	struct i2c_interface *iic = &i2c[id];
	if (!iic->mXfer) {
1a0044e8:	ebc0 02c0 	rsb	r2, r0, r0, lsl #3
1a0044ec:	4b0a      	ldr	r3, [pc, #40]	; (1a004518 <Chip_I2C_SetMasterEventHandler+0x30>)
1a0044ee:	eb03 0382 	add.w	r3, r3, r2, lsl #2
1a0044f2:	691b      	ldr	r3, [r3, #16]
1a0044f4:	b153      	cbz	r3, 1a00450c <Chip_I2C_SetMasterEventHandler+0x24>
		iic->mEvent = event;
	}
	return iic->mEvent == event;
1a0044f6:	ebc0 00c0 	rsb	r0, r0, r0, lsl #3
1a0044fa:	4b07      	ldr	r3, [pc, #28]	; (1a004518 <Chip_I2C_SetMasterEventHandler+0x30>)
1a0044fc:	eb03 0080 	add.w	r0, r3, r0, lsl #2
1a004500:	6880      	ldr	r0, [r0, #8]
}
1a004502:	4288      	cmp	r0, r1
1a004504:	bf14      	ite	ne
1a004506:	2000      	movne	r0, #0
1a004508:	2001      	moveq	r0, #1
1a00450a:	4770      	bx	lr
		iic->mEvent = event;
1a00450c:	4613      	mov	r3, r2
1a00450e:	4a02      	ldr	r2, [pc, #8]	; (1a004518 <Chip_I2C_SetMasterEventHandler+0x30>)
1a004510:	eb02 0383 	add.w	r3, r2, r3, lsl #2
1a004514:	6099      	str	r1, [r3, #8]
1a004516:	e7ee      	b.n	1a0044f6 <Chip_I2C_SetMasterEventHandler+0xe>
1a004518:	10000090 	.word	0x10000090

1a00451c <Chip_I2C_MasterStateHandler>:
	return isMasterState(i2c[id].ip);
}

/* State change handler for master transfer */
void Chip_I2C_MasterStateHandler(I2C_ID_T id)
{
1a00451c:	b510      	push	{r4, lr}
1a00451e:	4604      	mov	r4, r0
	if (!handleMasterXferState(i2c[id].ip, i2c[id].mXfer)) {
1a004520:	4b0a      	ldr	r3, [pc, #40]	; (1a00454c <Chip_I2C_MasterStateHandler+0x30>)
1a004522:	ebc0 02c0 	rsb	r2, r0, r0, lsl #3
1a004526:	eb03 0182 	add.w	r1, r3, r2, lsl #2
1a00452a:	6909      	ldr	r1, [r1, #16]
1a00452c:	f853 0022 	ldr.w	r0, [r3, r2, lsl #2]
1a004530:	f7ff ff18 	bl	1a004364 <handleMasterXferState>
1a004534:	b940      	cbnz	r0, 1a004548 <Chip_I2C_MasterStateHandler+0x2c>
		i2c[id].mEvent(id, I2C_EVENT_DONE);
1a004536:	ebc4 02c4 	rsb	r2, r4, r4, lsl #3
1a00453a:	4b04      	ldr	r3, [pc, #16]	; (1a00454c <Chip_I2C_MasterStateHandler+0x30>)
1a00453c:	eb03 0382 	add.w	r3, r3, r2, lsl #2
1a004540:	689b      	ldr	r3, [r3, #8]
1a004542:	2102      	movs	r1, #2
1a004544:	4620      	mov	r0, r4
1a004546:	4798      	blx	r3
	}
}
1a004548:	bd10      	pop	{r4, pc}
1a00454a:	bf00      	nop
1a00454c:	10000090 	.word	0x10000090

1a004550 <Chip_I2C_IsStateChanged>:
}

/* State change checking */
int Chip_I2C_IsStateChanged(I2C_ID_T id)
{
	return (LPC_I2Cx(id)->CONSET & I2C_CON_SI) != 0;
1a004550:	ebc0 00c0 	rsb	r0, r0, r0, lsl #3
1a004554:	4b03      	ldr	r3, [pc, #12]	; (1a004564 <Chip_I2C_IsStateChanged+0x14>)
1a004556:	f853 3020 	ldr.w	r3, [r3, r0, lsl #2]
1a00455a:	6818      	ldr	r0, [r3, #0]
}
1a00455c:	f3c0 00c0 	ubfx	r0, r0, #3, #1
1a004560:	4770      	bx	lr
1a004562:	bf00      	nop
1a004564:	10000090 	.word	0x10000090

1a004568 <Chip_I2C_EventHandlerPolling>:
	if (event != I2C_EVENT_WAIT) {
1a004568:	2901      	cmp	r1, #1
1a00456a:	d115      	bne.n	1a004598 <Chip_I2C_EventHandlerPolling+0x30>
{
1a00456c:	b538      	push	{r3, r4, r5, lr}
1a00456e:	4604      	mov	r4, r0
	stat = &iic->mXfer->status;
1a004570:	ebc0 03c0 	rsb	r3, r0, r0, lsl #3
1a004574:	4a09      	ldr	r2, [pc, #36]	; (1a00459c <Chip_I2C_EventHandlerPolling+0x34>)
1a004576:	eb02 0383 	add.w	r3, r2, r3, lsl #2
1a00457a:	691d      	ldr	r5, [r3, #16]
	while (*stat == I2C_STATUS_BUSY) {
1a00457c:	7d2b      	ldrb	r3, [r5, #20]
1a00457e:	b2db      	uxtb	r3, r3
1a004580:	2b04      	cmp	r3, #4
1a004582:	d108      	bne.n	1a004596 <Chip_I2C_EventHandlerPolling+0x2e>
		if (Chip_I2C_IsStateChanged(id)) {
1a004584:	4620      	mov	r0, r4
1a004586:	f7ff ffe3 	bl	1a004550 <Chip_I2C_IsStateChanged>
1a00458a:	2800      	cmp	r0, #0
1a00458c:	d0f6      	beq.n	1a00457c <Chip_I2C_EventHandlerPolling+0x14>
			Chip_I2C_MasterStateHandler(id);
1a00458e:	4620      	mov	r0, r4
1a004590:	f7ff ffc4 	bl	1a00451c <Chip_I2C_MasterStateHandler>
1a004594:	e7f2      	b.n	1a00457c <Chip_I2C_EventHandlerPolling+0x14>
}
1a004596:	bd38      	pop	{r3, r4, r5, pc}
1a004598:	4770      	bx	lr
1a00459a:	bf00      	nop
1a00459c:	10000090 	.word	0x10000090

1a0045a0 <Chip_UART_GetIndex>:

/* Returns clock index for the peripheral block */
static int Chip_UART_GetIndex(LPC_USART_T *pUART)
{
	uint32_t base = (uint32_t) pUART;
	switch(base) {
1a0045a0:	4b09      	ldr	r3, [pc, #36]	; (1a0045c8 <Chip_UART_GetIndex+0x28>)
1a0045a2:	4298      	cmp	r0, r3
1a0045a4:	d00b      	beq.n	1a0045be <Chip_UART_GetIndex+0x1e>
1a0045a6:	f503 5380 	add.w	r3, r3, #4096	; 0x1000
1a0045aa:	4298      	cmp	r0, r3
1a0045ac:	d009      	beq.n	1a0045c2 <Chip_UART_GetIndex+0x22>
1a0045ae:	f5a3 2380 	sub.w	r3, r3, #262144	; 0x40000
1a0045b2:	4298      	cmp	r0, r3
1a0045b4:	d001      	beq.n	1a0045ba <Chip_UART_GetIndex+0x1a>
1a0045b6:	2000      	movs	r0, #0
		case LPC_USART3_BASE:
			return 3;
		default:
			return 0; /* Should never come here */
	}
}
1a0045b8:	4770      	bx	lr
			return 1;
1a0045ba:	2001      	movs	r0, #1
1a0045bc:	4770      	bx	lr
			return 2;
1a0045be:	2002      	movs	r0, #2
1a0045c0:	4770      	bx	lr
			return 3;
1a0045c2:	2003      	movs	r0, #3
1a0045c4:	4770      	bx	lr
1a0045c6:	bf00      	nop
1a0045c8:	400c1000 	.word	0x400c1000

1a0045cc <Chip_UART_Init>:
 * Public functions
 ****************************************************************************/

/* Initializes the pUART peripheral */
void Chip_UART_Init(LPC_USART_T *pUART)
{
1a0045cc:	b530      	push	{r4, r5, lr}
1a0045ce:	b083      	sub	sp, #12
1a0045d0:	4604      	mov	r4, r0
    volatile uint32_t tmp;

	/* Enable UART clocking. UART base clock(s) must already be enabled */
	Chip_Clock_EnableOpts(UART_PClock[Chip_UART_GetIndex(pUART)], true, true, 1);
1a0045d2:	f7ff ffe5 	bl	1a0045a0 <Chip_UART_GetIndex>
1a0045d6:	2301      	movs	r3, #1
1a0045d8:	461a      	mov	r2, r3
1a0045da:	4619      	mov	r1, r3
1a0045dc:	4d0e      	ldr	r5, [pc, #56]	; (1a004618 <Chip_UART_Init+0x4c>)
1a0045de:	f835 0010 	ldrh.w	r0, [r5, r0, lsl #1]
1a0045e2:	f000 fb19 	bl	1a004c18 <Chip_Clock_EnableOpts>
	pUART->FCR = fcr;
1a0045e6:	2307      	movs	r3, #7
1a0045e8:	60a3      	str	r3, [r4, #8]
    pUART->TER2 = 0;
1a0045ea:	2300      	movs	r3, #0
1a0045ec:	65e3      	str	r3, [r4, #92]	; 0x5c

    /* Disable Tx */
    Chip_UART_TXDisable(pUART);

    /* Disable interrupts */
	pUART->IER = 0;
1a0045ee:	6063      	str	r3, [r4, #4]
	/* Set LCR to default state */
	pUART->LCR = 0;
1a0045f0:	60e3      	str	r3, [r4, #12]
	/* Set ACR to default state */
	pUART->ACR = 0;
1a0045f2:	6223      	str	r3, [r4, #32]
    /* Set RS485 control to default state */
	pUART->RS485CTRL = 0;
1a0045f4:	64e3      	str	r3, [r4, #76]	; 0x4c
	/* Set RS485 delay timer to default state */
	pUART->RS485DLY = 0;
1a0045f6:	6563      	str	r3, [r4, #84]	; 0x54
	/* Set RS485 addr match to default state */
	pUART->RS485ADRMATCH = 0;
1a0045f8:	6523      	str	r3, [r4, #80]	; 0x50

    /* Clear MCR */
    if (pUART == LPC_UART1) {
1a0045fa:	4b08      	ldr	r3, [pc, #32]	; (1a00461c <Chip_UART_Init+0x50>)
1a0045fc:	429c      	cmp	r4, r3
1a0045fe:	d006      	beq.n	1a00460e <Chip_UART_Init+0x42>
	pUART->LCR = config;
1a004600:	2303      	movs	r3, #3
1a004602:	60e3      	str	r3, [r4, #12]

	/* Default 8N1, with DLAB disabled */
	Chip_UART_ConfigData(pUART, (UART_LCR_WLEN8 | UART_LCR_SBS_1BIT | UART_LCR_PARITY_DIS));

	/* Disable fractional divider */
	pUART->FDR = 0x10;
1a004604:	2310      	movs	r3, #16
1a004606:	62a3      	str	r3, [r4, #40]	; 0x28

    (void) tmp;
1a004608:	9b01      	ldr	r3, [sp, #4]
}
1a00460a:	b003      	add	sp, #12
1a00460c:	bd30      	pop	{r4, r5, pc}
		pUART->MCR = 0;
1a00460e:	2300      	movs	r3, #0
1a004610:	6123      	str	r3, [r4, #16]
		tmp = pUART->MSR;
1a004612:	69a3      	ldr	r3, [r4, #24]
1a004614:	9301      	str	r3, [sp, #4]
1a004616:	e7f3      	b.n	1a004600 <Chip_UART_Init+0x34>
1a004618:	1a00763c 	.word	0x1a00763c
1a00461c:	40082000 	.word	0x40082000

1a004620 <Chip_UART_SetBaud>:
	return readBytes;
}

/* Determines and sets best dividers to get a target bit rate */
uint32_t Chip_UART_SetBaud(LPC_USART_T *pUART, uint32_t baudrate)
{
1a004620:	b538      	push	{r3, r4, r5, lr}
1a004622:	4605      	mov	r5, r0
1a004624:	460c      	mov	r4, r1
	uint32_t div, divh, divl, clkin;

	/* Determine UART clock in rate without FDR */
	clkin = Chip_Clock_GetRate(UART_BClock[Chip_UART_GetIndex(pUART)]);
1a004626:	f7ff ffbb 	bl	1a0045a0 <Chip_UART_GetIndex>
1a00462a:	4b0c      	ldr	r3, [pc, #48]	; (1a00465c <Chip_UART_SetBaud+0x3c>)
1a00462c:	f833 0010 	ldrh.w	r0, [r3, r0, lsl #1]
1a004630:	f000 fb2a 	bl	1a004c88 <Chip_Clock_GetRate>
	div = clkin / (baudrate * 16);
1a004634:	0121      	lsls	r1, r4, #4
1a004636:	fbb0 f1f1 	udiv	r1, r0, r1

	/* High and low halves of the divider */
	divh = div / 256;
	divl = div - (divh * 256);
1a00463a:	b2ca      	uxtb	r2, r1
	pUART->LCR |= UART_LCR_DLAB_EN;
1a00463c:	68eb      	ldr	r3, [r5, #12]
1a00463e:	f043 0380 	orr.w	r3, r3, #128	; 0x80
1a004642:	60eb      	str	r3, [r5, #12]
	pUART->DLL = (uint32_t) dll;
1a004644:	602a      	str	r2, [r5, #0]
	pUART->DLM = (uint32_t) dlm;
1a004646:	f3c1 2307 	ubfx	r3, r1, #8, #8
1a00464a:	606b      	str	r3, [r5, #4]
	pUART->LCR &= ~UART_LCR_DLAB_EN;
1a00464c:	68eb      	ldr	r3, [r5, #12]
1a00464e:	f023 0380 	bic.w	r3, r3, #128	; 0x80
1a004652:	60eb      	str	r3, [r5, #12]
	Chip_UART_SetDivisorLatches(pUART, divl, divh);
	Chip_UART_DisableDivisorAccess(pUART);

	/* Fractional FDR alreadt setup for 1 in UART init */

	return (clkin / div) >> 4;
1a004654:	fbb0 f0f1 	udiv	r0, r0, r1
}
1a004658:	0900      	lsrs	r0, r0, #4
1a00465a:	bd38      	pop	{r3, r4, r5, pc}
1a00465c:	1a007634 	.word	0x1a007634

1a004660 <Chip_UART_SetBaudFDR>:
    Chip_UART_ABIntHandler(pUART);
}

/* Determines and sets best dividers to get a target baud rate */
uint32_t Chip_UART_SetBaudFDR(LPC_USART_T *pUART, uint32_t baud)
{
1a004660:	e92d 4ff0 	stmdb	sp!, {r4, r5, r6, r7, r8, r9, sl, fp, lr}
1a004664:	b083      	sub	sp, #12
1a004666:	9001      	str	r0, [sp, #4]
1a004668:	4688      	mov	r8, r1
	uint32_t sdiv = 0, sm = 1, sd = 0;
	uint32_t pclk, m, d;
	uint32_t odiff = -1UL; /* old best diff */

	/* Get base clock for the corresponding UART */
	pclk = Chip_Clock_GetRate(UART_BClock[Chip_UART_GetIndex(pUART)]);
1a00466a:	f7ff ff99 	bl	1a0045a0 <Chip_UART_GetIndex>
1a00466e:	4b32      	ldr	r3, [pc, #200]	; (1a004738 <Chip_UART_SetBaudFDR+0xd8>)
1a004670:	f833 0010 	ldrh.w	r0, [r3, r0, lsl #1]
1a004674:	f000 fb08 	bl	1a004c88 <Chip_Clock_GetRate>
1a004678:	4606      	mov	r6, r0
	uint32_t odiff = -1UL; /* old best diff */
1a00467a:	f04f 37ff 	mov.w	r7, #4294967295	; 0xffffffff

	/* Loop through all possible fractional divider values */
	for (m = 1; odiff && m < 16; m++) {
1a00467e:	2401      	movs	r4, #1
	uint32_t sdiv = 0, sm = 1, sd = 0;
1a004680:	f04f 0b00 	mov.w	fp, #0
1a004684:	46a2      	mov	sl, r4
1a004686:	46d9      	mov	r9, fp
	for (m = 1; odiff && m < 16; m++) {
1a004688:	e02a      	b.n	1a0046e0 <Chip_UART_SetBaudFDR+0x80>
			/* Upper 32-bit of dval has div */
			div = (uint32_t) (dval >> 32);

			/* Closer to next div */
			if ((int)diff < 0) {
				diff = -diff;
1a00468a:	4242      	negs	r2, r0
				div ++;
1a00468c:	1c4b      	adds	r3, r1, #1
1a00468e:	e017      	b.n	1a0046c0 <Chip_UART_SetBaudFDR+0x60>
			sd = d;
			sm = m;
			odiff = diff;

			/* On perfect match, break loop */
			if(!diff) {
1a004690:	b30a      	cbz	r2, 1a0046d6 <Chip_UART_SetBaudFDR+0x76>
			odiff = diff;
1a004692:	4617      	mov	r7, r2
			sd = d;
1a004694:	46ab      	mov	fp, r5
			sm = m;
1a004696:	46a2      	mov	sl, r4
			sdiv = div;
1a004698:	4699      	mov	r9, r3
		for (d = 0; d < m; d++) {
1a00469a:	3501      	adds	r5, #1
1a00469c:	42ac      	cmp	r4, r5
1a00469e:	d91e      	bls.n	1a0046de <Chip_UART_SetBaudFDR+0x7e>
			uint64_t dval = (((uint64_t) pclk << 28) * m) / (baud * (m + d));
1a0046a0:	0933      	lsrs	r3, r6, #4
1a0046a2:	0730      	lsls	r0, r6, #28
1a0046a4:	fba4 0100 	umull	r0, r1, r4, r0
1a0046a8:	fb04 1103 	mla	r1, r4, r3, r1
1a0046ac:	1962      	adds	r2, r4, r5
1a0046ae:	fb08 f202 	mul.w	r2, r8, r2
1a0046b2:	2300      	movs	r3, #0
1a0046b4:	f001 fb12 	bl	1a005cdc <__aeabi_uldivmod>
			diff = (uint32_t) dval;
1a0046b8:	4602      	mov	r2, r0
			div = (uint32_t) (dval >> 32);
1a0046ba:	460b      	mov	r3, r1
			if ((int)diff < 0) {
1a0046bc:	2800      	cmp	r0, #0
1a0046be:	dbe4      	blt.n	1a00468a <Chip_UART_SetBaudFDR+0x2a>
			if (odiff < diff || !div || (div >> 16) || (div < 3 && d)) {
1a0046c0:	4297      	cmp	r7, r2
1a0046c2:	d3ea      	bcc.n	1a00469a <Chip_UART_SetBaudFDR+0x3a>
1a0046c4:	2b00      	cmp	r3, #0
1a0046c6:	d0e8      	beq.n	1a00469a <Chip_UART_SetBaudFDR+0x3a>
1a0046c8:	0c19      	lsrs	r1, r3, #16
1a0046ca:	d1e6      	bne.n	1a00469a <Chip_UART_SetBaudFDR+0x3a>
1a0046cc:	2b02      	cmp	r3, #2
1a0046ce:	d8df      	bhi.n	1a004690 <Chip_UART_SetBaudFDR+0x30>
1a0046d0:	2d00      	cmp	r5, #0
1a0046d2:	d0dd      	beq.n	1a004690 <Chip_UART_SetBaudFDR+0x30>
1a0046d4:	e7e1      	b.n	1a00469a <Chip_UART_SetBaudFDR+0x3a>
			odiff = diff;
1a0046d6:	4617      	mov	r7, r2
			sd = d;
1a0046d8:	46ab      	mov	fp, r5
			sm = m;
1a0046da:	46a2      	mov	sl, r4
			sdiv = div;
1a0046dc:	4699      	mov	r9, r3
	for (m = 1; odiff && m < 16; m++) {
1a0046de:	3401      	adds	r4, #1
1a0046e0:	b11f      	cbz	r7, 1a0046ea <Chip_UART_SetBaudFDR+0x8a>
1a0046e2:	2c0f      	cmp	r4, #15
1a0046e4:	d801      	bhi.n	1a0046ea <Chip_UART_SetBaudFDR+0x8a>
		for (d = 0; d < m; d++) {
1a0046e6:	2500      	movs	r5, #0
1a0046e8:	e7d8      	b.n	1a00469c <Chip_UART_SetBaudFDR+0x3c>
			}
		}
	}

	/* Return 0 if a vaild divisor is not possible */
	if (!sdiv) {
1a0046ea:	f1b9 0f00 	cmp.w	r9, #0
1a0046ee:	d01e      	beq.n	1a00472e <Chip_UART_SetBaudFDR+0xce>
	pUART->LCR |= UART_LCR_DLAB_EN;
1a0046f0:	9a01      	ldr	r2, [sp, #4]
1a0046f2:	4611      	mov	r1, r2
1a0046f4:	68d3      	ldr	r3, [r2, #12]
1a0046f6:	f043 0380 	orr.w	r3, r3, #128	; 0x80
1a0046fa:	60d3      	str	r3, [r2, #12]
	pUART->DLL = (uint32_t) dll;
1a0046fc:	fa5f f389 	uxtb.w	r3, r9
1a004700:	6013      	str	r3, [r2, #0]
	pUART->DLM = (uint32_t) dlm;
1a004702:	f3c9 2307 	ubfx	r3, r9, #8, #8
1a004706:	6053      	str	r3, [r2, #4]
	pUART->LCR &= ~UART_LCR_DLAB_EN;
1a004708:	68d3      	ldr	r3, [r2, #12]
1a00470a:	f023 0380 	bic.w	r3, r3, #128	; 0x80
1a00470e:	60d3      	str	r3, [r2, #12]
	Chip_UART_EnableDivisorAccess(pUART);
	Chip_UART_SetDivisorLatches(pUART, UART_LOAD_DLL(sdiv), UART_LOAD_DLM(sdiv));
	Chip_UART_DisableDivisorAccess(pUART);

	/* Set best fractional divider */
	pUART->FDR = (UART_FDR_MULVAL(sm) | UART_FDR_DIVADDVAL(sd));
1a004710:	ea4f 130a 	mov.w	r3, sl, lsl #4
1a004714:	b2db      	uxtb	r3, r3
1a004716:	f00b 020f 	and.w	r2, fp, #15
1a00471a:	4313      	orrs	r3, r2
1a00471c:	628b      	str	r3, [r1, #40]	; 0x28

	/* Return actual baud rate */
	return (pclk >> 4) * sm / (sdiv * (sm + sd));
1a00471e:	0933      	lsrs	r3, r6, #4
1a004720:	fb0a f303 	mul.w	r3, sl, r3
1a004724:	44da      	add	sl, fp
1a004726:	fb09 f90a 	mul.w	r9, r9, sl
1a00472a:	fbb3 f9f9 	udiv	r9, r3, r9
}
1a00472e:	4648      	mov	r0, r9
1a004730:	b003      	add	sp, #12
1a004732:	e8bd 8ff0 	ldmia.w	sp!, {r4, r5, r6, r7, r8, r9, sl, fp, pc}
1a004736:	bf00      	nop
1a004738:	1a007634 	.word	0x1a007634

1a00473c <SystemCoreClockUpdate>:


/* Update system core clock rate, should be called if the system has
   a clock rate change */
void SystemCoreClockUpdate(void)
{
1a00473c:	b508      	push	{r3, lr}
	/* CPU core speed */
	SystemCoreClock = Chip_Clock_GetRate(CLK_MX_MXCORE);
1a00473e:	2069      	movs	r0, #105	; 0x69
1a004740:	f000 faa2 	bl	1a004c88 <Chip_Clock_GetRate>
1a004744:	4b01      	ldr	r3, [pc, #4]	; (1a00474c <SystemCoreClockUpdate+0x10>)
1a004746:	6018      	str	r0, [r3, #0]
}
1a004748:	bd08      	pop	{r3, pc}
1a00474a:	bf00      	nop
1a00474c:	10000c50 	.word	0x10000c50

1a004750 <pll_calc_divs>:
		return -val;
	return val;
}

static void pll_calc_divs(uint32_t freq, PLL_PARAM_T *ppll)
{
1a004750:	b4f0      	push	{r4, r5, r6, r7}

	uint32_t prev = freq;
	int n, m, p;

	/* When direct mode is set FBSEL should be a don't care */
	if (ppll->ctrl & (1 << 7)) {
1a004752:	680b      	ldr	r3, [r1, #0]
1a004754:	f013 0f80 	tst.w	r3, #128	; 0x80
1a004758:	d002      	beq.n	1a004760 <pll_calc_divs+0x10>
		ppll->ctrl &= ~(1 << 6);
1a00475a:	f023 0340 	bic.w	r3, r3, #64	; 0x40
1a00475e:	600b      	str	r3, [r1, #0]
	}
	for (n = 1; n <= 4; n++) {
		for (p = 0; p < 4; p ++) {
1a004760:	4607      	mov	r7, r0
1a004762:	2501      	movs	r5, #1
1a004764:	e03a      	b.n	1a0047dc <pll_calc_divs+0x8c>
			for (m = 1; m <= 256; m++) {
				uint32_t fcco, fout;
				if (ppll->ctrl & (1 << 6)) {
					fcco = ((m << (p + 1)) * ppll->fin) / n;
				} else {
					fcco = (m * ppll->fin) / n;
1a004766:	694b      	ldr	r3, [r1, #20]
1a004768:	fb03 f302 	mul.w	r3, r3, r2
1a00476c:	fbb3 f3f5 	udiv	r3, r3, r5
1a004770:	e01c      	b.n	1a0047ac <pll_calc_divs+0x5c>
				}
				if (fcco < PLL_MIN_CCO_FREQ) continue;
				if (fcco > PLL_MAX_CCO_FREQ) break;
				if (ppll->ctrl & (1 << 7)) {
					fout = fcco;
1a004772:	461c      	mov	r4, r3
	if (val < 0)
1a004774:	ebb0 0c04 	subs.w	ip, r0, r4
1a004778:	d427      	bmi.n	1a0047ca <pll_calc_divs+0x7a>
				} else {
					fout = fcco >> (p + 1);
				}

				if (ABS(freq - fout) < prev) {
1a00477a:	4567      	cmp	r7, ip
1a00477c:	d906      	bls.n	1a00478c <pll_calc_divs+0x3c>
					ppll->nsel = n;
1a00477e:	608d      	str	r5, [r1, #8]
					ppll->psel = p + 1;
1a004780:	1c77      	adds	r7, r6, #1
1a004782:	60cf      	str	r7, [r1, #12]
					ppll->msel = m;
1a004784:	610a      	str	r2, [r1, #16]
					ppll->fout = fout;
1a004786:	618c      	str	r4, [r1, #24]
					ppll->fcco = fcco;
1a004788:	61cb      	str	r3, [r1, #28]
					prev = ABS(freq - fout);
1a00478a:	4667      	mov	r7, ip
			for (m = 1; m <= 256; m++) {
1a00478c:	3201      	adds	r2, #1
1a00478e:	f5b2 7f80 	cmp.w	r2, #256	; 0x100
1a004792:	dc1d      	bgt.n	1a0047d0 <pll_calc_divs+0x80>
				if (ppll->ctrl & (1 << 6)) {
1a004794:	680c      	ldr	r4, [r1, #0]
1a004796:	f014 0f40 	tst.w	r4, #64	; 0x40
1a00479a:	d0e4      	beq.n	1a004766 <pll_calc_divs+0x16>
					fcco = ((m << (p + 1)) * ppll->fin) / n;
1a00479c:	1c73      	adds	r3, r6, #1
1a00479e:	fa02 fc03 	lsl.w	ip, r2, r3
1a0047a2:	694b      	ldr	r3, [r1, #20]
1a0047a4:	fb03 f30c 	mul.w	r3, r3, ip
1a0047a8:	fbb3 f3f5 	udiv	r3, r3, r5
				if (fcco < PLL_MIN_CCO_FREQ) continue;
1a0047ac:	f8df c038 	ldr.w	ip, [pc, #56]	; 1a0047e8 <pll_calc_divs+0x98>
1a0047b0:	4563      	cmp	r3, ip
1a0047b2:	d9eb      	bls.n	1a00478c <pll_calc_divs+0x3c>
				if (fcco > PLL_MAX_CCO_FREQ) break;
1a0047b4:	f8df c034 	ldr.w	ip, [pc, #52]	; 1a0047ec <pll_calc_divs+0x9c>
1a0047b8:	4563      	cmp	r3, ip
1a0047ba:	d809      	bhi.n	1a0047d0 <pll_calc_divs+0x80>
				if (ppll->ctrl & (1 << 7)) {
1a0047bc:	f014 0f80 	tst.w	r4, #128	; 0x80
1a0047c0:	d1d7      	bne.n	1a004772 <pll_calc_divs+0x22>
					fout = fcco >> (p + 1);
1a0047c2:	1c74      	adds	r4, r6, #1
1a0047c4:	fa23 f404 	lsr.w	r4, r3, r4
1a0047c8:	e7d4      	b.n	1a004774 <pll_calc_divs+0x24>
		return -val;
1a0047ca:	f1cc 0c00 	rsb	ip, ip, #0
1a0047ce:	e7d4      	b.n	1a00477a <pll_calc_divs+0x2a>
		for (p = 0; p < 4; p ++) {
1a0047d0:	3601      	adds	r6, #1
1a0047d2:	2e03      	cmp	r6, #3
1a0047d4:	dc01      	bgt.n	1a0047da <pll_calc_divs+0x8a>
			for (m = 1; m <= 256; m++) {
1a0047d6:	2201      	movs	r2, #1
1a0047d8:	e7d9      	b.n	1a00478e <pll_calc_divs+0x3e>
	for (n = 1; n <= 4; n++) {
1a0047da:	3501      	adds	r5, #1
1a0047dc:	2d04      	cmp	r5, #4
1a0047de:	dc01      	bgt.n	1a0047e4 <pll_calc_divs+0x94>
		for (p = 0; p < 4; p ++) {
1a0047e0:	2600      	movs	r6, #0
1a0047e2:	e7f6      	b.n	1a0047d2 <pll_calc_divs+0x82>
				}
			}
		}
	}
}
1a0047e4:	bcf0      	pop	{r4, r5, r6, r7}
1a0047e6:	4770      	bx	lr
1a0047e8:	094c5eff 	.word	0x094c5eff
1a0047ec:	1312d000 	.word	0x1312d000

1a0047f0 <pll_get_frac>:

static void pll_get_frac(uint32_t freq, PLL_PARAM_T *ppll)
{
1a0047f0:	b5f0      	push	{r4, r5, r6, r7, lr}
1a0047f2:	b099      	sub	sp, #100	; 0x64
1a0047f4:	4605      	mov	r5, r0
1a0047f6:	460c      	mov	r4, r1
	int diff[3];
	PLL_PARAM_T pll[3] = {{0},{0},{0}};
1a0047f8:	225c      	movs	r2, #92	; 0x5c
1a0047fa:	2100      	movs	r1, #0
1a0047fc:	a801      	add	r0, sp, #4
1a0047fe:	f001 fc1b 	bl	1a006038 <memset>

	/* Try direct mode */
	pll[0].ctrl |= (1 << 7);
1a004802:	2380      	movs	r3, #128	; 0x80
1a004804:	9300      	str	r3, [sp, #0]
	pll[0].fin = ppll->fin;
1a004806:	6963      	ldr	r3, [r4, #20]
1a004808:	9305      	str	r3, [sp, #20]
	pll[0].srcin = ppll->srcin;
1a00480a:	7923      	ldrb	r3, [r4, #4]
1a00480c:	f88d 3004 	strb.w	r3, [sp, #4]
	pll_calc_divs(freq, &pll[0]);
1a004810:	4669      	mov	r1, sp
1a004812:	4628      	mov	r0, r5
1a004814:	f7ff ff9c 	bl	1a004750 <pll_calc_divs>
	if (pll[0].fout == freq) {
1a004818:	9b06      	ldr	r3, [sp, #24]
1a00481a:	42ab      	cmp	r3, r5
1a00481c:	d027      	beq.n	1a00486e <pll_get_frac+0x7e>
	if (val < 0)
1a00481e:	1aeb      	subs	r3, r5, r3
1a004820:	d42e      	bmi.n	1a004880 <pll_get_frac+0x90>
		*ppll = pll[0];
		return ;
	}
	diff[0] = ABS(freq - pll[0].fout);
1a004822:	461e      	mov	r6, r3

	/* Try non-Integer mode */
	pll[2].ctrl &= ~(1 << 6);			// need to set FBSEL to 0
1a004824:	9b10      	ldr	r3, [sp, #64]	; 0x40
1a004826:	f023 0340 	bic.w	r3, r3, #64	; 0x40
1a00482a:	9310      	str	r3, [sp, #64]	; 0x40
	pll[2].fin = ppll->fin;
1a00482c:	6963      	ldr	r3, [r4, #20]
1a00482e:	9315      	str	r3, [sp, #84]	; 0x54
	pll[2].srcin = ppll->srcin;
1a004830:	7923      	ldrb	r3, [r4, #4]
1a004832:	f88d 3044 	strb.w	r3, [sp, #68]	; 0x44
	pll_calc_divs(freq, &pll[2]);
1a004836:	a910      	add	r1, sp, #64	; 0x40
1a004838:	4628      	mov	r0, r5
1a00483a:	f7ff ff89 	bl	1a004750 <pll_calc_divs>
	if (pll[2].fout == freq) {
1a00483e:	9b16      	ldr	r3, [sp, #88]	; 0x58
1a004840:	42ab      	cmp	r3, r5
1a004842:	d01f      	beq.n	1a004884 <pll_get_frac+0x94>
	if (val < 0)
1a004844:	1aeb      	subs	r3, r5, r3
1a004846:	d425      	bmi.n	1a004894 <pll_get_frac+0xa4>
		*ppll = pll[2];
		return ;
	}
	diff[2] = ABS(freq - pll[2].fout);
1a004848:	461f      	mov	r7, r3
	
	if (freq <= 110000000) {
1a00484a:	4b2b      	ldr	r3, [pc, #172]	; (1a0048f8 <pll_get_frac+0x108>)
1a00484c:	429d      	cmp	r5, r3
1a00484e:	d923      	bls.n	1a004898 <pll_get_frac+0xa8>
		if (pll[1].fout == freq) {
			*ppll = pll[1];
			return ;
		}
	}
	diff[1] = ABS(freq - pll[1].fout);
1a004850:	980e      	ldr	r0, [sp, #56]	; 0x38
	if (val < 0)
1a004852:	1a2d      	subs	r5, r5, r0
1a004854:	d433      	bmi.n	1a0048be <pll_get_frac+0xce>

	/* Find the min of 3 and return */
	if (diff[0] <= diff[1]) {
1a004856:	42ae      	cmp	r6, r5
1a004858:	dc3b      	bgt.n	1a0048d2 <pll_get_frac+0xe2>
		if (diff[0] <= diff[2]) {
1a00485a:	42be      	cmp	r6, r7
1a00485c:	dc31      	bgt.n	1a0048c2 <pll_get_frac+0xd2>
			*ppll = pll[0];
1a00485e:	466d      	mov	r5, sp
1a004860:	cd0f      	ldmia	r5!, {r0, r1, r2, r3}
1a004862:	c40f      	stmia	r4!, {r0, r1, r2, r3}
1a004864:	e895 000f 	ldmia.w	r5, {r0, r1, r2, r3}
1a004868:	e884 000f 	stmia.w	r4, {r0, r1, r2, r3}
1a00486c:	e006      	b.n	1a00487c <pll_get_frac+0x8c>
		*ppll = pll[0];
1a00486e:	466d      	mov	r5, sp
1a004870:	cd0f      	ldmia	r5!, {r0, r1, r2, r3}
1a004872:	c40f      	stmia	r4!, {r0, r1, r2, r3}
1a004874:	e895 000f 	ldmia.w	r5, {r0, r1, r2, r3}
1a004878:	e884 000f 	stmia.w	r4, {r0, r1, r2, r3}
			*ppll = pll[1];
		} else {
			*ppll = pll[2];
		}
	}
}
1a00487c:	b019      	add	sp, #100	; 0x64
1a00487e:	bdf0      	pop	{r4, r5, r6, r7, pc}
		return -val;
1a004880:	425b      	negs	r3, r3
1a004882:	e7ce      	b.n	1a004822 <pll_get_frac+0x32>
		*ppll = pll[2];
1a004884:	ad10      	add	r5, sp, #64	; 0x40
1a004886:	cd0f      	ldmia	r5!, {r0, r1, r2, r3}
1a004888:	c40f      	stmia	r4!, {r0, r1, r2, r3}
1a00488a:	e895 000f 	ldmia.w	r5, {r0, r1, r2, r3}
1a00488e:	e884 000f 	stmia.w	r4, {r0, r1, r2, r3}
		return ;
1a004892:	e7f3      	b.n	1a00487c <pll_get_frac+0x8c>
		return -val;
1a004894:	425b      	negs	r3, r3
1a004896:	e7d7      	b.n	1a004848 <pll_get_frac+0x58>
		pll[1].ctrl = (1 << 6);
1a004898:	2340      	movs	r3, #64	; 0x40
1a00489a:	9308      	str	r3, [sp, #32]
		pll[1].fin = ppll->fin;
1a00489c:	6963      	ldr	r3, [r4, #20]
1a00489e:	930d      	str	r3, [sp, #52]	; 0x34
		pll_calc_divs(freq, &pll[1]);
1a0048a0:	a908      	add	r1, sp, #32
1a0048a2:	4628      	mov	r0, r5
1a0048a4:	f7ff ff54 	bl	1a004750 <pll_calc_divs>
		if (pll[1].fout == freq) {
1a0048a8:	9b0e      	ldr	r3, [sp, #56]	; 0x38
1a0048aa:	42ab      	cmp	r3, r5
1a0048ac:	d1d0      	bne.n	1a004850 <pll_get_frac+0x60>
			*ppll = pll[1];
1a0048ae:	ad08      	add	r5, sp, #32
1a0048b0:	cd0f      	ldmia	r5!, {r0, r1, r2, r3}
1a0048b2:	c40f      	stmia	r4!, {r0, r1, r2, r3}
1a0048b4:	e895 000f 	ldmia.w	r5, {r0, r1, r2, r3}
1a0048b8:	e884 000f 	stmia.w	r4, {r0, r1, r2, r3}
			return ;
1a0048bc:	e7de      	b.n	1a00487c <pll_get_frac+0x8c>
		return -val;
1a0048be:	426d      	negs	r5, r5
1a0048c0:	e7c9      	b.n	1a004856 <pll_get_frac+0x66>
			*ppll = pll[2];
1a0048c2:	ad10      	add	r5, sp, #64	; 0x40
1a0048c4:	cd0f      	ldmia	r5!, {r0, r1, r2, r3}
1a0048c6:	c40f      	stmia	r4!, {r0, r1, r2, r3}
1a0048c8:	e895 000f 	ldmia.w	r5, {r0, r1, r2, r3}
1a0048cc:	e884 000f 	stmia.w	r4, {r0, r1, r2, r3}
1a0048d0:	e7d4      	b.n	1a00487c <pll_get_frac+0x8c>
		if (diff[1] <= diff[2]) {
1a0048d2:	42af      	cmp	r7, r5
1a0048d4:	db07      	blt.n	1a0048e6 <pll_get_frac+0xf6>
			*ppll = pll[1];
1a0048d6:	ad08      	add	r5, sp, #32
1a0048d8:	cd0f      	ldmia	r5!, {r0, r1, r2, r3}
1a0048da:	c40f      	stmia	r4!, {r0, r1, r2, r3}
1a0048dc:	e895 000f 	ldmia.w	r5, {r0, r1, r2, r3}
1a0048e0:	e884 000f 	stmia.w	r4, {r0, r1, r2, r3}
1a0048e4:	e7ca      	b.n	1a00487c <pll_get_frac+0x8c>
			*ppll = pll[2];
1a0048e6:	ad10      	add	r5, sp, #64	; 0x40
1a0048e8:	cd0f      	ldmia	r5!, {r0, r1, r2, r3}
1a0048ea:	c40f      	stmia	r4!, {r0, r1, r2, r3}
1a0048ec:	e895 000f 	ldmia.w	r5, {r0, r1, r2, r3}
1a0048f0:	e884 000f 	stmia.w	r4, {r0, r1, r2, r3}
1a0048f4:	e7c2      	b.n	1a00487c <pll_get_frac+0x8c>
1a0048f6:	bf00      	nop
1a0048f8:	068e7780 	.word	0x068e7780

1a0048fc <Chip_Clock_FindBaseClock>:
	return Chip_Clock_GetClockInputHz(input) / (div + 1);
}

/* Finds the base clock for the peripheral clock */
static CHIP_CGU_BASE_CLK_T Chip_Clock_FindBaseClock(CHIP_CCU_CLK_T clk)
{
1a0048fc:	b430      	push	{r4, r5}
1a0048fe:	4605      	mov	r5, r0
	CHIP_CGU_BASE_CLK_T baseclk = CLK_BASE_NONE;
	int i = 0;
1a004900:	2300      	movs	r3, #0
	CHIP_CGU_BASE_CLK_T baseclk = CLK_BASE_NONE;
1a004902:	201c      	movs	r0, #28

	while ((baseclk == CLK_BASE_NONE) && (periph_to_base[i].clkbase != baseclk)) {
1a004904:	e000      	b.n	1a004908 <Chip_Clock_FindBaseClock+0xc>
		if ((clk >= periph_to_base[i].clkstart) && (clk <= periph_to_base[i].clkend)) {
			baseclk = periph_to_base[i].clkbase;
		}
		else {
			i++;
1a004906:	3301      	adds	r3, #1
	while ((baseclk == CLK_BASE_NONE) && (periph_to_base[i].clkbase != baseclk)) {
1a004908:	281c      	cmp	r0, #28
1a00490a:	d117      	bne.n	1a00493c <Chip_Clock_FindBaseClock+0x40>
1a00490c:	eb03 0243 	add.w	r2, r3, r3, lsl #1
1a004910:	490b      	ldr	r1, [pc, #44]	; (1a004940 <Chip_Clock_FindBaseClock+0x44>)
1a004912:	eb01 0242 	add.w	r2, r1, r2, lsl #1
1a004916:	7911      	ldrb	r1, [r2, #4]
1a004918:	4281      	cmp	r1, r0
1a00491a:	d00f      	beq.n	1a00493c <Chip_Clock_FindBaseClock+0x40>
		if ((clk >= periph_to_base[i].clkstart) && (clk <= periph_to_base[i].clkend)) {
1a00491c:	eb03 0243 	add.w	r2, r3, r3, lsl #1
1a004920:	4c07      	ldr	r4, [pc, #28]	; (1a004940 <Chip_Clock_FindBaseClock+0x44>)
1a004922:	f834 2012 	ldrh.w	r2, [r4, r2, lsl #1]
1a004926:	42aa      	cmp	r2, r5
1a004928:	d8ed      	bhi.n	1a004906 <Chip_Clock_FindBaseClock+0xa>
1a00492a:	eb03 0243 	add.w	r2, r3, r3, lsl #1
1a00492e:	eb04 0242 	add.w	r2, r4, r2, lsl #1
1a004932:	8852      	ldrh	r2, [r2, #2]
1a004934:	42aa      	cmp	r2, r5
1a004936:	d3e6      	bcc.n	1a004906 <Chip_Clock_FindBaseClock+0xa>
			baseclk = periph_to_base[i].clkbase;
1a004938:	4608      	mov	r0, r1
1a00493a:	e7e5      	b.n	1a004908 <Chip_Clock_FindBaseClock+0xc>
		}
	}

	return baseclk;
}
1a00493c:	bc30      	pop	{r4, r5}
1a00493e:	4770      	bx	lr
1a004940:	1a00764c 	.word	0x1a00764c

1a004944 <Chip_Clock_EnableCrystal>:
 * Public functions
 ****************************************************************************/

/* Enables the crystal oscillator */
void Chip_Clock_EnableCrystal(void)
{
1a004944:	b082      	sub	sp, #8
	volatile uint32_t delay = 1000;
1a004946:	f44f 737a 	mov.w	r3, #1000	; 0x3e8
1a00494a:	9301      	str	r3, [sp, #4]

	uint32_t OldCrystalConfig = LPC_CGU->XTAL_OSC_CTRL;
1a00494c:	4a0d      	ldr	r2, [pc, #52]	; (1a004984 <Chip_Clock_EnableCrystal+0x40>)
1a00494e:	6993      	ldr	r3, [r2, #24]

	/* Clear bypass mode */
	OldCrystalConfig &= (~2);
1a004950:	f023 0102 	bic.w	r1, r3, #2
	if (OldCrystalConfig != LPC_CGU->XTAL_OSC_CTRL) {
1a004954:	6992      	ldr	r2, [r2, #24]
1a004956:	428a      	cmp	r2, r1
1a004958:	d001      	beq.n	1a00495e <Chip_Clock_EnableCrystal+0x1a>
		LPC_CGU->XTAL_OSC_CTRL = OldCrystalConfig;
1a00495a:	4a0a      	ldr	r2, [pc, #40]	; (1a004984 <Chip_Clock_EnableCrystal+0x40>)
1a00495c:	6191      	str	r1, [r2, #24]
	}

	/* Enable crystal oscillator */
	OldCrystalConfig &= (~1);
1a00495e:	f023 0303 	bic.w	r3, r3, #3
	if (OscRateIn >= 20000000) {
1a004962:	4a09      	ldr	r2, [pc, #36]	; (1a004988 <Chip_Clock_EnableCrystal+0x44>)
1a004964:	6811      	ldr	r1, [r2, #0]
1a004966:	4a09      	ldr	r2, [pc, #36]	; (1a00498c <Chip_Clock_EnableCrystal+0x48>)
1a004968:	4291      	cmp	r1, r2
1a00496a:	d901      	bls.n	1a004970 <Chip_Clock_EnableCrystal+0x2c>
		OldCrystalConfig |= 4;	/* Set high frequency mode */
1a00496c:	f043 0304 	orr.w	r3, r3, #4

	}
	LPC_CGU->XTAL_OSC_CTRL = OldCrystalConfig;
1a004970:	4a04      	ldr	r2, [pc, #16]	; (1a004984 <Chip_Clock_EnableCrystal+0x40>)
1a004972:	6193      	str	r3, [r2, #24]

	/* Delay for 250uSec */
	while(delay--) {}
1a004974:	9b01      	ldr	r3, [sp, #4]
1a004976:	1e5a      	subs	r2, r3, #1
1a004978:	9201      	str	r2, [sp, #4]
1a00497a:	2b00      	cmp	r3, #0
1a00497c:	d1fa      	bne.n	1a004974 <Chip_Clock_EnableCrystal+0x30>
}
1a00497e:	b002      	add	sp, #8
1a004980:	4770      	bx	lr
1a004982:	bf00      	nop
1a004984:	40050000 	.word	0x40050000
1a004988:	1a00757c 	.word	0x1a00757c
1a00498c:	01312cff 	.word	0x01312cff

1a004990 <Chip_Clock_GetDividerSource>:
}

/* Gets a CGU clock divider source */
CHIP_CGU_CLKIN_T Chip_Clock_GetDividerSource(CHIP_CGU_IDIV_T Divider)
{
	uint32_t reg = LPC_CGU->IDIV_CTRL[Divider];
1a004990:	3012      	adds	r0, #18
1a004992:	4b05      	ldr	r3, [pc, #20]	; (1a0049a8 <Chip_Clock_GetDividerSource+0x18>)
1a004994:	f853 0020 	ldr.w	r0, [r3, r0, lsl #2]

	if (reg & 1) {	/* divider is powered down */
1a004998:	f010 0f01 	tst.w	r0, #1
1a00499c:	d102      	bne.n	1a0049a4 <Chip_Clock_GetDividerSource+0x14>
		return CLKINPUT_PD;
	}

	return (CHIP_CGU_CLKIN_T) ((reg >> 24) & 0x1F);
1a00499e:	f3c0 6004 	ubfx	r0, r0, #24, #5
1a0049a2:	4770      	bx	lr
		return CLKINPUT_PD;
1a0049a4:	2011      	movs	r0, #17
}
1a0049a6:	4770      	bx	lr
1a0049a8:	40050000 	.word	0x40050000

1a0049ac <Chip_Clock_GetDividerDivisor>:

/* Gets a CGU clock divider divisor */
uint32_t Chip_Clock_GetDividerDivisor(CHIP_CGU_IDIV_T Divider)
{
	return (CHIP_CGU_CLKIN_T) ((LPC_CGU->IDIV_CTRL[Divider] >> 2) & CHIP_CGU_IDIV_MASK(Divider));
1a0049ac:	f100 0212 	add.w	r2, r0, #18
1a0049b0:	4b03      	ldr	r3, [pc, #12]	; (1a0049c0 <Chip_Clock_GetDividerDivisor+0x14>)
1a0049b2:	f853 2022 	ldr.w	r2, [r3, r2, lsl #2]
1a0049b6:	4b03      	ldr	r3, [pc, #12]	; (1a0049c4 <Chip_Clock_GetDividerDivisor+0x18>)
1a0049b8:	5c18      	ldrb	r0, [r3, r0]
}
1a0049ba:	ea00 0092 	and.w	r0, r0, r2, lsr #2
1a0049be:	4770      	bx	lr
1a0049c0:	40050000 	.word	0x40050000
1a0049c4:	1a007644 	.word	0x1a007644

1a0049c8 <Chip_Clock_GetClockInputHz>:

/* Returns the frequency of the specified input clock source */
uint32_t Chip_Clock_GetClockInputHz(CHIP_CGU_CLKIN_T input)
{
1a0049c8:	b508      	push	{r3, lr}
	uint32_t rate = 0;

	switch (input) {
1a0049ca:	2810      	cmp	r0, #16
1a0049cc:	d80a      	bhi.n	1a0049e4 <Chip_Clock_GetClockInputHz+0x1c>
1a0049ce:	e8df f000 	tbb	[pc, r0]
1a0049d2:	0b44      	.short	0x0b44
1a0049d4:	0921180d 	.word	0x0921180d
1a0049d8:	2d2a2724 	.word	0x2d2a2724
1a0049dc:	34300909 	.word	0x34300909
1a0049e0:	3c38      	.short	0x3c38
1a0049e2:	40          	.byte	0x40
1a0049e3:	00          	.byte	0x00
	uint32_t rate = 0;
1a0049e4:	2000      	movs	r0, #0
	default:
		break;
	}

	return rate;
}
1a0049e6:	bd08      	pop	{r3, pc}
		rate = CGU_IRC_FREQ;
1a0049e8:	481e      	ldr	r0, [pc, #120]	; (1a004a64 <Chip_Clock_GetClockInputHz+0x9c>)
		break;
1a0049ea:	e7fc      	b.n	1a0049e6 <Chip_Clock_GetClockInputHz+0x1e>
		if ((LPC_CREG->CREG6 & 0x07) != 0x4) {
1a0049ec:	4b1e      	ldr	r3, [pc, #120]	; (1a004a68 <Chip_Clock_GetClockInputHz+0xa0>)
1a0049ee:	f8d3 312c 	ldr.w	r3, [r3, #300]	; 0x12c
1a0049f2:	f003 0307 	and.w	r3, r3, #7
1a0049f6:	2b04      	cmp	r3, #4
1a0049f8:	d001      	beq.n	1a0049fe <Chip_Clock_GetClockInputHz+0x36>
			rate = 25000000;
1a0049fa:	481c      	ldr	r0, [pc, #112]	; (1a004a6c <Chip_Clock_GetClockInputHz+0xa4>)
1a0049fc:	e7f3      	b.n	1a0049e6 <Chip_Clock_GetClockInputHz+0x1e>
	uint32_t rate = 0;
1a0049fe:	2000      	movs	r0, #0
1a004a00:	e7f1      	b.n	1a0049e6 <Chip_Clock_GetClockInputHz+0x1e>
		if ((LPC_CREG->CREG6 & 0x07) != 0x4) {
1a004a02:	4b19      	ldr	r3, [pc, #100]	; (1a004a68 <Chip_Clock_GetClockInputHz+0xa0>)
1a004a04:	f8d3 312c 	ldr.w	r3, [r3, #300]	; 0x12c
1a004a08:	f003 0307 	and.w	r3, r3, #7
1a004a0c:	2b04      	cmp	r3, #4
1a004a0e:	d027      	beq.n	1a004a60 <Chip_Clock_GetClockInputHz+0x98>
			rate = 25000000; /* MII uses 25 MHz */
1a004a10:	4816      	ldr	r0, [pc, #88]	; (1a004a6c <Chip_Clock_GetClockInputHz+0xa4>)
1a004a12:	e7e8      	b.n	1a0049e6 <Chip_Clock_GetClockInputHz+0x1e>
		rate = ExtRateIn;
1a004a14:	4b16      	ldr	r3, [pc, #88]	; (1a004a70 <Chip_Clock_GetClockInputHz+0xa8>)
1a004a16:	6818      	ldr	r0, [r3, #0]
		break;
1a004a18:	e7e5      	b.n	1a0049e6 <Chip_Clock_GetClockInputHz+0x1e>
		rate = OscRateIn;
1a004a1a:	4b16      	ldr	r3, [pc, #88]	; (1a004a74 <Chip_Clock_GetClockInputHz+0xac>)
1a004a1c:	6818      	ldr	r0, [r3, #0]
		break;
1a004a1e:	e7e2      	b.n	1a0049e6 <Chip_Clock_GetClockInputHz+0x1e>
		rate = audio_usb_pll_freq[CGU_USB_PLL];
1a004a20:	4b15      	ldr	r3, [pc, #84]	; (1a004a78 <Chip_Clock_GetClockInputHz+0xb0>)
1a004a22:	6818      	ldr	r0, [r3, #0]
		break;
1a004a24:	e7df      	b.n	1a0049e6 <Chip_Clock_GetClockInputHz+0x1e>
		rate = audio_usb_pll_freq[CGU_AUDIO_PLL];
1a004a26:	4b14      	ldr	r3, [pc, #80]	; (1a004a78 <Chip_Clock_GetClockInputHz+0xb0>)
1a004a28:	6858      	ldr	r0, [r3, #4]
		break;
1a004a2a:	e7dc      	b.n	1a0049e6 <Chip_Clock_GetClockInputHz+0x1e>
		rate = Chip_Clock_GetMainPLLHz();
1a004a2c:	f000 f868 	bl	1a004b00 <Chip_Clock_GetMainPLLHz>
		break;
1a004a30:	e7d9      	b.n	1a0049e6 <Chip_Clock_GetClockInputHz+0x1e>
		rate = Chip_Clock_GetDivRate(input, CLK_IDIV_A);
1a004a32:	2100      	movs	r1, #0
1a004a34:	f000 f898 	bl	1a004b68 <Chip_Clock_GetDivRate>
		break;
1a004a38:	e7d5      	b.n	1a0049e6 <Chip_Clock_GetClockInputHz+0x1e>
		rate = Chip_Clock_GetDivRate(input, CLK_IDIV_B);
1a004a3a:	2101      	movs	r1, #1
1a004a3c:	f000 f894 	bl	1a004b68 <Chip_Clock_GetDivRate>
		break;
1a004a40:	e7d1      	b.n	1a0049e6 <Chip_Clock_GetClockInputHz+0x1e>
		rate = Chip_Clock_GetDivRate(input, CLK_IDIV_C);
1a004a42:	2102      	movs	r1, #2
1a004a44:	f000 f890 	bl	1a004b68 <Chip_Clock_GetDivRate>
		break;
1a004a48:	e7cd      	b.n	1a0049e6 <Chip_Clock_GetClockInputHz+0x1e>
		rate = Chip_Clock_GetDivRate(input, CLK_IDIV_D);
1a004a4a:	2103      	movs	r1, #3
1a004a4c:	f000 f88c 	bl	1a004b68 <Chip_Clock_GetDivRate>
		break;
1a004a50:	e7c9      	b.n	1a0049e6 <Chip_Clock_GetClockInputHz+0x1e>
		rate = Chip_Clock_GetDivRate(input, CLK_IDIV_E);
1a004a52:	2104      	movs	r1, #4
1a004a54:	f000 f888 	bl	1a004b68 <Chip_Clock_GetDivRate>
		break;
1a004a58:	e7c5      	b.n	1a0049e6 <Chip_Clock_GetClockInputHz+0x1e>
		rate = CRYSTAL_32K_FREQ_IN;
1a004a5a:	f44f 4000 	mov.w	r0, #32768	; 0x8000
1a004a5e:	e7c2      	b.n	1a0049e6 <Chip_Clock_GetClockInputHz+0x1e>
			rate = 50000000; /* RMII uses 50 MHz */
1a004a60:	4806      	ldr	r0, [pc, #24]	; (1a004a7c <Chip_Clock_GetClockInputHz+0xb4>)
	return rate;
1a004a62:	e7c0      	b.n	1a0049e6 <Chip_Clock_GetClockInputHz+0x1e>
1a004a64:	00b71b00 	.word	0x00b71b00
1a004a68:	40043000 	.word	0x40043000
1a004a6c:	017d7840 	.word	0x017d7840
1a004a70:	1a007578 	.word	0x1a007578
1a004a74:	1a00757c 	.word	0x1a00757c
1a004a78:	100005e8 	.word	0x100005e8
1a004a7c:	02faf080 	.word	0x02faf080

1a004a80 <Chip_Clock_CalcMainPLLValue>:
{
1a004a80:	b538      	push	{r3, r4, r5, lr}
1a004a82:	4605      	mov	r5, r0
1a004a84:	460c      	mov	r4, r1
	ppll->fin = Chip_Clock_GetClockInputHz(ppll->srcin);
1a004a86:	7908      	ldrb	r0, [r1, #4]
1a004a88:	f7ff ff9e 	bl	1a0049c8 <Chip_Clock_GetClockInputHz>
1a004a8c:	6160      	str	r0, [r4, #20]
	if (freq > MAX_CLOCK_FREQ || freq < (PLL_MIN_CCO_FREQ / 16) || !ppll->fin) {
1a004a8e:	4b19      	ldr	r3, [pc, #100]	; (1a004af4 <Chip_Clock_CalcMainPLLValue+0x74>)
1a004a90:	442b      	add	r3, r5
1a004a92:	4a19      	ldr	r2, [pc, #100]	; (1a004af8 <Chip_Clock_CalcMainPLLValue+0x78>)
1a004a94:	4293      	cmp	r3, r2
1a004a96:	d821      	bhi.n	1a004adc <Chip_Clock_CalcMainPLLValue+0x5c>
1a004a98:	b318      	cbz	r0, 1a004ae2 <Chip_Clock_CalcMainPLLValue+0x62>
	ppll->ctrl = 1 << 7; /* Enable direct mode [If possible] */
1a004a9a:	2380      	movs	r3, #128	; 0x80
1a004a9c:	6023      	str	r3, [r4, #0]
	ppll->nsel = 0;
1a004a9e:	2300      	movs	r3, #0
1a004aa0:	60a3      	str	r3, [r4, #8]
	ppll->psel = 0;
1a004aa2:	60e3      	str	r3, [r4, #12]
	ppll->msel = freq / ppll->fin;
1a004aa4:	fbb5 f3f0 	udiv	r3, r5, r0
1a004aa8:	6123      	str	r3, [r4, #16]
	if (freq < PLL_MIN_CCO_FREQ || ppll->msel * ppll->fin != freq) {
1a004aaa:	4a14      	ldr	r2, [pc, #80]	; (1a004afc <Chip_Clock_CalcMainPLLValue+0x7c>)
1a004aac:	4295      	cmp	r5, r2
1a004aae:	d903      	bls.n	1a004ab8 <Chip_Clock_CalcMainPLLValue+0x38>
1a004ab0:	fb03 f000 	mul.w	r0, r3, r0
1a004ab4:	42a8      	cmp	r0, r5
1a004ab6:	d007      	beq.n	1a004ac8 <Chip_Clock_CalcMainPLLValue+0x48>
		pll_get_frac(freq, ppll);
1a004ab8:	4621      	mov	r1, r4
1a004aba:	4628      	mov	r0, r5
1a004abc:	f7ff fe98 	bl	1a0047f0 <pll_get_frac>
		if (!ppll->nsel) {
1a004ac0:	68a3      	ldr	r3, [r4, #8]
1a004ac2:	b18b      	cbz	r3, 1a004ae8 <Chip_Clock_CalcMainPLLValue+0x68>
		ppll->nsel --;
1a004ac4:	3b01      	subs	r3, #1
1a004ac6:	60a3      	str	r3, [r4, #8]
	if (ppll->msel == 0) {
1a004ac8:	6923      	ldr	r3, [r4, #16]
1a004aca:	b183      	cbz	r3, 1a004aee <Chip_Clock_CalcMainPLLValue+0x6e>
	if (ppll->psel) {
1a004acc:	68e2      	ldr	r2, [r4, #12]
1a004ace:	b10a      	cbz	r2, 1a004ad4 <Chip_Clock_CalcMainPLLValue+0x54>
		ppll->psel --;
1a004ad0:	3a01      	subs	r2, #1
1a004ad2:	60e2      	str	r2, [r4, #12]
	ppll->msel --;
1a004ad4:	3b01      	subs	r3, #1
1a004ad6:	6123      	str	r3, [r4, #16]
	return 0;
1a004ad8:	2000      	movs	r0, #0
}
1a004ada:	bd38      	pop	{r3, r4, r5, pc}
		return -1;
1a004adc:	f04f 30ff 	mov.w	r0, #4294967295	; 0xffffffff
1a004ae0:	e7fb      	b.n	1a004ada <Chip_Clock_CalcMainPLLValue+0x5a>
1a004ae2:	f04f 30ff 	mov.w	r0, #4294967295	; 0xffffffff
1a004ae6:	e7f8      	b.n	1a004ada <Chip_Clock_CalcMainPLLValue+0x5a>
			return -1;
1a004ae8:	f04f 30ff 	mov.w	r0, #4294967295	; 0xffffffff
1a004aec:	e7f5      	b.n	1a004ada <Chip_Clock_CalcMainPLLValue+0x5a>
		return - 1;
1a004aee:	f04f 30ff 	mov.w	r0, #4294967295	; 0xffffffff
1a004af2:	e7f2      	b.n	1a004ada <Chip_Clock_CalcMainPLLValue+0x5a>
1a004af4:	ff6b3a10 	.word	0xff6b3a10
1a004af8:	0b940510 	.word	0x0b940510
1a004afc:	094c5eff 	.word	0x094c5eff

1a004b00 <Chip_Clock_GetMainPLLHz>:
{
1a004b00:	b570      	push	{r4, r5, r6, lr}
1a004b02:	b082      	sub	sp, #8
	uint32_t PLLReg = LPC_CGU->PLL1_CTRL;
1a004b04:	4d16      	ldr	r5, [pc, #88]	; (1a004b60 <Chip_Clock_GetMainPLLHz+0x60>)
1a004b06:	6c6c      	ldr	r4, [r5, #68]	; 0x44
	uint32_t freq = Chip_Clock_GetClockInputHz((CHIP_CGU_CLKIN_T) ((PLLReg >> 24) & 0xF));
1a004b08:	f3c4 6003 	ubfx	r0, r4, #24, #4
1a004b0c:	f7ff ff5c 	bl	1a0049c8 <Chip_Clock_GetClockInputHz>
1a004b10:	4606      	mov	r6, r0
	const uint8_t ptab[] = {1, 2, 4, 8};
1a004b12:	4a14      	ldr	r2, [pc, #80]	; (1a004b64 <Chip_Clock_GetMainPLLHz+0x64>)
1a004b14:	9201      	str	r2, [sp, #4]
	if (!(LPC_CGU->PLL1_STAT & 1)) {
1a004b16:	6c28      	ldr	r0, [r5, #64]	; 0x40
1a004b18:	f010 0001 	ands.w	r0, r0, #1
1a004b1c:	d01d      	beq.n	1a004b5a <Chip_Clock_GetMainPLLHz+0x5a>
	msel = (PLLReg >> 16) & 0xFF;
1a004b1e:	f3c4 4207 	ubfx	r2, r4, #16, #8
	nsel = (PLLReg >> 12) & 0x3;
1a004b22:	f3c4 3101 	ubfx	r1, r4, #12, #2
	psel = (PLLReg >> 8) & 0x3;
1a004b26:	f3c4 2501 	ubfx	r5, r4, #8, #2
	fbsel = (PLLReg >> 6) & 0x1;
1a004b2a:	f3c4 1080 	ubfx	r0, r4, #6, #1
	m = msel + 1;
1a004b2e:	3201      	adds	r2, #1
	n = nsel + 1;
1a004b30:	3101      	adds	r1, #1
	p = ptab[psel];
1a004b32:	ab02      	add	r3, sp, #8
1a004b34:	441d      	add	r5, r3
1a004b36:	f815 3c04 	ldrb.w	r3, [r5, #-4]
	if (direct || fbsel) {
1a004b3a:	f014 0f80 	tst.w	r4, #128	; 0x80
1a004b3e:	d108      	bne.n	1a004b52 <Chip_Clock_GetMainPLLHz+0x52>
1a004b40:	b938      	cbnz	r0, 1a004b52 <Chip_Clock_GetMainPLLHz+0x52>
	return (m / (2 * p)) * (freq / n);
1a004b42:	0058      	lsls	r0, r3, #1
1a004b44:	fbb2 f2f0 	udiv	r2, r2, r0
1a004b48:	fbb6 f0f1 	udiv	r0, r6, r1
1a004b4c:	fb00 f002 	mul.w	r0, r0, r2
1a004b50:	e003      	b.n	1a004b5a <Chip_Clock_GetMainPLLHz+0x5a>
		return m * (freq / n);
1a004b52:	fbb6 f0f1 	udiv	r0, r6, r1
1a004b56:	fb02 f000 	mul.w	r0, r2, r0
}
1a004b5a:	b002      	add	sp, #8
1a004b5c:	bd70      	pop	{r4, r5, r6, pc}
1a004b5e:	bf00      	nop
1a004b60:	40050000 	.word	0x40050000
1a004b64:	08040201 	.word	0x08040201

1a004b68 <Chip_Clock_GetDivRate>:
{
1a004b68:	b538      	push	{r3, r4, r5, lr}
1a004b6a:	460c      	mov	r4, r1
	input = Chip_Clock_GetDividerSource(divider);
1a004b6c:	4608      	mov	r0, r1
1a004b6e:	f7ff ff0f 	bl	1a004990 <Chip_Clock_GetDividerSource>
1a004b72:	4605      	mov	r5, r0
	div = Chip_Clock_GetDividerDivisor(divider);
1a004b74:	4620      	mov	r0, r4
1a004b76:	f7ff ff19 	bl	1a0049ac <Chip_Clock_GetDividerDivisor>
1a004b7a:	4604      	mov	r4, r0
	return Chip_Clock_GetClockInputHz(input) / (div + 1);
1a004b7c:	4628      	mov	r0, r5
1a004b7e:	f7ff ff23 	bl	1a0049c8 <Chip_Clock_GetClockInputHz>
1a004b82:	3401      	adds	r4, #1
}
1a004b84:	fbb0 f0f4 	udiv	r0, r0, r4
1a004b88:	bd38      	pop	{r3, r4, r5, pc}
1a004b8a:	Address 0x000000001a004b8a is out of bounds.


1a004b8c <Chip_Clock_SetBaseClock>:
	return Chip_Clock_GetClockInputHz(Chip_Clock_GetBaseClock(clock));
}

/* Sets a CGU Base Clock clock source */
void Chip_Clock_SetBaseClock(CHIP_CGU_BASE_CLK_T BaseClock, CHIP_CGU_CLKIN_T Input, bool autoblocken, bool powerdn)
{
1a004b8c:	b430      	push	{r4, r5}
	uint32_t reg = LPC_CGU->BASE_CLK[BaseClock];
1a004b8e:	f100 0416 	add.w	r4, r0, #22
1a004b92:	00a4      	lsls	r4, r4, #2
1a004b94:	f104 4480 	add.w	r4, r4, #1073741824	; 0x40000000
1a004b98:	f504 24a0 	add.w	r4, r4, #327680	; 0x50000
1a004b9c:	6864      	ldr	r4, [r4, #4]

	if (BaseClock < CLK_BASE_NONE) {
1a004b9e:	281b      	cmp	r0, #27
1a004ba0:	d813      	bhi.n	1a004bca <Chip_Clock_SetBaseClock+0x3e>
		if (Input != CLKINPUT_PD) {
1a004ba2:	2911      	cmp	r1, #17
1a004ba4:	d01a      	beq.n	1a004bdc <Chip_Clock_SetBaseClock+0x50>
			/* Mask off fields we plan to update */
			reg &= ~((0x1F << 24) | 1 | (1 << 11));
1a004ba6:	4d0e      	ldr	r5, [pc, #56]	; (1a004be0 <Chip_Clock_SetBaseClock+0x54>)
1a004ba8:	4025      	ands	r5, r4

			if (autoblocken) {
1a004baa:	b10a      	cbz	r2, 1a004bb0 <Chip_Clock_SetBaseClock+0x24>
				reg |= (1 << 11);
1a004bac:	f445 6500 	orr.w	r5, r5, #2048	; 0x800
			}
			if (powerdn) {
1a004bb0:	b10b      	cbz	r3, 1a004bb6 <Chip_Clock_SetBaseClock+0x2a>
				reg |= (1 << 0);
1a004bb2:	f045 0501 	orr.w	r5, r5, #1
			}

			/* Set clock source */
			reg |= (Input << 24);
1a004bb6:	ea45 6101 	orr.w	r1, r5, r1, lsl #24

			LPC_CGU->BASE_CLK[BaseClock] = reg;
1a004bba:	3016      	adds	r0, #22
1a004bbc:	0080      	lsls	r0, r0, #2
1a004bbe:	f100 4080 	add.w	r0, r0, #1073741824	; 0x40000000
1a004bc2:	f500 20a0 	add.w	r0, r0, #327680	; 0x50000
1a004bc6:	6041      	str	r1, [r0, #4]
1a004bc8:	e008      	b.n	1a004bdc <Chip_Clock_SetBaseClock+0x50>
		}
	}
	else {
		LPC_CGU->BASE_CLK[BaseClock] = reg | 1;	/* Power down this base clock */
1a004bca:	f044 0401 	orr.w	r4, r4, #1
1a004bce:	3016      	adds	r0, #22
1a004bd0:	0080      	lsls	r0, r0, #2
1a004bd2:	f100 4080 	add.w	r0, r0, #1073741824	; 0x40000000
1a004bd6:	f500 20a0 	add.w	r0, r0, #327680	; 0x50000
1a004bda:	6044      	str	r4, [r0, #4]
	}
}
1a004bdc:	bc30      	pop	{r4, r5}
1a004bde:	4770      	bx	lr
1a004be0:	e0fff7fe 	.word	0xe0fff7fe

1a004be4 <Chip_Clock_GetBaseClock>:
/* Gets a CGU Base Clock clock source */
CHIP_CGU_CLKIN_T Chip_Clock_GetBaseClock(CHIP_CGU_BASE_CLK_T BaseClock)
{
	uint32_t reg;

	if (BaseClock >= CLK_BASE_NONE) {
1a004be4:	281b      	cmp	r0, #27
1a004be6:	d80d      	bhi.n	1a004c04 <Chip_Clock_GetBaseClock+0x20>
		return CLKINPUT_PD;
	}

	reg = LPC_CGU->BASE_CLK[BaseClock];
1a004be8:	f100 0316 	add.w	r3, r0, #22
1a004bec:	009b      	lsls	r3, r3, #2
1a004bee:	f103 4380 	add.w	r3, r3, #1073741824	; 0x40000000
1a004bf2:	f503 23a0 	add.w	r3, r3, #327680	; 0x50000
1a004bf6:	6858      	ldr	r0, [r3, #4]

	/* base clock is powered down? */
	if (reg & 1) {
1a004bf8:	f010 0f01 	tst.w	r0, #1
1a004bfc:	d104      	bne.n	1a004c08 <Chip_Clock_GetBaseClock+0x24>
		return CLKINPUT_PD;
	}

	return (CHIP_CGU_CLKIN_T) ((reg >> 24) & 0x1F);
1a004bfe:	f3c0 6004 	ubfx	r0, r0, #24, #5
1a004c02:	4770      	bx	lr
		return CLKINPUT_PD;
1a004c04:	2011      	movs	r0, #17
1a004c06:	4770      	bx	lr
		return CLKINPUT_PD;
1a004c08:	2011      	movs	r0, #17
}
1a004c0a:	4770      	bx	lr

1a004c0c <Chip_Clock_GetBaseClocktHz>:
{
1a004c0c:	b508      	push	{r3, lr}
	return Chip_Clock_GetClockInputHz(Chip_Clock_GetBaseClock(clock));
1a004c0e:	f7ff ffe9 	bl	1a004be4 <Chip_Clock_GetBaseClock>
1a004c12:	f7ff fed9 	bl	1a0049c8 <Chip_Clock_GetClockInputHz>
}
1a004c16:	bd08      	pop	{r3, pc}

1a004c18 <Chip_Clock_EnableOpts>:
/* Enables a peripheral clock and sets clock states */
void Chip_Clock_EnableOpts(CHIP_CCU_CLK_T clk, bool autoen, bool wakeupen, int div)
{
	uint32_t reg = 1;

	if (autoen) {
1a004c18:	b971      	cbnz	r1, 1a004c38 <Chip_Clock_EnableOpts+0x20>
	uint32_t reg = 1;
1a004c1a:	2101      	movs	r1, #1
		reg |= (1 << 1);
	}
	if (wakeupen) {
1a004c1c:	b10a      	cbz	r2, 1a004c22 <Chip_Clock_EnableOpts+0xa>
		reg |= (1 << 2);
1a004c1e:	f041 0104 	orr.w	r1, r1, #4
	}

	/* Not all clocks support a divider, but we won't check that here. Only
	   dividers of 1 and 2 are allowed. Assume 1 if not 2 */
	if (div == 2) {
1a004c22:	2b02      	cmp	r3, #2
1a004c24:	d00a      	beq.n	1a004c3c <Chip_Clock_EnableOpts+0x24>
		reg |= (1 << 5);
	}

	/* Setup peripheral clock and start running */
	if (clk >= CLK_CCU2_START) {
1a004c26:	f5b0 7fa1 	cmp.w	r0, #322	; 0x142
1a004c2a:	d30a      	bcc.n	1a004c42 <Chip_Clock_EnableOpts+0x2a>
		LPC_CCU2->CLKCCU[clk - CLK_CCU2_START].CFG = reg;
1a004c2c:	f5a0 7091 	sub.w	r0, r0, #290	; 0x122
1a004c30:	4b06      	ldr	r3, [pc, #24]	; (1a004c4c <Chip_Clock_EnableOpts+0x34>)
1a004c32:	f843 1030 	str.w	r1, [r3, r0, lsl #3]
1a004c36:	4770      	bx	lr
		reg |= (1 << 1);
1a004c38:	2103      	movs	r1, #3
1a004c3a:	e7ef      	b.n	1a004c1c <Chip_Clock_EnableOpts+0x4>
		reg |= (1 << 5);
1a004c3c:	f041 0120 	orr.w	r1, r1, #32
1a004c40:	e7f1      	b.n	1a004c26 <Chip_Clock_EnableOpts+0xe>
	}
	else {
		LPC_CCU1->CLKCCU[clk].CFG = reg;
1a004c42:	3020      	adds	r0, #32
1a004c44:	4b02      	ldr	r3, [pc, #8]	; (1a004c50 <Chip_Clock_EnableOpts+0x38>)
1a004c46:	f843 1030 	str.w	r1, [r3, r0, lsl #3]
	}
}
1a004c4a:	4770      	bx	lr
1a004c4c:	40052000 	.word	0x40052000
1a004c50:	40051000 	.word	0x40051000

1a004c54 <Chip_Clock_Enable>:

/* Enables a peripheral clock */
void Chip_Clock_Enable(CHIP_CCU_CLK_T clk)
{
	/* Start peripheral clock running */
	if (clk >= CLK_CCU2_START) {
1a004c54:	f5b0 7fa1 	cmp.w	r0, #322	; 0x142
1a004c58:	d309      	bcc.n	1a004c6e <Chip_Clock_Enable+0x1a>
		LPC_CCU2->CLKCCU[clk - CLK_CCU2_START].CFG |= 1;
1a004c5a:	4a09      	ldr	r2, [pc, #36]	; (1a004c80 <Chip_Clock_Enable+0x2c>)
1a004c5c:	f5a0 7091 	sub.w	r0, r0, #290	; 0x122
1a004c60:	f852 3030 	ldr.w	r3, [r2, r0, lsl #3]
1a004c64:	f043 0301 	orr.w	r3, r3, #1
1a004c68:	f842 3030 	str.w	r3, [r2, r0, lsl #3]
1a004c6c:	4770      	bx	lr
	}
	else {
		LPC_CCU1->CLKCCU[clk].CFG |= 1;
1a004c6e:	4a05      	ldr	r2, [pc, #20]	; (1a004c84 <Chip_Clock_Enable+0x30>)
1a004c70:	3020      	adds	r0, #32
1a004c72:	f852 3030 	ldr.w	r3, [r2, r0, lsl #3]
1a004c76:	f043 0301 	orr.w	r3, r3, #1
1a004c7a:	f842 3030 	str.w	r3, [r2, r0, lsl #3]
	}
}
1a004c7e:	4770      	bx	lr
1a004c80:	40052000 	.word	0x40052000
1a004c84:	40051000 	.word	0x40051000

1a004c88 <Chip_Clock_GetRate>:
	LPC_CCU2->PM = 0;
}

/* Returns a peripheral clock rate */
uint32_t Chip_Clock_GetRate(CHIP_CCU_CLK_T clk)
{
1a004c88:	b510      	push	{r4, lr}
1a004c8a:	4603      	mov	r3, r0
	CHIP_CGU_BASE_CLK_T baseclk;
	uint32_t reg, div, rate;

	/* Get CCU config register for clock */
	if (clk >= CLK_CCU2_START) {
1a004c8c:	f5b0 7fa1 	cmp.w	r0, #322	; 0x142
1a004c90:	d308      	bcc.n	1a004ca4 <Chip_Clock_GetRate+0x1c>
		reg = LPC_CCU2->CLKCCU[clk - CLK_CCU2_START].CFG;
1a004c92:	f5a0 7291 	sub.w	r2, r0, #290	; 0x122
1a004c96:	490d      	ldr	r1, [pc, #52]	; (1a004ccc <Chip_Clock_GetRate+0x44>)
1a004c98:	f851 4032 	ldr.w	r4, [r1, r2, lsl #3]
	else {
		reg = LPC_CCU1->CLKCCU[clk].CFG;
	}

	/* Is the clock enabled? */
	if (reg & 1) {
1a004c9c:	f014 0001 	ands.w	r0, r4, #1
1a004ca0:	d106      	bne.n	1a004cb0 <Chip_Clock_GetRate+0x28>
	else {
		rate = 0;
	}

	return rate;
}
1a004ca2:	bd10      	pop	{r4, pc}
		reg = LPC_CCU1->CLKCCU[clk].CFG;
1a004ca4:	f100 0220 	add.w	r2, r0, #32
1a004ca8:	4909      	ldr	r1, [pc, #36]	; (1a004cd0 <Chip_Clock_GetRate+0x48>)
1a004caa:	f851 4032 	ldr.w	r4, [r1, r2, lsl #3]
1a004cae:	e7f5      	b.n	1a004c9c <Chip_Clock_GetRate+0x14>
		baseclk = Chip_Clock_FindBaseClock(clk);
1a004cb0:	4618      	mov	r0, r3
1a004cb2:	f7ff fe23 	bl	1a0048fc <Chip_Clock_FindBaseClock>
		rate = Chip_Clock_GetBaseClocktHz(baseclk);
1a004cb6:	f7ff ffa9 	bl	1a004c0c <Chip_Clock_GetBaseClocktHz>
		if (((reg >> 5) & 0x7) == 0) {
1a004cba:	f014 0fe0 	tst.w	r4, #224	; 0xe0
1a004cbe:	d103      	bne.n	1a004cc8 <Chip_Clock_GetRate+0x40>
			div = 1;
1a004cc0:	2301      	movs	r3, #1
		rate = rate / div;
1a004cc2:	fbb0 f0f3 	udiv	r0, r0, r3
	return rate;
1a004cc6:	e7ec      	b.n	1a004ca2 <Chip_Clock_GetRate+0x1a>
			div = 2;/* No other dividers supported */
1a004cc8:	2302      	movs	r3, #2
1a004cca:	e7fa      	b.n	1a004cc2 <Chip_Clock_GetRate+0x3a>
1a004ccc:	40052000 	.word	0x40052000
1a004cd0:	40051000 	.word	0x40051000

1a004cd4 <Chip_SetupCoreClock>:
/*****************************************************************************
 * Public functions
 ****************************************************************************/
/* Setup Chip Core clock */
void Chip_SetupCoreClock(CHIP_CGU_CLKIN_T clkin, uint32_t core_freq, bool setbase)
{
1a004cd4:	b570      	push	{r4, r5, r6, lr}
1a004cd6:	b08a      	sub	sp, #40	; 0x28
1a004cd8:	4605      	mov	r5, r0
1a004cda:	460e      	mov	r6, r1
1a004cdc:	4614      	mov	r4, r2
	int i;
	volatile uint32_t delay = 10000; // FIXME: original was 500, fix for horrible crystals. @Eric
1a004cde:	f242 7310 	movw	r3, #10000	; 0x2710
1a004ce2:	9309      	str	r3, [sp, #36]	; 0x24
	uint32_t direct = 0, pdivide = 0;
	PLL_PARAM_T ppll;

	if (clkin == CLKIN_CRYSTAL) {
1a004ce4:	2806      	cmp	r0, #6
1a004ce6:	d018      	beq.n	1a004d1a <Chip_SetupCoreClock+0x46>
		/* Switch main system clocking to crystal */
		Chip_Clock_EnableCrystal();
	}
	Chip_Clock_SetBaseClock(CLK_BASE_MX, clkin, true, false);
1a004ce8:	2300      	movs	r3, #0
1a004cea:	2201      	movs	r2, #1
1a004cec:	4629      	mov	r1, r5
1a004cee:	2004      	movs	r0, #4
1a004cf0:	f7ff ff4c 	bl	1a004b8c <Chip_Clock_SetBaseClock>
 * Saves power if the main PLL is not needed.
 */
__STATIC_INLINE void Chip_Clock_DisableMainPLL(void)
{
	/* power down main PLL */
	LPC_CGU->PLL1_CTRL |= 1;
1a004cf4:	4a4a      	ldr	r2, [pc, #296]	; (1a004e20 <Chip_SetupCoreClock+0x14c>)
1a004cf6:	6c53      	ldr	r3, [r2, #68]	; 0x44
1a004cf8:	f043 0301 	orr.w	r3, r3, #1
1a004cfc:	6453      	str	r3, [r2, #68]	; 0x44
	Chip_Clock_DisableMainPLL(); /* Disable PLL */

	/* Calculate the PLL Parameters */
	ppll.srcin = clkin;
1a004cfe:	f88d 5008 	strb.w	r5, [sp, #8]
	Chip_Clock_CalcMainPLLValue(core_freq, &ppll);
1a004d02:	a901      	add	r1, sp, #4
1a004d04:	4630      	mov	r0, r6
1a004d06:	f7ff febb 	bl	1a004a80 <Chip_Clock_CalcMainPLLValue>

	if (core_freq > 110000000UL) {
1a004d0a:	4b46      	ldr	r3, [pc, #280]	; (1a004e24 <Chip_SetupCoreClock+0x150>)
1a004d0c:	429e      	cmp	r6, r3
1a004d0e:	d916      	bls.n	1a004d3e <Chip_SetupCoreClock+0x6a>
		if (ppll.ctrl & (1 << 6)) {
1a004d10:	9b01      	ldr	r3, [sp, #4]
1a004d12:	f013 0f40 	tst.w	r3, #64	; 0x40
1a004d16:	d003      	beq.n	1a004d20 <Chip_SetupCoreClock+0x4c>
			while(1);		// to run in integer mode above 110 MHz, you need to use IDIV clock to boot strap CPU to that freq
1a004d18:	e7fe      	b.n	1a004d18 <Chip_SetupCoreClock+0x44>
		Chip_Clock_EnableCrystal();
1a004d1a:	f7ff fe13 	bl	1a004944 <Chip_Clock_EnableCrystal>
1a004d1e:	e7e3      	b.n	1a004ce8 <Chip_SetupCoreClock+0x14>
		} else if (ppll.ctrl & (1 << 7)){
1a004d20:	f013 0f80 	tst.w	r3, #128	; 0x80
1a004d24:	d005      	beq.n	1a004d32 <Chip_SetupCoreClock+0x5e>
			direct = 1;
			ppll.ctrl &= ~(1 << 7);
1a004d26:	f023 0380 	bic.w	r3, r3, #128	; 0x80
1a004d2a:	9301      	str	r3, [sp, #4]
	uint32_t direct = 0, pdivide = 0;
1a004d2c:	2500      	movs	r5, #0
			direct = 1;
1a004d2e:	2601      	movs	r6, #1
1a004d30:	e007      	b.n	1a004d42 <Chip_SetupCoreClock+0x6e>
		} else {
			pdivide = 1;
			ppll.psel++;
1a004d32:	9b04      	ldr	r3, [sp, #16]
1a004d34:	3301      	adds	r3, #1
1a004d36:	9304      	str	r3, [sp, #16]
			pdivide = 1;
1a004d38:	2501      	movs	r5, #1
	uint32_t direct = 0, pdivide = 0;
1a004d3a:	2600      	movs	r6, #0
1a004d3c:	e001      	b.n	1a004d42 <Chip_SetupCoreClock+0x6e>
1a004d3e:	2500      	movs	r5, #0
1a004d40:	462e      	mov	r6, r5
 * Make sure the main PLL is enabled.
 */
__STATIC_INLINE void Chip_Clock_SetupMainPLL(const PLL_PARAM_T *ppll)
{
	/* power up main PLL */
    LPC_CGU->PLL1_CTRL = ppll->ctrl | ((uint32_t) ppll->srcin << 24) | (ppll->msel << 16) | (ppll->nsel << 12) | (ppll->psel << 8) | ( 1 << 11);	
1a004d42:	f89d 2008 	ldrb.w	r2, [sp, #8]
1a004d46:	9b01      	ldr	r3, [sp, #4]
1a004d48:	ea43 6302 	orr.w	r3, r3, r2, lsl #24
1a004d4c:	9a05      	ldr	r2, [sp, #20]
1a004d4e:	ea43 4302 	orr.w	r3, r3, r2, lsl #16
1a004d52:	9a03      	ldr	r2, [sp, #12]
1a004d54:	ea43 3302 	orr.w	r3, r3, r2, lsl #12
1a004d58:	9a04      	ldr	r2, [sp, #16]
1a004d5a:	ea43 2302 	orr.w	r3, r3, r2, lsl #8
1a004d5e:	f443 6300 	orr.w	r3, r3, #2048	; 0x800
1a004d62:	4a2f      	ldr	r2, [pc, #188]	; (1a004e20 <Chip_SetupCoreClock+0x14c>)
1a004d64:	6453      	str	r3, [r2, #68]	; 0x44
 * @note	The main PLL should be locked prior to using it as a clock input for a base clock.
 */
__STATIC_INLINE int Chip_Clock_MainPLLLocked(void)
{
	/* Return true if locked */
	return (LPC_CGU->PLL1_STAT & 1) != 0;
1a004d66:	4b2e      	ldr	r3, [pc, #184]	; (1a004e20 <Chip_SetupCoreClock+0x14c>)
1a004d68:	6c1b      	ldr	r3, [r3, #64]	; 0x40

	/* Setup and start the PLL */
	Chip_Clock_SetupMainPLL(&ppll);

	/* Wait for the PLL to lock */
	while(!Chip_Clock_MainPLLLocked()) {}
1a004d6a:	f013 0f01 	tst.w	r3, #1
1a004d6e:	d0fa      	beq.n	1a004d66 <Chip_SetupCoreClock+0x92>

	/* Set core clock base as PLL1 */
	Chip_Clock_SetBaseClock(CLK_BASE_MX, CLKIN_MAINPLL, true, false);
1a004d70:	2300      	movs	r3, #0
1a004d72:	2201      	movs	r2, #1
1a004d74:	2109      	movs	r1, #9
1a004d76:	2004      	movs	r0, #4
1a004d78:	f7ff ff08 	bl	1a004b8c <Chip_Clock_SetBaseClock>

	if (direct) {
1a004d7c:	b306      	cbz	r6, 1a004dc0 <Chip_SetupCoreClock+0xec>
		delay = 10000; // FIXME: original was 1000, fix for horrible crystals. @Eric
1a004d7e:	f242 7310 	movw	r3, #10000	; 0x2710
1a004d82:	9309      	str	r3, [sp, #36]	; 0x24
		while(delay --){} /* Wait for approx 50 uSec -- for power supply to stabilize*/
1a004d84:	9b09      	ldr	r3, [sp, #36]	; 0x24
1a004d86:	1e5a      	subs	r2, r3, #1
1a004d88:	9209      	str	r2, [sp, #36]	; 0x24
1a004d8a:	2b00      	cmp	r3, #0
1a004d8c:	d1fa      	bne.n	1a004d84 <Chip_SetupCoreClock+0xb0>
		ppll.ctrl |= 1 << 7;
1a004d8e:	9b01      	ldr	r3, [sp, #4]
1a004d90:	f043 0380 	orr.w	r3, r3, #128	; 0x80
1a004d94:	9301      	str	r3, [sp, #4]
    LPC_CGU->PLL1_CTRL = ppll->ctrl | ((uint32_t) ppll->srcin << 24) | (ppll->msel << 16) | (ppll->nsel << 12) | (ppll->psel << 8) | ( 1 << 11);	
1a004d96:	f89d 2008 	ldrb.w	r2, [sp, #8]
1a004d9a:	ea43 6302 	orr.w	r3, r3, r2, lsl #24
1a004d9e:	9a05      	ldr	r2, [sp, #20]
1a004da0:	ea43 4302 	orr.w	r3, r3, r2, lsl #16
1a004da4:	9a03      	ldr	r2, [sp, #12]
1a004da6:	ea43 3302 	orr.w	r3, r3, r2, lsl #12
1a004daa:	9a04      	ldr	r2, [sp, #16]
1a004dac:	ea43 2302 	orr.w	r3, r3, r2, lsl #8
1a004db0:	f443 6300 	orr.w	r3, r3, #2048	; 0x800
1a004db4:	4a1a      	ldr	r2, [pc, #104]	; (1a004e20 <Chip_SetupCoreClock+0x14c>)
1a004db6:	6453      	str	r3, [r2, #68]	; 0x44
		while(delay --){} /* Wait for approx 50 uSec -- for power supply to stabilize */
		ppll.psel--;
		Chip_Clock_SetupMainPLL(&ppll); /* Set PDIV to operate at full frequency */
	}

	if (setbase) {
1a004db8:	2c00      	cmp	r4, #0
1a004dba:	d12e      	bne.n	1a004e1a <Chip_SetupCoreClock+0x146>
		for (i = 0; i < (sizeof(InitClkStates) / sizeof(InitClkStates[0])); i++) {
			Chip_Clock_SetBaseClock(InitClkStates[i].clk, InitClkStates[i].clkin,
									InitClkStates[i].autoblock_enab, InitClkStates[i].powerdn);
		}
	}
}
1a004dbc:	b00a      	add	sp, #40	; 0x28
1a004dbe:	bd70      	pop	{r4, r5, r6, pc}
	} else if (pdivide) {
1a004dc0:	2d00      	cmp	r5, #0
1a004dc2:	d0f9      	beq.n	1a004db8 <Chip_SetupCoreClock+0xe4>
		delay = 10000; // FIXME: original was 1000, fix for horrible crystals. @Eric
1a004dc4:	f242 7310 	movw	r3, #10000	; 0x2710
1a004dc8:	9309      	str	r3, [sp, #36]	; 0x24
		while(delay --){} /* Wait for approx 50 uSec -- for power supply to stabilize */
1a004dca:	9b09      	ldr	r3, [sp, #36]	; 0x24
1a004dcc:	1e5a      	subs	r2, r3, #1
1a004dce:	9209      	str	r2, [sp, #36]	; 0x24
1a004dd0:	2b00      	cmp	r3, #0
1a004dd2:	d1fa      	bne.n	1a004dca <Chip_SetupCoreClock+0xf6>
		ppll.psel--;
1a004dd4:	9b04      	ldr	r3, [sp, #16]
1a004dd6:	1e5a      	subs	r2, r3, #1
1a004dd8:	9204      	str	r2, [sp, #16]
1a004dda:	f89d 1008 	ldrb.w	r1, [sp, #8]
1a004dde:	9b01      	ldr	r3, [sp, #4]
1a004de0:	ea43 6301 	orr.w	r3, r3, r1, lsl #24
1a004de4:	9905      	ldr	r1, [sp, #20]
1a004de6:	ea43 4301 	orr.w	r3, r3, r1, lsl #16
1a004dea:	9903      	ldr	r1, [sp, #12]
1a004dec:	ea43 3301 	orr.w	r3, r3, r1, lsl #12
1a004df0:	ea43 2302 	orr.w	r3, r3, r2, lsl #8
1a004df4:	f443 6300 	orr.w	r3, r3, #2048	; 0x800
1a004df8:	4a09      	ldr	r2, [pc, #36]	; (1a004e20 <Chip_SetupCoreClock+0x14c>)
1a004dfa:	6453      	str	r3, [r2, #68]	; 0x44
}
1a004dfc:	e7dc      	b.n	1a004db8 <Chip_SetupCoreClock+0xe4>
			Chip_Clock_SetBaseClock(InitClkStates[i].clk, InitClkStates[i].clkin,
1a004dfe:	480a      	ldr	r0, [pc, #40]	; (1a004e28 <Chip_SetupCoreClock+0x154>)
1a004e00:	eb00 0184 	add.w	r1, r0, r4, lsl #2
1a004e04:	78cb      	ldrb	r3, [r1, #3]
1a004e06:	788a      	ldrb	r2, [r1, #2]
1a004e08:	7849      	ldrb	r1, [r1, #1]
1a004e0a:	f810 0024 	ldrb.w	r0, [r0, r4, lsl #2]
1a004e0e:	f7ff febd 	bl	1a004b8c <Chip_Clock_SetBaseClock>
		for (i = 0; i < (sizeof(InitClkStates) / sizeof(InitClkStates[0])); i++) {
1a004e12:	3401      	adds	r4, #1
1a004e14:	2c11      	cmp	r4, #17
1a004e16:	d9f2      	bls.n	1a004dfe <Chip_SetupCoreClock+0x12a>
1a004e18:	e7d0      	b.n	1a004dbc <Chip_SetupCoreClock+0xe8>
1a004e1a:	2400      	movs	r4, #0
1a004e1c:	e7fa      	b.n	1a004e14 <Chip_SetupCoreClock+0x140>
1a004e1e:	bf00      	nop
1a004e20:	40050000 	.word	0x40050000
1a004e24:	068e7780 	.word	0x068e7780
1a004e28:	1a0076b8 	.word	0x1a0076b8

1a004e2c <Chip_I2CM_XferHandler>:
	Chip_I2CM_SetDutyCycle(pI2C, (clockDiv >> 1), (clockDiv - (clockDiv >> 1)));
}

/* Master transfer state change handler handler */
uint32_t Chip_I2CM_XferHandler(LPC_I2C_T *pI2C, I2CM_XFER_T *xfer)
{
1a004e2c:	b410      	push	{r4}
 * @note	I2C controller clears STO bit when it sees STOP
 *          condition after a START condition on the bus.
 */
static INLINE uint32_t Chip_I2CM_GetCurState(LPC_I2C_T *pI2C)
{
	return pI2C->STAT & I2C_STAT_CODE_BITMASK;
1a004e2e:	6843      	ldr	r3, [r0, #4]
1a004e30:	f003 03f8 	and.w	r3, r3, #248	; 0xf8
	uint32_t cclr = I2C_CON_FLAGS;

	switch (Chip_I2CM_GetCurState(pI2C)) {
1a004e34:	2b58      	cmp	r3, #88	; 0x58
1a004e36:	d831      	bhi.n	1a004e9c <Chip_I2CM_XferHandler+0x70>
1a004e38:	2b58      	cmp	r3, #88	; 0x58
1a004e3a:	f200 8089 	bhi.w	1a004f50 <Chip_I2CM_XferHandler+0x124>
1a004e3e:	e8df f003 	tbb	[pc, r3]
1a004e42:	8783      	.short	0x8783
1a004e44:	87878787 	.word	0x87878787
1a004e48:	87318787 	.word	0x87318787
1a004e4c:	87878787 	.word	0x87878787
1a004e50:	87318787 	.word	0x87318787
1a004e54:	87878787 	.word	0x87878787
1a004e58:	874f8787 	.word	0x874f8787
1a004e5c:	87878787 	.word	0x87878787
1a004e60:	87478787 	.word	0x87478787
1a004e64:	87878787 	.word	0x87878787
1a004e68:	874f8787 	.word	0x874f8787
1a004e6c:	87878787 	.word	0x87878787
1a004e70:	87478787 	.word	0x87478787
1a004e74:	87878787 	.word	0x87878787
1a004e78:	877f8787 	.word	0x877f8787
1a004e7c:	87878787 	.word	0x87878787
1a004e80:	87698787 	.word	0x87698787
1a004e84:	87878787 	.word	0x87878787
1a004e88:	877b8787 	.word	0x877b8787
1a004e8c:	87878787 	.word	0x87878787
1a004e90:	87618787 	.word	0x87618787
1a004e94:	87878787 	.word	0x87878787
1a004e98:	8787      	.short	0x8787
1a004e9a:	61          	.byte	0x61
1a004e9b:	00          	.byte	0x00
1a004e9c:	2bf8      	cmp	r3, #248	; 0xf8
1a004e9e:	d157      	bne.n	1a004f50 <Chip_I2CM_XferHandler+0x124>
1a004ea0:	2000      	movs	r0, #0
1a004ea2:	e012      	b.n	1a004eca <Chip_I2CM_XferHandler+0x9e>
	case 0x08:		/* Start condition on bus */
	case 0x10:		/* Repeated start condition */
		pI2C->DAT = (xfer->slaveAddr << 1) | (xfer->txSz == 0);
1a004ea4:	780a      	ldrb	r2, [r1, #0]
1a004ea6:	888b      	ldrh	r3, [r1, #4]
1a004ea8:	fab3 f383 	clz	r3, r3
1a004eac:	095b      	lsrs	r3, r3, #5
1a004eae:	ea43 0342 	orr.w	r3, r3, r2, lsl #1
1a004eb2:	6083      	str	r3, [r0, #8]
	uint32_t cclr = I2C_CON_FLAGS;
1a004eb4:	233c      	movs	r3, #60	; 0x3c
		cclr &= ~I2C_CON_STO;
        break;
	}

	/* Set clear control flags */
	pI2C->CONSET = cclr ^ I2C_CON_FLAGS;
1a004eb6:	f083 023c 	eor.w	r2, r3, #60	; 0x3c
1a004eba:	6002      	str	r2, [r0, #0]
	/* Stop flag should not be cleared as it is a reserved bit */
	pI2C->CONCLR = cclr & (I2C_CON_AA | I2C_CON_SI | I2C_CON_STA);
1a004ebc:	f003 032c 	and.w	r3, r3, #44	; 0x2c
1a004ec0:	6183      	str	r3, [r0, #24]

	return xfer->status != I2CM_STATUS_BUSY;
1a004ec2:	8848      	ldrh	r0, [r1, #2]
1a004ec4:	38ff      	subs	r0, #255	; 0xff
1a004ec6:	bf18      	it	ne
1a004ec8:	2001      	movne	r0, #1
}
1a004eca:	f85d 4b04 	ldr.w	r4, [sp], #4
1a004ece:	4770      	bx	lr
		if ((xfer->options & I2CM_XFER_OPTION_IGNORE_NACK) == 0) {
1a004ed0:	784b      	ldrb	r3, [r1, #1]
1a004ed2:	f013 0f01 	tst.w	r3, #1
1a004ed6:	d103      	bne.n	1a004ee0 <Chip_I2CM_XferHandler+0xb4>
			xfer->status = I2CM_STATUS_NAK;
1a004ed8:	2302      	movs	r3, #2
1a004eda:	804b      	strh	r3, [r1, #2]
			cclr &= ~I2C_CON_STO;
1a004edc:	232c      	movs	r3, #44	; 0x2c
			break;
1a004ede:	e7ea      	b.n	1a004eb6 <Chip_I2CM_XferHandler+0x8a>
		if (!xfer->txSz) {
1a004ee0:	888b      	ldrh	r3, [r1, #4]
1a004ee2:	b92b      	cbnz	r3, 1a004ef0 <Chip_I2CM_XferHandler+0xc4>
			if (xfer->rxSz) {
1a004ee4:	88cb      	ldrh	r3, [r1, #6]
1a004ee6:	2b00      	cmp	r3, #0
1a004ee8:	d136      	bne.n	1a004f58 <Chip_I2CM_XferHandler+0x12c>
				xfer->status = I2CM_STATUS_OK;
1a004eea:	804b      	strh	r3, [r1, #2]
				cclr &= ~I2C_CON_STO;
1a004eec:	232c      	movs	r3, #44	; 0x2c
1a004eee:	e7e2      	b.n	1a004eb6 <Chip_I2CM_XferHandler+0x8a>
			pI2C->DAT = *xfer->txBuff++;
1a004ef0:	688b      	ldr	r3, [r1, #8]
1a004ef2:	1c5a      	adds	r2, r3, #1
1a004ef4:	608a      	str	r2, [r1, #8]
1a004ef6:	781b      	ldrb	r3, [r3, #0]
1a004ef8:	6083      	str	r3, [r0, #8]
			xfer->txSz--;
1a004efa:	888b      	ldrh	r3, [r1, #4]
1a004efc:	3b01      	subs	r3, #1
1a004efe:	808b      	strh	r3, [r1, #4]
	uint32_t cclr = I2C_CON_FLAGS;
1a004f00:	233c      	movs	r3, #60	; 0x3c
1a004f02:	e7d8      	b.n	1a004eb6 <Chip_I2CM_XferHandler+0x8a>
		*xfer->rxBuff++ = pI2C->DAT;
1a004f04:	6882      	ldr	r2, [r0, #8]
1a004f06:	68cb      	ldr	r3, [r1, #12]
1a004f08:	1c5c      	adds	r4, r3, #1
1a004f0a:	60cc      	str	r4, [r1, #12]
1a004f0c:	701a      	strb	r2, [r3, #0]
		xfer->rxSz--;
1a004f0e:	88cb      	ldrh	r3, [r1, #6]
1a004f10:	3b01      	subs	r3, #1
1a004f12:	80cb      	strh	r3, [r1, #6]
		if ((xfer->rxSz > 1) || (xfer->options & I2CM_XFER_OPTION_LAST_RX_ACK)) {
1a004f14:	88ca      	ldrh	r2, [r1, #6]
1a004f16:	2a01      	cmp	r2, #1
1a004f18:	d906      	bls.n	1a004f28 <Chip_I2CM_XferHandler+0xfc>
			cclr &= ~I2C_CON_AA;
1a004f1a:	2338      	movs	r3, #56	; 0x38
		if (xfer->rxSz == 0) {
1a004f1c:	2a00      	cmp	r2, #0
1a004f1e:	d1ca      	bne.n	1a004eb6 <Chip_I2CM_XferHandler+0x8a>
			xfer->status = I2CM_STATUS_OK;
1a004f20:	804a      	strh	r2, [r1, #2]
			cclr &= ~I2C_CON_STO;
1a004f22:	f023 0310 	bic.w	r3, r3, #16
1a004f26:	e7c6      	b.n	1a004eb6 <Chip_I2CM_XferHandler+0x8a>
		if ((xfer->rxSz > 1) || (xfer->options & I2CM_XFER_OPTION_LAST_RX_ACK)) {
1a004f28:	784b      	ldrb	r3, [r1, #1]
1a004f2a:	f013 0f02 	tst.w	r3, #2
1a004f2e:	d101      	bne.n	1a004f34 <Chip_I2CM_XferHandler+0x108>
	uint32_t cclr = I2C_CON_FLAGS;
1a004f30:	233c      	movs	r3, #60	; 0x3c
1a004f32:	e7f3      	b.n	1a004f1c <Chip_I2CM_XferHandler+0xf0>
			cclr &= ~I2C_CON_AA;
1a004f34:	2338      	movs	r3, #56	; 0x38
1a004f36:	e7f1      	b.n	1a004f1c <Chip_I2CM_XferHandler+0xf0>
		xfer->status = I2CM_STATUS_SLAVE_NAK;
1a004f38:	2304      	movs	r3, #4
1a004f3a:	804b      	strh	r3, [r1, #2]
		cclr &= ~I2C_CON_STO;
1a004f3c:	232c      	movs	r3, #44	; 0x2c
		break;
1a004f3e:	e7ba      	b.n	1a004eb6 <Chip_I2CM_XferHandler+0x8a>
		xfer->status = I2CM_STATUS_ARBLOST;
1a004f40:	2305      	movs	r3, #5
1a004f42:	804b      	strh	r3, [r1, #2]
	uint32_t cclr = I2C_CON_FLAGS;
1a004f44:	233c      	movs	r3, #60	; 0x3c
		break;
1a004f46:	e7b6      	b.n	1a004eb6 <Chip_I2CM_XferHandler+0x8a>
		xfer->status = I2CM_STATUS_BUS_ERROR;
1a004f48:	2303      	movs	r3, #3
1a004f4a:	804b      	strh	r3, [r1, #2]
		cclr &= ~I2C_CON_STO;
1a004f4c:	232c      	movs	r3, #44	; 0x2c
        break;
1a004f4e:	e7b2      	b.n	1a004eb6 <Chip_I2CM_XferHandler+0x8a>
		xfer->status = I2CM_STATUS_ERROR;
1a004f50:	2301      	movs	r3, #1
1a004f52:	804b      	strh	r3, [r1, #2]
		cclr &= ~I2C_CON_STO;
1a004f54:	232c      	movs	r3, #44	; 0x2c
        break;
1a004f56:	e7ae      	b.n	1a004eb6 <Chip_I2CM_XferHandler+0x8a>
				cclr &= ~I2C_CON_STA;
1a004f58:	231c      	movs	r3, #28
1a004f5a:	e7ac      	b.n	1a004eb6 <Chip_I2CM_XferHandler+0x8a>

1a004f5c <Chip_I2CM_Xfer>:

/* Transmit and Receive data in master mode */
void Chip_I2CM_Xfer(LPC_I2C_T *pI2C, I2CM_XFER_T *xfer)
{
	/* set the transfer status as busy */
	xfer->status = I2CM_STATUS_BUSY;
1a004f5c:	23ff      	movs	r3, #255	; 0xff
1a004f5e:	804b      	strh	r3, [r1, #2]
	pI2C->CONCLR = I2C_CON_SI | I2C_CON_STA | I2C_CON_AA;
1a004f60:	232c      	movs	r3, #44	; 0x2c
1a004f62:	6183      	str	r3, [r0, #24]
	pI2C->CONSET = I2C_CON_I2EN | I2C_CON_STA;
1a004f64:	2360      	movs	r3, #96	; 0x60
1a004f66:	6003      	str	r3, [r0, #0]
	/* Clear controller state. */
	Chip_I2CM_ResetControl(pI2C);
	/* Enter to Master Transmitter mode */
	Chip_I2CM_SendStart(pI2C);
}
1a004f68:	4770      	bx	lr

1a004f6a <Chip_I2CM_XferBlocking>:

/* Transmit and Receive data in master mode */
uint32_t Chip_I2CM_XferBlocking(LPC_I2C_T *pI2C, I2CM_XFER_T *xfer)
{
1a004f6a:	b538      	push	{r3, r4, r5, lr}
1a004f6c:	4604      	mov	r4, r0
1a004f6e:	460d      	mov	r5, r1
	uint32_t ret = 0;
	/* start transfer */
	Chip_I2CM_Xfer(pI2C, xfer);
1a004f70:	f7ff fff4 	bl	1a004f5c <Chip_I2CM_Xfer>
	uint32_t ret = 0;
1a004f74:	2000      	movs	r0, #0

	while (ret == 0) {
1a004f76:	e007      	b.n	1a004f88 <Chip_I2CM_XferBlocking+0x1e>
	return pI2C->CONSET & I2C_CON_SI;
1a004f78:	6823      	ldr	r3, [r4, #0]
		/* wait for status change interrupt */
		while ( Chip_I2CM_StateChanged(pI2C) == 0) {}
1a004f7a:	f013 0f08 	tst.w	r3, #8
1a004f7e:	d0fb      	beq.n	1a004f78 <Chip_I2CM_XferBlocking+0xe>
		/* call state change handler */
		ret = Chip_I2CM_XferHandler(pI2C, xfer);
1a004f80:	4629      	mov	r1, r5
1a004f82:	4620      	mov	r0, r4
1a004f84:	f7ff ff52 	bl	1a004e2c <Chip_I2CM_XferHandler>
	while (ret == 0) {
1a004f88:	2800      	cmp	r0, #0
1a004f8a:	d0f5      	beq.n	1a004f78 <Chip_I2CM_XferBlocking+0xe>
	}
	return ret;
}
1a004f8c:	bd38      	pop	{r3, r4, r5, pc}
1a004f8e:	Address 0x000000001a004f8e is out of bounds.


1a004f90 <fpuInit>:
 * Public functions
 ****************************************************************************/

/* Early initialization of the FPU */
void fpuInit(void)
{
1a004f90:	b084      	sub	sp, #16
	volatile uint32_t Cpacr;
	volatile uint32_t Mvfr0;
	volatile uint32_t Mvfr1;
	char vfpPresent = 0;

	Mvfr0 = *regMvfr0;
1a004f92:	4b0f      	ldr	r3, [pc, #60]	; (1a004fd0 <fpuInit+0x40>)
1a004f94:	681b      	ldr	r3, [r3, #0]
1a004f96:	9302      	str	r3, [sp, #8]
	Mvfr1 = *regMvfr1;
1a004f98:	4b0e      	ldr	r3, [pc, #56]	; (1a004fd4 <fpuInit+0x44>)
1a004f9a:	681b      	ldr	r3, [r3, #0]
1a004f9c:	9301      	str	r3, [sp, #4]

	vfpPresent = ((SCB_MVFR0_RESET == Mvfr0) && (SCB_MVFR1_RESET == Mvfr1));
1a004f9e:	9a02      	ldr	r2, [sp, #8]
1a004fa0:	4b0d      	ldr	r3, [pc, #52]	; (1a004fd8 <fpuInit+0x48>)
1a004fa2:	429a      	cmp	r2, r3
1a004fa4:	d00c      	beq.n	1a004fc0 <fpuInit+0x30>
1a004fa6:	2300      	movs	r3, #0

	if (vfpPresent) {
1a004fa8:	b143      	cbz	r3, 1a004fbc <fpuInit+0x2c>
		Cpacr = *regCpacr;
1a004faa:	4a0c      	ldr	r2, [pc, #48]	; (1a004fdc <fpuInit+0x4c>)
1a004fac:	6813      	ldr	r3, [r2, #0]
1a004fae:	9303      	str	r3, [sp, #12]
		Cpacr |= (0xF << 20);
1a004fb0:	9b03      	ldr	r3, [sp, #12]
1a004fb2:	f443 0370 	orr.w	r3, r3, #15728640	; 0xf00000
1a004fb6:	9303      	str	r3, [sp, #12]
		*regCpacr = Cpacr;	// enable CP10 and CP11 for full access
1a004fb8:	9b03      	ldr	r3, [sp, #12]
1a004fba:	6013      	str	r3, [r2, #0]
	}
#endif /* __FPU_PRESENT != 0 */
}
1a004fbc:	b004      	add	sp, #16
1a004fbe:	4770      	bx	lr
	vfpPresent = ((SCB_MVFR0_RESET == Mvfr0) && (SCB_MVFR1_RESET == Mvfr1));
1a004fc0:	9a01      	ldr	r2, [sp, #4]
1a004fc2:	4b07      	ldr	r3, [pc, #28]	; (1a004fe0 <fpuInit+0x50>)
1a004fc4:	429a      	cmp	r2, r3
1a004fc6:	d001      	beq.n	1a004fcc <fpuInit+0x3c>
1a004fc8:	2300      	movs	r3, #0
1a004fca:	e7ed      	b.n	1a004fa8 <fpuInit+0x18>
1a004fcc:	2301      	movs	r3, #1
1a004fce:	e7eb      	b.n	1a004fa8 <fpuInit+0x18>
1a004fd0:	e000ef40 	.word	0xe000ef40
1a004fd4:	e000ef44 	.word	0xe000ef44
1a004fd8:	10110021 	.word	0x10110021
1a004fdc:	e000ed88 	.word	0xe000ed88
1a004fe0:	11000011 	.word	0x11000011

1a004fe4 <Chip_RTC_GetFullTime>:
	pRTC->CCR = ccr_val;
}

/* Get full time from the RTC peripheral */
void Chip_RTC_GetFullTime(LPC_RTC_T *pRTC, RTC_TIME_T *pFullTime)
{
1a004fe4:	b410      	push	{r4}
	RTC_TIMEINDEX_T i;
	uint32_t secs = 0xFF;
1a004fe6:	24ff      	movs	r4, #255	; 0xff

	/* Read full time, but verify second tick didn't change during the read. If
	   it did, re-read the time again so it will be consistent across all fields. */
	while (secs != pRTC->TIME[RTC_TIMETYPE_SECOND]) {
1a004fe8:	e009      	b.n	1a004ffe <Chip_RTC_GetFullTime+0x1a>
		secs = pFullTime->time[RTC_TIMETYPE_SECOND] = pRTC->TIME[RTC_TIMETYPE_SECOND];
		for (i = RTC_TIMETYPE_MINUTE; i < RTC_TIMETYPE_LAST; i++) {
			pFullTime->time[i] = pRTC->TIME[i];
1a004fea:	f103 0208 	add.w	r2, r3, #8
1a004fee:	f850 2022 	ldr.w	r2, [r0, r2, lsl #2]
1a004ff2:	f841 2023 	str.w	r2, [r1, r3, lsl #2]
		for (i = RTC_TIMETYPE_MINUTE; i < RTC_TIMETYPE_LAST; i++) {
1a004ff6:	3301      	adds	r3, #1
1a004ff8:	b2db      	uxtb	r3, r3
1a004ffa:	2b07      	cmp	r3, #7
1a004ffc:	d9f5      	bls.n	1a004fea <Chip_RTC_GetFullTime+0x6>
	while (secs != pRTC->TIME[RTC_TIMETYPE_SECOND]) {
1a004ffe:	6a03      	ldr	r3, [r0, #32]
1a005000:	42a3      	cmp	r3, r4
1a005002:	d003      	beq.n	1a00500c <Chip_RTC_GetFullTime+0x28>
		secs = pFullTime->time[RTC_TIMETYPE_SECOND] = pRTC->TIME[RTC_TIMETYPE_SECOND];
1a005004:	6a04      	ldr	r4, [r0, #32]
1a005006:	600c      	str	r4, [r1, #0]
		for (i = RTC_TIMETYPE_MINUTE; i < RTC_TIMETYPE_LAST; i++) {
1a005008:	2301      	movs	r3, #1
1a00500a:	e7f6      	b.n	1a004ffa <Chip_RTC_GetFullTime+0x16>
		}
	}
}
1a00500c:	f85d 4b04 	ldr.w	r4, [sp], #4
1a005010:	4770      	bx	lr

1a005012 <Chip_GPIO_Init>:
 ****************************************************************************/

/* Initialize GPIO block */
void Chip_GPIO_Init(LPC_GPIO_T *pGPIO)
{
}
1a005012:	4770      	bx	lr

1a005014 <SSP_Write2BFifo>:
 * Private functions
 ****************************************************************************/

STATIC void SSP_Write2BFifo(LPC_SSP_T *pSSP, Chip_SSP_DATA_SETUP_T *xf_setup)
{
	if (xf_setup->tx_data) {
1a005014:	680b      	ldr	r3, [r1, #0]
1a005016:	b133      	cbz	r3, 1a005026 <SSP_Write2BFifo+0x12>
		Chip_SSP_SendFrame(pSSP, (*(uint16_t *) ((uint32_t) xf_setup->tx_data +
												 xf_setup->tx_cnt)));
1a005018:	684a      	ldr	r2, [r1, #4]
		Chip_SSP_SendFrame(pSSP, (*(uint16_t *) ((uint32_t) xf_setup->tx_data +
1a00501a:	5a9b      	ldrh	r3, [r3, r2]
 * @param	tx_data	: SSP 16-bit data to be transmited
 * @return	 Nothing
 */
STATIC INLINE void Chip_SSP_SendFrame(LPC_SSP_T *pSSP, uint16_t tx_data)
{
	pSSP->DR = SSP_DR_BITMASK(tx_data);
1a00501c:	6083      	str	r3, [r0, #8]
	}
	else {
		Chip_SSP_SendFrame(pSSP, 0xFFFF);
	}

	xf_setup->tx_cnt += 2;
1a00501e:	684b      	ldr	r3, [r1, #4]
1a005020:	3302      	adds	r3, #2
1a005022:	604b      	str	r3, [r1, #4]
}
1a005024:	4770      	bx	lr
1a005026:	f64f 73ff 	movw	r3, #65535	; 0xffff
1a00502a:	6083      	str	r3, [r0, #8]
}
1a00502c:	e7f7      	b.n	1a00501e <SSP_Write2BFifo+0xa>

1a00502e <SSP_Write1BFifo>:

/** SSP macro: write 1 bytes to FIFO buffer */
STATIC void SSP_Write1BFifo(LPC_SSP_T *pSSP, Chip_SSP_DATA_SETUP_T *xf_setup)
{
	if (xf_setup->tx_data) {
1a00502e:	680b      	ldr	r3, [r1, #0]
1a005030:	b133      	cbz	r3, 1a005040 <SSP_Write1BFifo+0x12>
		Chip_SSP_SendFrame(pSSP, (*(uint8_t *) ((uint32_t) xf_setup->tx_data + xf_setup->tx_cnt)));
1a005032:	684a      	ldr	r2, [r1, #4]
1a005034:	5c9b      	ldrb	r3, [r3, r2]
	pSSP->DR = SSP_DR_BITMASK(tx_data);
1a005036:	6083      	str	r3, [r0, #8]
	}
	else {
		Chip_SSP_SendFrame(pSSP, 0xFF);
	}

	xf_setup->tx_cnt++;
1a005038:	684b      	ldr	r3, [r1, #4]
1a00503a:	3301      	adds	r3, #1
1a00503c:	604b      	str	r3, [r1, #4]
}
1a00503e:	4770      	bx	lr
1a005040:	23ff      	movs	r3, #255	; 0xff
1a005042:	6083      	str	r3, [r0, #8]
}
1a005044:	e7f8      	b.n	1a005038 <SSP_Write1BFifo+0xa>

1a005046 <SSP_Read2BFifo>:
	return (pSSP->SR & Stat) ? SET : RESET;
1a005046:	68c3      	ldr	r3, [r0, #12]
/** SSP macro: read 1 bytes from FIFO buffer */
STATIC void SSP_Read2BFifo(LPC_SSP_T *pSSP, Chip_SSP_DATA_SETUP_T *xf_setup)
{
	uint16_t rDat;

	while ((Chip_SSP_GetStatus(pSSP, SSP_STAT_RNE) == SET) &&
1a005048:	f013 0f04 	tst.w	r3, #4
1a00504c:	d01b      	beq.n	1a005086 <SSP_Read2BFifo+0x40>
		   (xf_setup->rx_cnt < xf_setup->length)) {
1a00504e:	68ca      	ldr	r2, [r1, #12]
1a005050:	690b      	ldr	r3, [r1, #16]
	while ((Chip_SSP_GetStatus(pSSP, SSP_STAT_RNE) == SET) &&
1a005052:	429a      	cmp	r2, r3
1a005054:	d216      	bcs.n	1a005084 <SSP_Read2BFifo+0x3e>
{
1a005056:	b410      	push	{r4}
1a005058:	e00a      	b.n	1a005070 <SSP_Read2BFifo+0x2a>
		rDat = Chip_SSP_ReceiveFrame(pSSP);
		if (xf_setup->rx_data) {
			*(uint16_t *) ((uint32_t) xf_setup->rx_data + xf_setup->rx_cnt) = rDat;
		}

		xf_setup->rx_cnt += 2;
1a00505a:	68cb      	ldr	r3, [r1, #12]
1a00505c:	3302      	adds	r3, #2
1a00505e:	60cb      	str	r3, [r1, #12]
1a005060:	68c3      	ldr	r3, [r0, #12]
	while ((Chip_SSP_GetStatus(pSSP, SSP_STAT_RNE) == SET) &&
1a005062:	f013 0f04 	tst.w	r3, #4
1a005066:	d00a      	beq.n	1a00507e <SSP_Read2BFifo+0x38>
		   (xf_setup->rx_cnt < xf_setup->length)) {
1a005068:	68ca      	ldr	r2, [r1, #12]
1a00506a:	690b      	ldr	r3, [r1, #16]
	while ((Chip_SSP_GetStatus(pSSP, SSP_STAT_RNE) == SET) &&
1a00506c:	429a      	cmp	r2, r3
1a00506e:	d206      	bcs.n	1a00507e <SSP_Read2BFifo+0x38>
	return (uint16_t) (SSP_DR_BITMASK(pSSP->DR));
1a005070:	6883      	ldr	r3, [r0, #8]
1a005072:	b29b      	uxth	r3, r3
		if (xf_setup->rx_data) {
1a005074:	688c      	ldr	r4, [r1, #8]
1a005076:	2c00      	cmp	r4, #0
1a005078:	d0ef      	beq.n	1a00505a <SSP_Read2BFifo+0x14>
			*(uint16_t *) ((uint32_t) xf_setup->rx_data + xf_setup->rx_cnt) = rDat;
1a00507a:	52a3      	strh	r3, [r4, r2]
1a00507c:	e7ed      	b.n	1a00505a <SSP_Read2BFifo+0x14>
	}
}
1a00507e:	f85d 4b04 	ldr.w	r4, [sp], #4
1a005082:	4770      	bx	lr
1a005084:	4770      	bx	lr
1a005086:	4770      	bx	lr

1a005088 <SSP_Read1BFifo>:
	return (pSSP->SR & Stat) ? SET : RESET;
1a005088:	68c3      	ldr	r3, [r0, #12]
/** SSP macro: read 2 bytes from FIFO buffer */
STATIC void SSP_Read1BFifo(LPC_SSP_T *pSSP, Chip_SSP_DATA_SETUP_T *xf_setup)
{
	uint16_t rDat;

	while ((Chip_SSP_GetStatus(pSSP, SSP_STAT_RNE) == SET) &&
1a00508a:	f013 0f04 	tst.w	r3, #4
1a00508e:	d01a      	beq.n	1a0050c6 <SSP_Read1BFifo+0x3e>
		   (xf_setup->rx_cnt < xf_setup->length)) {
1a005090:	68cb      	ldr	r3, [r1, #12]
1a005092:	690a      	ldr	r2, [r1, #16]
	while ((Chip_SSP_GetStatus(pSSP, SSP_STAT_RNE) == SET) &&
1a005094:	4293      	cmp	r3, r2
1a005096:	d215      	bcs.n	1a0050c4 <SSP_Read1BFifo+0x3c>
{
1a005098:	b410      	push	{r4}
1a00509a:	e00a      	b.n	1a0050b2 <SSP_Read1BFifo+0x2a>
		rDat = Chip_SSP_ReceiveFrame(pSSP);
		if (xf_setup->rx_data) {
			*(uint8_t *) ((uint32_t) xf_setup->rx_data + xf_setup->rx_cnt) = rDat;
		}

		xf_setup->rx_cnt++;
1a00509c:	68cb      	ldr	r3, [r1, #12]
1a00509e:	3301      	adds	r3, #1
1a0050a0:	60cb      	str	r3, [r1, #12]
1a0050a2:	68c3      	ldr	r3, [r0, #12]
	while ((Chip_SSP_GetStatus(pSSP, SSP_STAT_RNE) == SET) &&
1a0050a4:	f013 0f04 	tst.w	r3, #4
1a0050a8:	d009      	beq.n	1a0050be <SSP_Read1BFifo+0x36>
		   (xf_setup->rx_cnt < xf_setup->length)) {
1a0050aa:	68cb      	ldr	r3, [r1, #12]
1a0050ac:	690a      	ldr	r2, [r1, #16]
	while ((Chip_SSP_GetStatus(pSSP, SSP_STAT_RNE) == SET) &&
1a0050ae:	4293      	cmp	r3, r2
1a0050b0:	d205      	bcs.n	1a0050be <SSP_Read1BFifo+0x36>
	return (uint16_t) (SSP_DR_BITMASK(pSSP->DR));
1a0050b2:	6884      	ldr	r4, [r0, #8]
		if (xf_setup->rx_data) {
1a0050b4:	688a      	ldr	r2, [r1, #8]
1a0050b6:	2a00      	cmp	r2, #0
1a0050b8:	d0f0      	beq.n	1a00509c <SSP_Read1BFifo+0x14>
			*(uint8_t *) ((uint32_t) xf_setup->rx_data + xf_setup->rx_cnt) = rDat;
1a0050ba:	54d4      	strb	r4, [r2, r3]
1a0050bc:	e7ee      	b.n	1a00509c <SSP_Read1BFifo+0x14>
	}
}
1a0050be:	f85d 4b04 	ldr.w	r4, [sp], #4
1a0050c2:	4770      	bx	lr
1a0050c4:	4770      	bx	lr
1a0050c6:	4770      	bx	lr

1a0050c8 <Chip_SSP_GetClockIndex>:
/* Returns clock index for the register interface */
STATIC CHIP_CCU_CLK_T Chip_SSP_GetClockIndex(LPC_SSP_T *pSSP)
{
	CHIP_CCU_CLK_T clkSSP;

	if (pSSP == LPC_SSP1) {
1a0050c8:	4b03      	ldr	r3, [pc, #12]	; (1a0050d8 <Chip_SSP_GetClockIndex+0x10>)
1a0050ca:	4298      	cmp	r0, r3
1a0050cc:	d001      	beq.n	1a0050d2 <Chip_SSP_GetClockIndex+0xa>
		clkSSP = CLK_MX_SSP1;
	}
	else {
		clkSSP = CLK_MX_SSP0;
1a0050ce:	2083      	movs	r0, #131	; 0x83
	}

	return clkSSP;
}
1a0050d0:	4770      	bx	lr
		clkSSP = CLK_MX_SSP1;
1a0050d2:	20a5      	movs	r0, #165	; 0xa5
1a0050d4:	4770      	bx	lr
1a0050d6:	bf00      	nop
1a0050d8:	400c5000 	.word	0x400c5000

1a0050dc <Chip_SSP_GetPeriphClockIndex>:
/* Returns clock index for the peripheral block */
STATIC CHIP_CCU_CLK_T Chip_SSP_GetPeriphClockIndex(LPC_SSP_T *pSSP)
{
	CHIP_CCU_CLK_T clkSSP;

	if (pSSP == LPC_SSP1) {
1a0050dc:	4b04      	ldr	r3, [pc, #16]	; (1a0050f0 <Chip_SSP_GetPeriphClockIndex+0x14>)
1a0050de:	4298      	cmp	r0, r3
1a0050e0:	d002      	beq.n	1a0050e8 <Chip_SSP_GetPeriphClockIndex+0xc>
		clkSSP = CLK_APB2_SSP1;
	}
	else {
		clkSSP = CLK_APB0_SSP0;
1a0050e2:	f240 2002 	movw	r0, #514	; 0x202
	}

	return clkSSP;
}
1a0050e6:	4770      	bx	lr
		clkSSP = CLK_APB2_SSP1;
1a0050e8:	f44f 70f1 	mov.w	r0, #482	; 0x1e2
1a0050ec:	4770      	bx	lr
1a0050ee:	bf00      	nop
1a0050f0:	400c5000 	.word	0x400c5000

1a0050f4 <Chip_SSP_SetClockRate>:

/*Set up output clocks per bit for SSP bus*/
void Chip_SSP_SetClockRate(LPC_SSP_T *pSSP, uint32_t clk_rate, uint32_t prescale)
{
	uint32_t temp;
	temp = pSSP->CR0 & (~(SSP_CR0_SCR(0xFF)));
1a0050f4:	6803      	ldr	r3, [r0, #0]
1a0050f6:	f423 437f 	bic.w	r3, r3, #65280	; 0xff00
	pSSP->CR0 = temp | (SSP_CR0_SCR(clk_rate));
1a0050fa:	0209      	lsls	r1, r1, #8
1a0050fc:	b289      	uxth	r1, r1
1a0050fe:	4319      	orrs	r1, r3
1a005100:	6001      	str	r1, [r0, #0]
	pSSP->CPSR = prescale;
1a005102:	6102      	str	r2, [r0, #16]
}
1a005104:	4770      	bx	lr

1a005106 <Chip_SSP_RWFrames_Blocking>:

/* SSP Polling Read/Write in blocking mode */
uint32_t Chip_SSP_RWFrames_Blocking(LPC_SSP_T *pSSP, Chip_SSP_DATA_SETUP_T *xf_setup)
{
1a005106:	b570      	push	{r4, r5, r6, lr}
1a005108:	4604      	mov	r4, r0
1a00510a:	460d      	mov	r5, r1
	return (pSSP->SR & Stat) ? SET : RESET;
1a00510c:	68e6      	ldr	r6, [r4, #12]
	/* Clear all remaining frames in RX FIFO */
	while (Chip_SSP_GetStatus(pSSP, SSP_STAT_RNE)) {
1a00510e:	f016 0604 	ands.w	r6, r6, #4
1a005112:	d001      	beq.n	1a005118 <Chip_SSP_RWFrames_Blocking+0x12>
	return (uint16_t) (SSP_DR_BITMASK(pSSP->DR));
1a005114:	68a3      	ldr	r3, [r4, #8]
1a005116:	e7f9      	b.n	1a00510c <Chip_SSP_RWFrames_Blocking+0x6>
	pSSP->ICR = IntClear;
1a005118:	2303      	movs	r3, #3
1a00511a:	6223      	str	r3, [r4, #32]
	return SSP_CR0_DSS(pSSP->CR0);
1a00511c:	6823      	ldr	r3, [r4, #0]
	}

	/* Clear status */
	Chip_SSP_ClearIntPending(pSSP, SSP_INT_CLEAR_BITMASK);

	if (Chip_SSP_GetDataSize(pSSP) > SSP_BITS_8) {
1a00511e:	f013 0f08 	tst.w	r3, #8
1a005122:	d108      	bne.n	1a005136 <Chip_SSP_RWFrames_Blocking+0x30>
1a005124:	e022      	b.n	1a00516c <Chip_SSP_RWFrames_Blocking+0x66>
	return (pSSP->RIS & RawInt) ? SET : RESET;
1a005126:	69a3      	ldr	r3, [r4, #24]
			if (( Chip_SSP_GetStatus(pSSP, SSP_STAT_TNF) == SET) && ( xf_setup->tx_cnt < xf_setup->length) ) {
				SSP_Write2BFifo(pSSP, xf_setup);
			}

			/* Check overrun error */
			if (Chip_SSP_GetRawIntStatus(pSSP, SSP_RORRIS) == SET) {
1a005128:	f013 0f01 	tst.w	r3, #1
1a00512c:	d134      	bne.n	1a005198 <Chip_SSP_RWFrames_Blocking+0x92>
				return ERROR;
			}

			/* Check for any data available in RX FIFO */
			SSP_Read2BFifo(pSSP, xf_setup);
1a00512e:	4629      	mov	r1, r5
1a005130:	4620      	mov	r0, r4
1a005132:	f7ff ff88 	bl	1a005046 <SSP_Read2BFifo>
		while (xf_setup->rx_cnt < xf_setup->length || xf_setup->tx_cnt < xf_setup->length) {
1a005136:	68ea      	ldr	r2, [r5, #12]
1a005138:	692b      	ldr	r3, [r5, #16]
1a00513a:	429a      	cmp	r2, r3
1a00513c:	d302      	bcc.n	1a005144 <Chip_SSP_RWFrames_Blocking+0x3e>
1a00513e:	686a      	ldr	r2, [r5, #4]
1a005140:	4293      	cmp	r3, r2
1a005142:	d926      	bls.n	1a005192 <Chip_SSP_RWFrames_Blocking+0x8c>
	return (pSSP->SR & Stat) ? SET : RESET;
1a005144:	68e2      	ldr	r2, [r4, #12]
			if (( Chip_SSP_GetStatus(pSSP, SSP_STAT_TNF) == SET) && ( xf_setup->tx_cnt < xf_setup->length) ) {
1a005146:	f012 0f02 	tst.w	r2, #2
1a00514a:	d0ec      	beq.n	1a005126 <Chip_SSP_RWFrames_Blocking+0x20>
1a00514c:	686a      	ldr	r2, [r5, #4]
1a00514e:	429a      	cmp	r2, r3
1a005150:	d2e9      	bcs.n	1a005126 <Chip_SSP_RWFrames_Blocking+0x20>
				SSP_Write2BFifo(pSSP, xf_setup);
1a005152:	4629      	mov	r1, r5
1a005154:	4620      	mov	r0, r4
1a005156:	f7ff ff5d 	bl	1a005014 <SSP_Write2BFifo>
1a00515a:	e7e4      	b.n	1a005126 <Chip_SSP_RWFrames_Blocking+0x20>
	return (pSSP->RIS & RawInt) ? SET : RESET;
1a00515c:	69a3      	ldr	r3, [r4, #24]
			if (( Chip_SSP_GetStatus(pSSP, SSP_STAT_TNF) == SET) && ( xf_setup->tx_cnt < xf_setup->length) ) {
				SSP_Write1BFifo(pSSP, xf_setup);
			}

			/* Check overrun error */
			if (Chip_SSP_GetRawIntStatus(pSSP, SSP_RORRIS) == SET) {
1a00515e:	f013 0f01 	tst.w	r3, #1
1a005162:	d119      	bne.n	1a005198 <Chip_SSP_RWFrames_Blocking+0x92>
				return ERROR;
			}

			/* Check for any data available in RX FIFO */
			SSP_Read1BFifo(pSSP, xf_setup);
1a005164:	4629      	mov	r1, r5
1a005166:	4620      	mov	r0, r4
1a005168:	f7ff ff8e 	bl	1a005088 <SSP_Read1BFifo>
		while (xf_setup->rx_cnt < xf_setup->length || xf_setup->tx_cnt < xf_setup->length) {
1a00516c:	68ea      	ldr	r2, [r5, #12]
1a00516e:	692b      	ldr	r3, [r5, #16]
1a005170:	429a      	cmp	r2, r3
1a005172:	d302      	bcc.n	1a00517a <Chip_SSP_RWFrames_Blocking+0x74>
1a005174:	686a      	ldr	r2, [r5, #4]
1a005176:	4293      	cmp	r3, r2
1a005178:	d90b      	bls.n	1a005192 <Chip_SSP_RWFrames_Blocking+0x8c>
	return (pSSP->SR & Stat) ? SET : RESET;
1a00517a:	68e2      	ldr	r2, [r4, #12]
			if (( Chip_SSP_GetStatus(pSSP, SSP_STAT_TNF) == SET) && ( xf_setup->tx_cnt < xf_setup->length) ) {
1a00517c:	f012 0f02 	tst.w	r2, #2
1a005180:	d0ec      	beq.n	1a00515c <Chip_SSP_RWFrames_Blocking+0x56>
1a005182:	686a      	ldr	r2, [r5, #4]
1a005184:	429a      	cmp	r2, r3
1a005186:	d2e9      	bcs.n	1a00515c <Chip_SSP_RWFrames_Blocking+0x56>
				SSP_Write1BFifo(pSSP, xf_setup);
1a005188:	4629      	mov	r1, r5
1a00518a:	4620      	mov	r0, r4
1a00518c:	f7ff ff4f 	bl	1a00502e <SSP_Write1BFifo>
1a005190:	e7e4      	b.n	1a00515c <Chip_SSP_RWFrames_Blocking+0x56>
		}
	}
	if (xf_setup->tx_data) {
1a005192:	682b      	ldr	r3, [r5, #0]
1a005194:	b113      	cbz	r3, 1a00519c <Chip_SSP_RWFrames_Blocking+0x96>
		return xf_setup->tx_cnt;
1a005196:	686e      	ldr	r6, [r5, #4]
	else if (xf_setup->rx_data) {
		return xf_setup->rx_cnt;
	}

	return 0;
}
1a005198:	4630      	mov	r0, r6
1a00519a:	bd70      	pop	{r4, r5, r6, pc}
	else if (xf_setup->rx_data) {
1a00519c:	68ab      	ldr	r3, [r5, #8]
1a00519e:	2b00      	cmp	r3, #0
1a0051a0:	d0fa      	beq.n	1a005198 <Chip_SSP_RWFrames_Blocking+0x92>
		return xf_setup->rx_cnt;
1a0051a2:	68ee      	ldr	r6, [r5, #12]
1a0051a4:	e7f8      	b.n	1a005198 <Chip_SSP_RWFrames_Blocking+0x92>

1a0051a6 <Chip_SSP_SetBitRate>:
	}
}

/* Set the clock frequency for SSP interface */
void Chip_SSP_SetBitRate(LPC_SSP_T *pSSP, uint32_t bitRate)
{
1a0051a6:	b570      	push	{r4, r5, r6, lr}
1a0051a8:	4606      	mov	r6, r0
1a0051aa:	460c      	mov	r4, r1
	uint32_t ssp_clk, cr0_div, cmp_clk, prescale;

	ssp_clk = Chip_Clock_GetRate(Chip_SSP_GetPeriphClockIndex(pSSP));
1a0051ac:	f7ff ff96 	bl	1a0050dc <Chip_SSP_GetPeriphClockIndex>
1a0051b0:	f7ff fd6a 	bl	1a004c88 <Chip_Clock_GetRate>

	cr0_div = 0;
	cmp_clk = 0xFFFFFFFF;
	prescale = 2;
1a0051b4:	2202      	movs	r2, #2
	cmp_clk = 0xFFFFFFFF;
1a0051b6:	f04f 33ff 	mov.w	r3, #4294967295	; 0xffffffff
	cr0_div = 0;
1a0051ba:	2100      	movs	r1, #0

	while (cmp_clk > bitRate) {
1a0051bc:	e000      	b.n	1a0051c0 <Chip_SSP_SetBitRate+0x1a>
		cmp_clk = ssp_clk / ((cr0_div + 1) * prescale);
		if (cmp_clk > bitRate) {
			cr0_div++;
1a0051be:	4629      	mov	r1, r5
	while (cmp_clk > bitRate) {
1a0051c0:	42a3      	cmp	r3, r4
1a0051c2:	d90b      	bls.n	1a0051dc <Chip_SSP_SetBitRate+0x36>
		cmp_clk = ssp_clk / ((cr0_div + 1) * prescale);
1a0051c4:	1c4d      	adds	r5, r1, #1
1a0051c6:	fb01 2302 	mla	r3, r1, r2, r2
1a0051ca:	fbb0 f3f3 	udiv	r3, r0, r3
		if (cmp_clk > bitRate) {
1a0051ce:	429c      	cmp	r4, r3
1a0051d0:	d2f6      	bcs.n	1a0051c0 <Chip_SSP_SetBitRate+0x1a>
			if (cr0_div > 0xFF) {
1a0051d2:	2dff      	cmp	r5, #255	; 0xff
1a0051d4:	d9f3      	bls.n	1a0051be <Chip_SSP_SetBitRate+0x18>
				cr0_div = 0;
				prescale += 2;
1a0051d6:	3202      	adds	r2, #2
				cr0_div = 0;
1a0051d8:	2100      	movs	r1, #0
1a0051da:	e7f1      	b.n	1a0051c0 <Chip_SSP_SetBitRate+0x1a>
			}
		}
	}

	Chip_SSP_SetClockRate(pSSP, cr0_div, prescale);
1a0051dc:	4630      	mov	r0, r6
1a0051de:	f7ff ff89 	bl	1a0050f4 <Chip_SSP_SetClockRate>
}
1a0051e2:	bd70      	pop	{r4, r5, r6, pc}

1a0051e4 <Chip_SSP_Init>:

/* Initialize the SSP */
void Chip_SSP_Init(LPC_SSP_T *pSSP)
{
1a0051e4:	b510      	push	{r4, lr}
1a0051e6:	4604      	mov	r4, r0
	Chip_Clock_Enable(Chip_SSP_GetClockIndex(pSSP));
1a0051e8:	f7ff ff6e 	bl	1a0050c8 <Chip_SSP_GetClockIndex>
1a0051ec:	f7ff fd32 	bl	1a004c54 <Chip_Clock_Enable>
	Chip_Clock_Enable(Chip_SSP_GetPeriphClockIndex(pSSP));
1a0051f0:	4620      	mov	r0, r4
1a0051f2:	f7ff ff73 	bl	1a0050dc <Chip_SSP_GetPeriphClockIndex>
1a0051f6:	f7ff fd2d 	bl	1a004c54 <Chip_Clock_Enable>
 *						- SSP_MODE_SLAVE
 * @return	 Nothing
 */
STATIC INLINE void Chip_SSP_Set_Mode(LPC_SSP_T *pSSP, uint32_t mode)
{
	pSSP->CR1 = (pSSP->CR1 & ~(1 << 2)) | mode;
1a0051fa:	6863      	ldr	r3, [r4, #4]
1a0051fc:	f023 0304 	bic.w	r3, r3, #4
1a005200:	6063      	str	r3, [r4, #4]
	pSSP->CR0 = (pSSP->CR0 & ~0xFF) | bits | frameFormat | clockMode;
1a005202:	6823      	ldr	r3, [r4, #0]
1a005204:	f023 03ff 	bic.w	r3, r3, #255	; 0xff
1a005208:	f043 0307 	orr.w	r3, r3, #7
1a00520c:	6023      	str	r3, [r4, #0]

	Chip_SSP_Set_Mode(pSSP, SSP_MODE_MASTER);
	Chip_SSP_SetFormat(pSSP, SSP_BITS_8, SSP_FRAMEFORMAT_SPI, SSP_CLOCK_CPHA0_CPOL0);
	Chip_SSP_SetBitRate(pSSP, 100000);
1a00520e:	4902      	ldr	r1, [pc, #8]	; (1a005218 <Chip_SSP_Init+0x34>)
1a005210:	4620      	mov	r0, r4
1a005212:	f7ff ffc8 	bl	1a0051a6 <Chip_SSP_SetBitRate>
}
1a005216:	bd10      	pop	{r4, pc}
1a005218:	000186a0 	.word	0x000186a0

1a00521c <ResetISR>:
void ResetISR(void) {
1a00521c:	b510      	push	{r4, lr}
    __asm volatile ("cpsid i");
1a00521e:	b672      	cpsid	i
    *(RESET_CONTROL + 0) = 0x10DF1000;
1a005220:	4b18      	ldr	r3, [pc, #96]	; (1a005284 <ResetISR+0x68>)
1a005222:	4a19      	ldr	r2, [pc, #100]	; (1a005288 <ResetISR+0x6c>)
1a005224:	601a      	str	r2, [r3, #0]
    *(RESET_CONTROL + 1) = 0x01DFF7FF;
1a005226:	3304      	adds	r3, #4
1a005228:	4a18      	ldr	r2, [pc, #96]	; (1a00528c <ResetISR+0x70>)
1a00522a:	601a      	str	r2, [r3, #0]
    for (irqpendloop = 0; irqpendloop < 8; irqpendloop++) {
1a00522c:	2300      	movs	r3, #0
1a00522e:	e005      	b.n	1a00523c <ResetISR+0x20>
        *(NVIC_ICPR + irqpendloop) = 0xFFFFFFFF;
1a005230:	4a17      	ldr	r2, [pc, #92]	; (1a005290 <ResetISR+0x74>)
1a005232:	f04f 31ff 	mov.w	r1, #4294967295	; 0xffffffff
1a005236:	f842 1023 	str.w	r1, [r2, r3, lsl #2]
    for (irqpendloop = 0; irqpendloop < 8; irqpendloop++) {
1a00523a:	3301      	adds	r3, #1
1a00523c:	2b07      	cmp	r3, #7
1a00523e:	d9f7      	bls.n	1a005230 <ResetISR+0x14>
    __asm volatile ("cpsie i");
1a005240:	b662      	cpsie	i
    SystemInit();
1a005242:	f7ff f819 	bl	1a004278 <SystemInit>
    SectionTableAddr = &__data_section_table;
1a005246:	4b13      	ldr	r3, [pc, #76]	; (1a005294 <ResetISR+0x78>)
    while (SectionTableAddr < &__data_section_table_end) {
1a005248:	e007      	b.n	1a00525a <ResetISR+0x3e>
        SectionLen = *SectionTableAddr++;
1a00524a:	f103 040c 	add.w	r4, r3, #12
        data_init(LoadAddr, ExeAddr, SectionLen);
1a00524e:	689a      	ldr	r2, [r3, #8]
1a005250:	6859      	ldr	r1, [r3, #4]
1a005252:	6818      	ldr	r0, [r3, #0]
1a005254:	f7fa ff9f 	bl	1a000196 <data_init>
        SectionLen = *SectionTableAddr++;
1a005258:	4623      	mov	r3, r4
    while (SectionTableAddr < &__data_section_table_end) {
1a00525a:	4a0f      	ldr	r2, [pc, #60]	; (1a005298 <ResetISR+0x7c>)
1a00525c:	4293      	cmp	r3, r2
1a00525e:	d3f4      	bcc.n	1a00524a <ResetISR+0x2e>
1a005260:	e006      	b.n	1a005270 <ResetISR+0x54>
        ExeAddr = *SectionTableAddr++;
1a005262:	461c      	mov	r4, r3
        bss_init(ExeAddr, SectionLen);
1a005264:	6859      	ldr	r1, [r3, #4]
1a005266:	f854 0b08 	ldr.w	r0, [r4], #8
1a00526a:	f7fa ffa3 	bl	1a0001b4 <bss_init>
        SectionLen = *SectionTableAddr++;
1a00526e:	4623      	mov	r3, r4
    while (SectionTableAddr < &__bss_section_table_end) {
1a005270:	4a0a      	ldr	r2, [pc, #40]	; (1a00529c <ResetISR+0x80>)
1a005272:	4293      	cmp	r3, r2
1a005274:	d3f5      	bcc.n	1a005262 <ResetISR+0x46>
    __libc_init_array();
1a005276:	f000 fead 	bl	1a005fd4 <__libc_init_array>
    Board_Init(); // From Board module (modules/lpc4337_m4/board)
1a00527a:	f7fe ffd9 	bl	1a004230 <Board_Init>
    main();
1a00527e:	f7fb fa0b 	bl	1a000698 <main>
    while (1) {
1a005282:	e7fe      	b.n	1a005282 <ResetISR+0x66>
1a005284:	40053100 	.word	0x40053100
1a005288:	10df1000 	.word	0x10df1000
1a00528c:	01dff7ff 	.word	0x01dff7ff
1a005290:	e000e280 	.word	0xe000e280
1a005294:	1a000114 	.word	0x1a000114
1a005298:	1a000150 	.word	0x1a000150
1a00529c:	1a000178 	.word	0x1a000178

1a0052a0 <_init>:
void _init(void) {}
1a0052a0:	4770      	bx	lr
1a0052a2:	Address 0x000000001a0052a2 is out of bounds.


1a0052a4 <newCardStatus>:
static FSSDC_StatusUpdateCallback_Func  g_statusUpdateCallback = NULL;
static enum FSSDC_CardStatus            g_cardStatus = FSSDC_CardStatus_Removed;


static void newCardStatus (enum FSSDC_CardStatus cardStatus)
{
1a0052a4:	b508      	push	{r3, lr}
    g_cardStatus = cardStatus;
1a0052a6:	4b03      	ldr	r3, [pc, #12]	; (1a0052b4 <newCardStatus+0x10>)
1a0052a8:	7018      	strb	r0, [r3, #0]
    if (g_statusUpdateCallback)
1a0052aa:	4b03      	ldr	r3, [pc, #12]	; (1a0052b8 <newCardStatus+0x14>)
1a0052ac:	681b      	ldr	r3, [r3, #0]
1a0052ae:	b103      	cbz	r3, 1a0052b2 <newCardStatus+0xe>
    {
        g_statusUpdateCallback (g_cardStatus);
1a0052b0:	4798      	blx	r3
    }
}
1a0052b2:	bd08      	pop	{r3, pc}
1a0052b4:	100000c8 	.word	0x100000c8
1a0052b8:	100005f4 	.word	0x100005f4

1a0052bc <chk_power>:

static
int chk_power(void)		/* Socket power state: 0=off, 1=on */
{
	return 1;
}
1a0052bc:	2001      	movs	r0, #1
1a0052be:	4770      	bx	lr

1a0052c0 <SSPSend>:
{
1a0052c0:	b500      	push	{lr}
1a0052c2:	b087      	sub	sp, #28
	xferConfig.tx_data = buf;
1a0052c4:	9001      	str	r0, [sp, #4]
	xferConfig.tx_cnt  = 0;
1a0052c6:	2300      	movs	r3, #0
1a0052c8:	9302      	str	r3, [sp, #8]
	xferConfig.rx_data = NULL;
1a0052ca:	9303      	str	r3, [sp, #12]
	xferConfig.rx_cnt  = 0;
1a0052cc:	9304      	str	r3, [sp, #16]
	xferConfig.length  = Length;
1a0052ce:	9105      	str	r1, [sp, #20]
	Chip_SSP_RWFrames_Blocking(LPC_SSP1, &xferConfig);
1a0052d0:	a901      	add	r1, sp, #4
1a0052d2:	4803      	ldr	r0, [pc, #12]	; (1a0052e0 <SSPSend+0x20>)
1a0052d4:	f7ff ff17 	bl	1a005106 <Chip_SSP_RWFrames_Blocking>
}
1a0052d8:	b007      	add	sp, #28
1a0052da:	f85d fb04 	ldr.w	pc, [sp], #4
1a0052de:	bf00      	nop
1a0052e0:	400c5000 	.word	0x400c5000

1a0052e4 <xmit_spi>:
{
1a0052e4:	b500      	push	{lr}
1a0052e6:	b083      	sub	sp, #12
1a0052e8:	f88d 0007 	strb.w	r0, [sp, #7]
    SSPSend((uint8_t*) &dat, 1);
1a0052ec:	2101      	movs	r1, #1
1a0052ee:	f10d 0007 	add.w	r0, sp, #7
1a0052f2:	f7ff ffe5 	bl	1a0052c0 <SSPSend>
}
1a0052f6:	b003      	add	sp, #12
1a0052f8:	f85d fb04 	ldr.w	pc, [sp], #4

1a0052fc <SSPReceive>:
{
1a0052fc:	b500      	push	{lr}
1a0052fe:	b087      	sub	sp, #28
	xferConfig.tx_data = NULL;
1a005300:	2300      	movs	r3, #0
1a005302:	9301      	str	r3, [sp, #4]
	xferConfig.tx_cnt  = 0;
1a005304:	9302      	str	r3, [sp, #8]
	xferConfig.rx_data = buf;
1a005306:	9003      	str	r0, [sp, #12]
	xferConfig.rx_cnt  = 0;
1a005308:	9304      	str	r3, [sp, #16]
	xferConfig.length  = Length;
1a00530a:	9105      	str	r1, [sp, #20]
	Chip_SSP_RWFrames_Blocking(LPC_SSP1, &xferConfig);
1a00530c:	a901      	add	r1, sp, #4
1a00530e:	4803      	ldr	r0, [pc, #12]	; (1a00531c <SSPReceive+0x20>)
1a005310:	f7ff fef9 	bl	1a005106 <Chip_SSP_RWFrames_Blocking>
}
1a005314:	b007      	add	sp, #28
1a005316:	f85d fb04 	ldr.w	pc, [sp], #4
1a00531a:	bf00      	nop
1a00531c:	400c5000 	.word	0x400c5000

1a005320 <rcvr_spi>:
{
1a005320:	b500      	push	{lr}
1a005322:	b083      	sub	sp, #12
    BYTE data = 0;
1a005324:	2300      	movs	r3, #0
1a005326:	f88d 3007 	strb.w	r3, [sp, #7]
    SSPReceive(&data, 1);
1a00532a:	2101      	movs	r1, #1
1a00532c:	f10d 0007 	add.w	r0, sp, #7
1a005330:	f7ff ffe4 	bl	1a0052fc <SSPReceive>
}
1a005334:	f89d 0007 	ldrb.w	r0, [sp, #7]
1a005338:	b003      	add	sp, #12
1a00533a:	f85d fb04 	ldr.w	pc, [sp], #4
1a00533e:	Address 0x000000001a00533e is out of bounds.


1a005340 <wait_ready>:
{
1a005340:	b508      	push	{r3, lr}
	Timer2 = 50;	/* Wait for ready in timeout of 500ms */
1a005342:	4b07      	ldr	r3, [pc, #28]	; (1a005360 <wait_ready+0x20>)
1a005344:	2232      	movs	r2, #50	; 0x32
1a005346:	701a      	strb	r2, [r3, #0]
	rcvr_spi();
1a005348:	f7ff ffea 	bl	1a005320 <rcvr_spi>
		res = rcvr_spi();
1a00534c:	f7ff ffe8 	bl	1a005320 <rcvr_spi>
	while ((res != 0xFF) && Timer2);
1a005350:	28ff      	cmp	r0, #255	; 0xff
1a005352:	d003      	beq.n	1a00535c <wait_ready+0x1c>
1a005354:	4b02      	ldr	r3, [pc, #8]	; (1a005360 <wait_ready+0x20>)
1a005356:	781b      	ldrb	r3, [r3, #0]
1a005358:	2b00      	cmp	r3, #0
1a00535a:	d1f7      	bne.n	1a00534c <wait_ready+0xc>
}
1a00535c:	bd08      	pop	{r3, pc}
1a00535e:	bf00      	nop
1a005360:	100005f2 	.word	0x100005f2

1a005364 <deselect>:
{
1a005364:	b508      	push	{r3, lr}
 * @note	Any bit set as a '0' will not have it's state changed. This only
 * applies to ports configured as an output.
 */
STATIC INLINE void Chip_GPIO_SetPinOutHigh(LPC_GPIO_T *pGPIO, uint8_t port, uint8_t pin)
{
	pGPIO->SET[port] = (1 << pin);
1a005366:	4a04      	ldr	r2, [pc, #16]	; (1a005378 <deselect+0x14>)
1a005368:	f242 2314 	movw	r3, #8724	; 0x2214
1a00536c:	f44f 4100 	mov.w	r1, #32768	; 0x8000
1a005370:	50d1      	str	r1, [r2, r3]
	rcvr_spi();
1a005372:	f7ff ffd5 	bl	1a005320 <rcvr_spi>
}
1a005376:	bd08      	pop	{r3, pc}
1a005378:	400f4000 	.word	0x400f4000

1a00537c <select_>:
{
1a00537c:	b508      	push	{r3, lr}
 * @note	Any bit set as a '0' will not have it's state changed. This only
 * applies to ports configured as an output.
 */
STATIC INLINE void Chip_GPIO_SetPinOutLow(LPC_GPIO_T *pGPIO, uint8_t port, uint8_t pin)
{
	pGPIO->CLR[port] = (1 << pin);
1a00537e:	4a08      	ldr	r2, [pc, #32]	; (1a0053a0 <select_+0x24>)
1a005380:	f242 2394 	movw	r3, #8852	; 0x2294
1a005384:	f44f 4100 	mov.w	r1, #32768	; 0x8000
1a005388:	50d1      	str	r1, [r2, r3]
	if (wait_ready() != 0xFF) {
1a00538a:	f7ff ffd9 	bl	1a005340 <wait_ready>
1a00538e:	28ff      	cmp	r0, #255	; 0xff
1a005390:	d101      	bne.n	1a005396 <select_+0x1a>
	return TRUE;
1a005392:	2001      	movs	r0, #1
}
1a005394:	bd08      	pop	{r3, pc}
		deselect();
1a005396:	f7ff ffe5 	bl	1a005364 <deselect>
		return FALSE;
1a00539a:	2000      	movs	r0, #0
1a00539c:	e7fa      	b.n	1a005394 <select_+0x18>
1a00539e:	bf00      	nop
1a0053a0:	400f4000 	.word	0x400f4000

1a0053a4 <send_cmd>:
static
BYTE send_cmd (
	BYTE cmd,		/* Command byte */
	DWORD arg		/* Argument */
)
{
1a0053a4:	b538      	push	{r3, r4, r5, lr}
1a0053a6:	4604      	mov	r4, r0
1a0053a8:	460d      	mov	r5, r1
	BYTE n, res;


    if (cmd & 0x80)                     /* ACMD<n> is the command sequense of CMD55-CMD<n> */
1a0053aa:	f010 0f80 	tst.w	r0, #128	; 0x80
1a0053ae:	d129      	bne.n	1a005404 <send_cmd+0x60>
		res = send_cmd(CMD55, 0);
		if (res > 1) return res;
	}

	/* Select the card and wait for ready */
	deselect();
1a0053b0:	f7ff ffd8 	bl	1a005364 <deselect>
	if (!select_()) 
1a0053b4:	f7ff ffe2 	bl	1a00537c <select_>
1a0053b8:	b3a0      	cbz	r0, 1a005424 <send_cmd+0x80>
    {
        return 0xFF;
    }

	/* Send command packet */
	xmit_spi(cmd);						/* Start + Command index */
1a0053ba:	4620      	mov	r0, r4
1a0053bc:	f7ff ff92 	bl	1a0052e4 <xmit_spi>
	xmit_spi((BYTE)(arg >> 24));		/* Argument[31..24] */
1a0053c0:	0e28      	lsrs	r0, r5, #24
1a0053c2:	f7ff ff8f 	bl	1a0052e4 <xmit_spi>
	xmit_spi((BYTE)(arg >> 16));		/* Argument[23..16] */
1a0053c6:	f3c5 4007 	ubfx	r0, r5, #16, #8
1a0053ca:	f7ff ff8b 	bl	1a0052e4 <xmit_spi>
	xmit_spi((BYTE)(arg >> 8));			/* Argument[15..8] */
1a0053ce:	f3c5 2007 	ubfx	r0, r5, #8, #8
1a0053d2:	f7ff ff87 	bl	1a0052e4 <xmit_spi>
	xmit_spi((BYTE)arg);				/* Argument[7..0] */
1a0053d6:	b2e8      	uxtb	r0, r5
1a0053d8:	f7ff ff84 	bl	1a0052e4 <xmit_spi>
	n = 0x01;							/* Dummy CRC + Stop */
    
	if (cmd == CMD0_) 
1a0053dc:	2c40      	cmp	r4, #64	; 0x40
1a0053de:	d01a      	beq.n	1a005416 <send_cmd+0x72>
	n = 0x01;							/* Dummy CRC + Stop */
1a0053e0:	2001      	movs	r0, #1
    {
        n = 0x95;                       /* Valid CRC for CMD0_(0) */
    }
    
	if (cmd == CMD8)
1a0053e2:	2c48      	cmp	r4, #72	; 0x48
1a0053e4:	d019      	beq.n	1a00541a <send_cmd+0x76>
    {
        n = 0x87;                       /* Valid CRC for CMD8(0x1AA) */
    }
    
	xmit_spi(n);
1a0053e6:	f7ff ff7d 	bl	1a0052e4 <xmit_spi>

	/* Receive command response */
	if (cmd == CMD12) 
1a0053ea:	2c4c      	cmp	r4, #76	; 0x4c
1a0053ec:	d017      	beq.n	1a00541e <send_cmd+0x7a>
        n = 0x87;                       /* Valid CRC for CMD8(0x1AA) */
1a0053ee:	240a      	movs	r4, #10
    }
    
	n = 10;								/* Wait for a valid response in timeout of 10 attempts */
	do
    {
		res = rcvr_spi();
1a0053f0:	f7ff ff96 	bl	1a005320 <rcvr_spi>
    }
	while ((res & 0x80) && --n);
1a0053f4:	f010 0f80 	tst.w	r0, #128	; 0x80
1a0053f8:	d003      	beq.n	1a005402 <send_cmd+0x5e>
1a0053fa:	1e63      	subs	r3, r4, #1
1a0053fc:	f013 04ff 	ands.w	r4, r3, #255	; 0xff
1a005400:	d1f6      	bne.n	1a0053f0 <send_cmd+0x4c>

	return res;			/* Return with the response value */
}
1a005402:	bd38      	pop	{r3, r4, r5, pc}
		cmd &= 0x7F;
1a005404:	f000 047f 	and.w	r4, r0, #127	; 0x7f
		res = send_cmd(CMD55, 0);
1a005408:	2100      	movs	r1, #0
1a00540a:	2077      	movs	r0, #119	; 0x77
1a00540c:	f7ff ffca 	bl	1a0053a4 <send_cmd>
		if (res > 1) return res;
1a005410:	2801      	cmp	r0, #1
1a005412:	d9cd      	bls.n	1a0053b0 <send_cmd+0xc>
1a005414:	e7f5      	b.n	1a005402 <send_cmd+0x5e>
        n = 0x95;                       /* Valid CRC for CMD0_(0) */
1a005416:	2095      	movs	r0, #149	; 0x95
1a005418:	e7e3      	b.n	1a0053e2 <send_cmd+0x3e>
        n = 0x87;                       /* Valid CRC for CMD8(0x1AA) */
1a00541a:	2087      	movs	r0, #135	; 0x87
1a00541c:	e7e3      	b.n	1a0053e6 <send_cmd+0x42>
        rcvr_spi();                     /* Skip a stuff byte when stop reading */
1a00541e:	f7ff ff7f 	bl	1a005320 <rcvr_spi>
1a005422:	e7e4      	b.n	1a0053ee <send_cmd+0x4a>
        return 0xFF;
1a005424:	20ff      	movs	r0, #255	; 0xff
1a005426:	e7ec      	b.n	1a005402 <send_cmd+0x5e>

1a005428 <xmit_datablock>:
{
1a005428:	b538      	push	{r3, r4, r5, lr}
1a00542a:	4605      	mov	r5, r0
1a00542c:	460c      	mov	r4, r1
	if (wait_ready() != 0xFF) 
1a00542e:	f7ff ff87 	bl	1a005340 <wait_ready>
1a005432:	28ff      	cmp	r0, #255	; 0xff
1a005434:	d001      	beq.n	1a00543a <xmit_datablock+0x12>
        return FALSE;
1a005436:	2000      	movs	r0, #0
}
1a005438:	bd38      	pop	{r3, r4, r5, pc}
	xmit_spi(token);					/* Xmit data token */
1a00543a:	4620      	mov	r0, r4
1a00543c:	f7ff ff52 	bl	1a0052e4 <xmit_spi>
	if (token != 0xFD)                  /* Is data token */
1a005440:	2cfd      	cmp	r4, #253	; 0xfd
1a005442:	d019      	beq.n	1a005478 <xmit_datablock+0x50>
		wc = 0;
1a005444:	2400      	movs	r4, #0
			xmit_spi(*buff++);
1a005446:	7828      	ldrb	r0, [r5, #0]
1a005448:	f7ff ff4c 	bl	1a0052e4 <xmit_spi>
			xmit_spi(*buff++);
1a00544c:	7868      	ldrb	r0, [r5, #1]
1a00544e:	3502      	adds	r5, #2
1a005450:	f7ff ff48 	bl	1a0052e4 <xmit_spi>
        while (--wc);
1a005454:	1e63      	subs	r3, r4, #1
1a005456:	f013 04ff 	ands.w	r4, r3, #255	; 0xff
1a00545a:	d1f4      	bne.n	1a005446 <xmit_datablock+0x1e>
		xmit_spi(0xFF);					/* CRC (Dummy) */
1a00545c:	20ff      	movs	r0, #255	; 0xff
1a00545e:	f7ff ff41 	bl	1a0052e4 <xmit_spi>
		xmit_spi(0xFF);
1a005462:	20ff      	movs	r0, #255	; 0xff
1a005464:	f7ff ff3e 	bl	1a0052e4 <xmit_spi>
		resp = rcvr_spi();				/* Reveive data response */
1a005468:	f7ff ff5a 	bl	1a005320 <rcvr_spi>
		if ((resp & 0x1F) != 0x05)		/* If not accepted, return with error */
1a00546c:	f000 031f 	and.w	r3, r0, #31
1a005470:	2b05      	cmp	r3, #5
1a005472:	d103      	bne.n	1a00547c <xmit_datablock+0x54>
	return TRUE;
1a005474:	2001      	movs	r0, #1
1a005476:	e7df      	b.n	1a005438 <xmit_datablock+0x10>
1a005478:	2001      	movs	r0, #1
1a00547a:	e7dd      	b.n	1a005438 <xmit_datablock+0x10>
			return FALSE;
1a00547c:	2000      	movs	r0, #0
1a00547e:	e7db      	b.n	1a005438 <xmit_datablock+0x10>

1a005480 <rcvr_datablock>:
{
1a005480:	b5f8      	push	{r3, r4, r5, r6, r7, lr}
1a005482:	4604      	mov	r4, r0
1a005484:	460e      	mov	r6, r1
	Timer1 = 20;
1a005486:	4b15      	ldr	r3, [pc, #84]	; (1a0054dc <rcvr_datablock+0x5c>)
1a005488:	2214      	movs	r2, #20
1a00548a:	701a      	strb	r2, [r3, #0]
		token = rcvr_spi();
1a00548c:	f7ff ff48 	bl	1a005320 <rcvr_spi>
    while ((token == 0xFF) && Timer1);
1a005490:	28ff      	cmp	r0, #255	; 0xff
1a005492:	d103      	bne.n	1a00549c <rcvr_datablock+0x1c>
1a005494:	4b11      	ldr	r3, [pc, #68]	; (1a0054dc <rcvr_datablock+0x5c>)
1a005496:	781b      	ldrb	r3, [r3, #0]
1a005498:	2b00      	cmp	r3, #0
1a00549a:	d1f7      	bne.n	1a00548c <rcvr_datablock+0xc>
	if (token != 0xFE) 
1a00549c:	28fe      	cmp	r0, #254	; 0xfe
1a00549e:	d11b      	bne.n	1a0054d8 <rcvr_datablock+0x58>
		rcvr_spi_m(buff++);
1a0054a0:	1c65      	adds	r5, r4, #1
1a0054a2:	2101      	movs	r1, #1
1a0054a4:	4620      	mov	r0, r4
1a0054a6:	f7ff ff29 	bl	1a0052fc <SSPReceive>
		rcvr_spi_m(buff++);
1a0054aa:	1ca7      	adds	r7, r4, #2
1a0054ac:	2101      	movs	r1, #1
1a0054ae:	4628      	mov	r0, r5
1a0054b0:	f7ff ff24 	bl	1a0052fc <SSPReceive>
		rcvr_spi_m(buff++);
1a0054b4:	1ce5      	adds	r5, r4, #3
1a0054b6:	2101      	movs	r1, #1
1a0054b8:	4638      	mov	r0, r7
1a0054ba:	f7ff ff1f 	bl	1a0052fc <SSPReceive>
		rcvr_spi_m(buff++);
1a0054be:	2101      	movs	r1, #1
1a0054c0:	4628      	mov	r0, r5
1a0054c2:	3404      	adds	r4, #4
1a0054c4:	f7ff ff1a 	bl	1a0052fc <SSPReceive>
    while (btr -= 4);
1a0054c8:	3e04      	subs	r6, #4
1a0054ca:	d1e9      	bne.n	1a0054a0 <rcvr_datablock+0x20>
	rcvr_spi();						/* Discard CRC */
1a0054cc:	f7ff ff28 	bl	1a005320 <rcvr_spi>
	rcvr_spi();
1a0054d0:	f7ff ff26 	bl	1a005320 <rcvr_spi>
	return TRUE;					/* Return with success */
1a0054d4:	2001      	movs	r0, #1
}
1a0054d6:	bdf8      	pop	{r3, r4, r5, r6, r7, pc}
        return FALSE;               /* If not valid data token, retutn with error */
1a0054d8:	2000      	movs	r0, #0
1a0054da:	e7fc      	b.n	1a0054d6 <rcvr_datablock+0x56>
1a0054dc:	100005f1 	.word	0x100005f1

1a0054e0 <FSSDC_FatFs_DiskStatus>:
/* Get Disk Status                                                       */
/*-----------------------------------------------------------------------*/

DSTATUS FSSDC_FatFs_DiskStatus ()
{
	return g_diskStats;
1a0054e0:	4b01      	ldr	r3, [pc, #4]	; (1a0054e8 <FSSDC_FatFs_DiskStatus+0x8>)
1a0054e2:	7818      	ldrb	r0, [r3, #0]
}
1a0054e4:	4770      	bx	lr
1a0054e6:	bf00      	nop
1a0054e8:	100000c9 	.word	0x100000c9

1a0054ec <FSSDC_FatFs_DiskInitialize>:
/*-----------------------------------------------------------------------*/
/* Initialize Disk Drive                                                 */
/*-----------------------------------------------------------------------*/

DSTATUS FSSDC_FatFs_DiskInitialize ()
{
1a0054ec:	b570      	push	{r4, r5, r6, lr}
1a0054ee:	b082      	sub	sp, #8
	BYTE n, cmd, ty, ocr[4];

    if (g_diskStats & STA_NODISK)
1a0054f0:	4b63      	ldr	r3, [pc, #396]	; (1a005680 <FSSDC_FatFs_DiskInitialize+0x194>)
1a0054f2:	781b      	ldrb	r3, [r3, #0]
1a0054f4:	f013 0f02 	tst.w	r3, #2
1a0054f8:	d109      	bne.n	1a00550e <FSSDC_FatFs_DiskInitialize+0x22>
    {
        Board_UARTPutSTR ("FSSDC: [Init] No card in socket.\r\n");
        return g_diskStats;                 /* No card in the socket */
    }
    
    if (!(g_diskStats & STA_NOINIT))        /* Already initialized */
1a0054fa:	4b61      	ldr	r3, [pc, #388]	; (1a005680 <FSSDC_FatFs_DiskInitialize+0x194>)
1a0054fc:	781b      	ldrb	r3, [r3, #0]
1a0054fe:	f013 0f01 	tst.w	r3, #1
1a005502:	d10b      	bne.n	1a00551c <FSSDC_FatFs_DiskInitialize+0x30>
    {
        return g_diskStats;
1a005504:	4b5e      	ldr	r3, [pc, #376]	; (1a005680 <FSSDC_FatFs_DiskInitialize+0x194>)
1a005506:	7818      	ldrb	r0, [r3, #0]
1a005508:	b2c0      	uxtb	r0, r0
        Board_UARTPutSTR ("FSSDC: [Init] New card status: Error (Not Initialized).\r\n");        
        newCardStatus (FSSDC_CardStatus_Error); 
	}

	return g_diskStats;
}
1a00550a:	b002      	add	sp, #8
1a00550c:	bd70      	pop	{r4, r5, r6, pc}
        Board_UARTPutSTR ("FSSDC: [Init] No card in socket.\r\n");
1a00550e:	485d      	ldr	r0, [pc, #372]	; (1a005684 <FSSDC_FatFs_DiskInitialize+0x198>)
1a005510:	f7fe fe84 	bl	1a00421c <Board_UARTPutSTR>
        return g_diskStats;                 /* No card in the socket */
1a005514:	4b5a      	ldr	r3, [pc, #360]	; (1a005680 <FSSDC_FatFs_DiskInitialize+0x194>)
1a005516:	7818      	ldrb	r0, [r3, #0]
1a005518:	b2c0      	uxtb	r0, r0
1a00551a:	e7f6      	b.n	1a00550a <FSSDC_FatFs_DiskInitialize+0x1e>
    Board_UARTPutSTR ("FSSDC: [Init] Initialization begins.\r\n");
1a00551c:	485a      	ldr	r0, [pc, #360]	; (1a005688 <FSSDC_FatFs_DiskInitialize+0x19c>)
1a00551e:	f7fe fe7d 	bl	1a00421c <Board_UARTPutSTR>
	FCLK_SLOW();
1a005522:	4b5a      	ldr	r3, [pc, #360]	; (1a00568c <FSSDC_FatFs_DiskInitialize+0x1a0>)
1a005524:	6819      	ldr	r1, [r3, #0]
1a005526:	485a      	ldr	r0, [pc, #360]	; (1a005690 <FSSDC_FatFs_DiskInitialize+0x1a4>)
1a005528:	f7ff fe3d 	bl	1a0051a6 <Chip_SSP_SetBitRate>
	for (n = 10; n; n--) 
1a00552c:	240a      	movs	r4, #10
1a00552e:	b124      	cbz	r4, 1a00553a <FSSDC_FatFs_DiskInitialize+0x4e>
        rcvr_spi();	/* 80 dummy clocks */
1a005530:	f7ff fef6 	bl	1a005320 <rcvr_spi>
	for (n = 10; n; n--) 
1a005534:	3c01      	subs	r4, #1
1a005536:	b2e4      	uxtb	r4, r4
1a005538:	e7f9      	b.n	1a00552e <FSSDC_FatFs_DiskInitialize+0x42>
    Board_UARTPutSTR ("FSSDC: [Init] New card status: Native Mode.\r\n");
1a00553a:	4856      	ldr	r0, [pc, #344]	; (1a005694 <FSSDC_FatFs_DiskInitialize+0x1a8>)
1a00553c:	f7fe fe6e 	bl	1a00421c <Board_UARTPutSTR>
    newCardStatus (FSSDC_CardStatus_NativeMode);    
1a005540:	2003      	movs	r0, #3
1a005542:	f7ff feaf 	bl	1a0052a4 <newCardStatus>
	if (send_cmd(CMD0_, 0) == 1)                                /* Enter Idle state */
1a005546:	2100      	movs	r1, #0
1a005548:	2040      	movs	r0, #64	; 0x40
1a00554a:	f7ff ff2b 	bl	1a0053a4 <send_cmd>
1a00554e:	4605      	mov	r5, r0
1a005550:	2801      	cmp	r0, #1
1a005552:	d01a      	beq.n	1a00558a <FSSDC_FatFs_DiskInitialize+0x9e>
	CardType = ty;
1a005554:	4b50      	ldr	r3, [pc, #320]	; (1a005698 <FSSDC_FatFs_DiskInitialize+0x1ac>)
1a005556:	701c      	strb	r4, [r3, #0]
	deselect();
1a005558:	f7ff ff04 	bl	1a005364 <deselect>
    if (ty)                                             /* Initialization succeded */
1a00555c:	2c00      	cmp	r4, #0
1a00555e:	f000 8087 	beq.w	1a005670 <FSSDC_FatFs_DiskInitialize+0x184>
		g_diskStats &= ~STA_NOINIT;                     /* Clear STA_NOINIT */
1a005562:	4a47      	ldr	r2, [pc, #284]	; (1a005680 <FSSDC_FatFs_DiskInitialize+0x194>)
1a005564:	7813      	ldrb	r3, [r2, #0]
1a005566:	f003 03fe 	and.w	r3, r3, #254	; 0xfe
1a00556a:	7013      	strb	r3, [r2, #0]
		FCLK_FAST();
1a00556c:	4b4b      	ldr	r3, [pc, #300]	; (1a00569c <FSSDC_FatFs_DiskInitialize+0x1b0>)
1a00556e:	6819      	ldr	r1, [r3, #0]
1a005570:	4847      	ldr	r0, [pc, #284]	; (1a005690 <FSSDC_FatFs_DiskInitialize+0x1a4>)
1a005572:	f7ff fe18 	bl	1a0051a6 <Chip_SSP_SetBitRate>
        Board_UARTPutSTR ("FSSDC: [Init] New card status: Ready (Fast Clock).\r\n");        
1a005576:	484a      	ldr	r0, [pc, #296]	; (1a0056a0 <FSSDC_FatFs_DiskInitialize+0x1b4>)
1a005578:	f7fe fe50 	bl	1a00421c <Board_UARTPutSTR>
        newCardStatus (FSSDC_CardStatus_Ready);        
1a00557c:	2005      	movs	r0, #5
1a00557e:	f7ff fe91 	bl	1a0052a4 <newCardStatus>
	return g_diskStats;
1a005582:	4b3f      	ldr	r3, [pc, #252]	; (1a005680 <FSSDC_FatFs_DiskInitialize+0x194>)
1a005584:	7818      	ldrb	r0, [r3, #0]
1a005586:	b2c0      	uxtb	r0, r0
1a005588:	e7bf      	b.n	1a00550a <FSSDC_FatFs_DiskInitialize+0x1e>
        Board_UARTPutSTR ("FSSDC: [Init] New card status: Initializing.\r\n");        
1a00558a:	4846      	ldr	r0, [pc, #280]	; (1a0056a4 <FSSDC_FatFs_DiskInitialize+0x1b8>)
1a00558c:	f7fe fe46 	bl	1a00421c <Board_UARTPutSTR>
        newCardStatus (FSSDC_CardStatus_Initializing);
1a005590:	2004      	movs	r0, #4
1a005592:	f7ff fe87 	bl	1a0052a4 <newCardStatus>
		Timer1 = 100;                                           /* Initialization timeout of 1000 msec */
1a005596:	4b44      	ldr	r3, [pc, #272]	; (1a0056a8 <FSSDC_FatFs_DiskInitialize+0x1bc>)
1a005598:	2264      	movs	r2, #100	; 0x64
1a00559a:	701a      	strb	r2, [r3, #0]
		if (send_cmd(CMD8, 0x1AA) == 1)                         /* SDHC */
1a00559c:	f44f 71d5 	mov.w	r1, #426	; 0x1aa
1a0055a0:	2048      	movs	r0, #72	; 0x48
1a0055a2:	f7ff feff 	bl	1a0053a4 <send_cmd>
1a0055a6:	2801      	cmp	r0, #1
1a0055a8:	d13c      	bne.n	1a005624 <FSSDC_FatFs_DiskInitialize+0x138>
			for (n = 0; n < 4; n++) 
1a0055aa:	4625      	mov	r5, r4
1a0055ac:	e007      	b.n	1a0055be <FSSDC_FatFs_DiskInitialize+0xd2>
                ocr[n] = rcvr_spi();                            /* Get trailing return value of R7 resp */
1a0055ae:	f7ff feb7 	bl	1a005320 <rcvr_spi>
1a0055b2:	ab02      	add	r3, sp, #8
1a0055b4:	442b      	add	r3, r5
1a0055b6:	f803 0c04 	strb.w	r0, [r3, #-4]
			for (n = 0; n < 4; n++) 
1a0055ba:	3501      	adds	r5, #1
1a0055bc:	b2ed      	uxtb	r5, r5
1a0055be:	2d03      	cmp	r5, #3
1a0055c0:	d9f5      	bls.n	1a0055ae <FSSDC_FatFs_DiskInitialize+0xc2>
			if (ocr[2] == 0x01 && ocr[3] == 0xAA)               /* The card can work at vdd range of 2.7-3.6V */ 
1a0055c2:	f89d 3006 	ldrb.w	r3, [sp, #6]
1a0055c6:	2b01      	cmp	r3, #1
1a0055c8:	d1c4      	bne.n	1a005554 <FSSDC_FatFs_DiskInitialize+0x68>
1a0055ca:	f89d 3007 	ldrb.w	r3, [sp, #7]
1a0055ce:	2baa      	cmp	r3, #170	; 0xaa
1a0055d0:	d1c0      	bne.n	1a005554 <FSSDC_FatFs_DiskInitialize+0x68>
				while (Timer1 && send_cmd(ACMD41, 1UL << 30));	/* Wait for leaving idle state (ACMD41 with HCS bit) */
1a0055d2:	4b35      	ldr	r3, [pc, #212]	; (1a0056a8 <FSSDC_FatFs_DiskInitialize+0x1bc>)
1a0055d4:	781b      	ldrb	r3, [r3, #0]
1a0055d6:	b133      	cbz	r3, 1a0055e6 <FSSDC_FatFs_DiskInitialize+0xfa>
1a0055d8:	f04f 4180 	mov.w	r1, #1073741824	; 0x40000000
1a0055dc:	20e9      	movs	r0, #233	; 0xe9
1a0055de:	f7ff fee1 	bl	1a0053a4 <send_cmd>
1a0055e2:	2800      	cmp	r0, #0
1a0055e4:	d1f5      	bne.n	1a0055d2 <FSSDC_FatFs_DiskInitialize+0xe6>
                if (Timer1 && send_cmd(CMD58, 0) == 0) 
1a0055e6:	4b30      	ldr	r3, [pc, #192]	; (1a0056a8 <FSSDC_FatFs_DiskInitialize+0x1bc>)
1a0055e8:	781b      	ldrb	r3, [r3, #0]
1a0055ea:	f003 02ff 	and.w	r2, r3, #255	; 0xff
1a0055ee:	b90b      	cbnz	r3, 1a0055f4 <FSSDC_FatFs_DiskInitialize+0x108>
	ty = 0;
1a0055f0:	4614      	mov	r4, r2
1a0055f2:	e7af      	b.n	1a005554 <FSSDC_FatFs_DiskInitialize+0x68>
                if (Timer1 && send_cmd(CMD58, 0) == 0) 
1a0055f4:	2100      	movs	r1, #0
1a0055f6:	207a      	movs	r0, #122	; 0x7a
1a0055f8:	f7ff fed4 	bl	1a0053a4 <send_cmd>
1a0055fc:	4605      	mov	r5, r0
1a0055fe:	b140      	cbz	r0, 1a005612 <FSSDC_FatFs_DiskInitialize+0x126>
1a005600:	e7a8      	b.n	1a005554 <FSSDC_FatFs_DiskInitialize+0x68>
                        ocr[n] = rcvr_spi();
1a005602:	f7ff fe8d 	bl	1a005320 <rcvr_spi>
1a005606:	ab02      	add	r3, sp, #8
1a005608:	442b      	add	r3, r5
1a00560a:	f803 0c04 	strb.w	r0, [r3, #-4]
					for (n = 0; n < 4; n++)                     /* Check CCS bit in the OCR */
1a00560e:	3501      	adds	r5, #1
1a005610:	b2ed      	uxtb	r5, r5
1a005612:	2d03      	cmp	r5, #3
1a005614:	d9f5      	bls.n	1a005602 <FSSDC_FatFs_DiskInitialize+0x116>
					ty = (ocr[0] & 0x40) ? CT_SD2 | CT_BLOCK : CT_SD2;	/* SDv2 */
1a005616:	f89d 3004 	ldrb.w	r3, [sp, #4]
1a00561a:	f013 0f40 	tst.w	r3, #64	; 0x40
1a00561e:	d025      	beq.n	1a00566c <FSSDC_FatFs_DiskInitialize+0x180>
1a005620:	240c      	movs	r4, #12
1a005622:	e797      	b.n	1a005554 <FSSDC_FatFs_DiskInitialize+0x68>
			if (send_cmd(ACMD41, 0) <= 1)
1a005624:	2100      	movs	r1, #0
1a005626:	20e9      	movs	r0, #233	; 0xe9
1a005628:	f7ff febc 	bl	1a0053a4 <send_cmd>
1a00562c:	2801      	cmp	r0, #1
1a00562e:	d910      	bls.n	1a005652 <FSSDC_FatFs_DiskInitialize+0x166>
				ty = CT_MMC; cmd = CMD1;                        /* MMCv3 */
1a005630:	2641      	movs	r6, #65	; 0x41
			while (Timer1 && send_cmd(cmd, 0));			/* Wait for leaving idle state */
1a005632:	4b1d      	ldr	r3, [pc, #116]	; (1a0056a8 <FSSDC_FatFs_DiskInitialize+0x1bc>)
1a005634:	781b      	ldrb	r3, [r3, #0]
1a005636:	b12b      	cbz	r3, 1a005644 <FSSDC_FatFs_DiskInitialize+0x158>
1a005638:	2100      	movs	r1, #0
1a00563a:	4630      	mov	r0, r6
1a00563c:	f7ff feb2 	bl	1a0053a4 <send_cmd>
1a005640:	2800      	cmp	r0, #0
1a005642:	d1f6      	bne.n	1a005632 <FSSDC_FatFs_DiskInitialize+0x146>
			if (!Timer1 || send_cmd(CMD16, 512) != 0)	/* Set R/W block length to 512 */
1a005644:	4b18      	ldr	r3, [pc, #96]	; (1a0056a8 <FSSDC_FatFs_DiskInitialize+0x1bc>)
1a005646:	781b      	ldrb	r3, [r3, #0]
1a005648:	f003 02ff 	and.w	r2, r3, #255	; 0xff
1a00564c:	b923      	cbnz	r3, 1a005658 <FSSDC_FatFs_DiskInitialize+0x16c>
				ty = 0;
1a00564e:	4614      	mov	r4, r2
1a005650:	e780      	b.n	1a005554 <FSSDC_FatFs_DiskInitialize+0x68>
				ty = CT_SD1; cmd = ACMD41;                      /* SDv1 */
1a005652:	2502      	movs	r5, #2
1a005654:	26e9      	movs	r6, #233	; 0xe9
1a005656:	e7ec      	b.n	1a005632 <FSSDC_FatFs_DiskInitialize+0x146>
			if (!Timer1 || send_cmd(CMD16, 512) != 0)	/* Set R/W block length to 512 */
1a005658:	f44f 7100 	mov.w	r1, #512	; 0x200
1a00565c:	2050      	movs	r0, #80	; 0x50
1a00565e:	f7ff fea1 	bl	1a0053a4 <send_cmd>
1a005662:	2800      	cmp	r0, #0
1a005664:	f47f af76 	bne.w	1a005554 <FSSDC_FatFs_DiskInitialize+0x68>
1a005668:	462c      	mov	r4, r5
1a00566a:	e773      	b.n	1a005554 <FSSDC_FatFs_DiskInitialize+0x68>
					ty = (ocr[0] & 0x40) ? CT_SD2 | CT_BLOCK : CT_SD2;	/* SDv2 */
1a00566c:	2404      	movs	r4, #4
1a00566e:	e771      	b.n	1a005554 <FSSDC_FatFs_DiskInitialize+0x68>
        Board_UARTPutSTR ("FSSDC: [Init] New card status: Error (Not Initialized).\r\n");        
1a005670:	480e      	ldr	r0, [pc, #56]	; (1a0056ac <FSSDC_FatFs_DiskInitialize+0x1c0>)
1a005672:	f7fe fdd3 	bl	1a00421c <Board_UARTPutSTR>
        newCardStatus (FSSDC_CardStatus_Error); 
1a005676:	2000      	movs	r0, #0
1a005678:	f7ff fe14 	bl	1a0052a4 <newCardStatus>
1a00567c:	e781      	b.n	1a005582 <FSSDC_FatFs_DiskInitialize+0x96>
1a00567e:	bf00      	nop
1a005680:	100000c9 	.word	0x100000c9
1a005684:	1a007700 	.word	0x1a007700
1a005688:	1a007724 	.word	0x1a007724
1a00568c:	100000d0 	.word	0x100000d0
1a005690:	400c5000 	.word	0x400c5000
1a005694:	1a00774c 	.word	0x1a00774c
1a005698:	100005f0 	.word	0x100005f0
1a00569c:	100000cc 	.word	0x100000cc
1a0056a0:	1a0077ac 	.word	0x1a0077ac
1a0056a4:	1a00777c 	.word	0x1a00777c
1a0056a8:	100005f1 	.word	0x100005f1
1a0056ac:	1a0077e4 	.word	0x1a0077e4

1a0056b0 <FSSDC_FatFs_DiskRead>:

/*-----------------------------------------------------------------------*/
/* Read Sector(s)                                                        */
/*-----------------------------------------------------------------------*/
DRESULT FSSDC_FatFs_DiskRead (BYTE *buff, DWORD sector, UINT count)
{   
1a0056b0:	b538      	push	{r3, r4, r5, lr}
	if (g_diskStats & STA_NOINIT)
1a0056b2:	4b1d      	ldr	r3, [pc, #116]	; (1a005728 <FSSDC_FatFs_DiskRead+0x78>)
1a0056b4:	781b      	ldrb	r3, [r3, #0]
1a0056b6:	f013 0f01 	tst.w	r3, #1
1a0056ba:	d121      	bne.n	1a005700 <FSSDC_FatFs_DiskRead+0x50>
1a0056bc:	4605      	mov	r5, r0
1a0056be:	4614      	mov	r4, r2
    {
        Board_UARTPutSTR ("FSSDC: [Read] Card not initialized.\r\n");
        return RES_NOTRDY;
    }

	if (!(CardType & CT_BLOCK)) 
1a0056c0:	4b1a      	ldr	r3, [pc, #104]	; (1a00572c <FSSDC_FatFs_DiskRead+0x7c>)
1a0056c2:	781b      	ldrb	r3, [r3, #0]
1a0056c4:	f013 0f08 	tst.w	r3, #8
1a0056c8:	d100      	bne.n	1a0056cc <FSSDC_FatFs_DiskRead+0x1c>
    {
        sector *= 512;                      /* Convert to byte address if needed */
1a0056ca:	0249      	lsls	r1, r1, #9
    }

	if (count == 1) 
1a0056cc:	2c01      	cmp	r4, #1
1a0056ce:	d01c      	beq.n	1a00570a <FSSDC_FatFs_DiskRead+0x5a>
			&& rcvr_datablock(buff, 512))
			count = 0;
	}
	else 
    {                                       /* Multiple block read */
		if (send_cmd(CMD18, sector) == 0) 
1a0056d0:	2052      	movs	r0, #82	; 0x52
1a0056d2:	f7ff fe67 	bl	1a0053a4 <send_cmd>
1a0056d6:	b968      	cbnz	r0, 1a0056f4 <FSSDC_FatFs_DiskRead+0x44>
        {                                   /* READ_MULTIPLE_BLOCK */
			do 
            {
				if (!rcvr_datablock(buff, 512)) 
1a0056d8:	f44f 7100 	mov.w	r1, #512	; 0x200
1a0056dc:	4628      	mov	r0, r5
1a0056de:	f7ff fecf 	bl	1a005480 <rcvr_datablock>
1a0056e2:	b118      	cbz	r0, 1a0056ec <FSSDC_FatFs_DiskRead+0x3c>
                {
                    break;
                }
				buff += 512;
1a0056e4:	f505 7500 	add.w	r5, r5, #512	; 0x200
			} 
            while (--count);
1a0056e8:	3c01      	subs	r4, #1
1a0056ea:	d1f5      	bne.n	1a0056d8 <FSSDC_FatFs_DiskRead+0x28>
			send_cmd(CMD12, 0);				/* STOP_TRANSMISSION */
1a0056ec:	2100      	movs	r1, #0
1a0056ee:	204c      	movs	r0, #76	; 0x4c
1a0056f0:	f7ff fe58 	bl	1a0053a4 <send_cmd>
		}
	}
	deselect();
1a0056f4:	f7ff fe36 	bl	1a005364 <deselect>

	return count ? RES_ERROR : RES_OK;
1a0056f8:	1e20      	subs	r0, r4, #0
1a0056fa:	bf18      	it	ne
1a0056fc:	2001      	movne	r0, #1
}
1a0056fe:	bd38      	pop	{r3, r4, r5, pc}
        Board_UARTPutSTR ("FSSDC: [Read] Card not initialized.\r\n");
1a005700:	480b      	ldr	r0, [pc, #44]	; (1a005730 <FSSDC_FatFs_DiskRead+0x80>)
1a005702:	f7fe fd8b 	bl	1a00421c <Board_UARTPutSTR>
        return RES_NOTRDY;
1a005706:	2003      	movs	r0, #3
1a005708:	e7f9      	b.n	1a0056fe <FSSDC_FatFs_DiskRead+0x4e>
		if ((send_cmd(CMD17, sector) == 0)	/* READ_SINGLE_BLOCK */
1a00570a:	2051      	movs	r0, #81	; 0x51
1a00570c:	f7ff fe4a 	bl	1a0053a4 <send_cmd>
1a005710:	2800      	cmp	r0, #0
1a005712:	d1ef      	bne.n	1a0056f4 <FSSDC_FatFs_DiskRead+0x44>
			&& rcvr_datablock(buff, 512))
1a005714:	f44f 7100 	mov.w	r1, #512	; 0x200
1a005718:	4628      	mov	r0, r5
1a00571a:	f7ff feb1 	bl	1a005480 <rcvr_datablock>
1a00571e:	2800      	cmp	r0, #0
1a005720:	d0e8      	beq.n	1a0056f4 <FSSDC_FatFs_DiskRead+0x44>
			count = 0;
1a005722:	2400      	movs	r4, #0
1a005724:	e7e6      	b.n	1a0056f4 <FSSDC_FatFs_DiskRead+0x44>
1a005726:	bf00      	nop
1a005728:	100000c9 	.word	0x100000c9
1a00572c:	100005f0 	.word	0x100005f0
1a005730:	1a007820 	.word	0x1a007820

1a005734 <FSSDC_FatFs_DiskWrite>:
/*-----------------------------------------------------------------------*/
/* Write Sector(s)                                                       */
/*-----------------------------------------------------------------------*/
#if !FF_FS_READONLY
DRESULT FSSDC_FatFs_DiskWrite (const BYTE *buff, DWORD sector, UINT count)
{
1a005734:	b570      	push	{r4, r5, r6, lr}
	if (g_diskStats & STA_NOINIT)
1a005736:	4b28      	ldr	r3, [pc, #160]	; (1a0057d8 <FSSDC_FatFs_DiskWrite+0xa4>)
1a005738:	781b      	ldrb	r3, [r3, #0]
1a00573a:	f013 0f01 	tst.w	r3, #1
1a00573e:	d12b      	bne.n	1a005798 <FSSDC_FatFs_DiskWrite+0x64>
1a005740:	4605      	mov	r5, r0
1a005742:	460e      	mov	r6, r1
1a005744:	4614      	mov	r4, r2
    {
        Board_UARTPutSTR ("FSSDC: [Write] Card not initialized.\r\n");
        return RES_NOTRDY;
    }
    
	if (g_diskStats & STA_PROTECT)
1a005746:	4b24      	ldr	r3, [pc, #144]	; (1a0057d8 <FSSDC_FatFs_DiskWrite+0xa4>)
1a005748:	781b      	ldrb	r3, [r3, #0]
1a00574a:	f013 0f04 	tst.w	r3, #4
1a00574e:	d128      	bne.n	1a0057a2 <FSSDC_FatFs_DiskWrite+0x6e>
    {
        Board_UARTPutSTR ("FSSDC: [Write] Card is write protected.\r\n");
        return RES_WRPRT;
    }

	if (!(CardType & CT_BLOCK)) sector *= 512;	/* Convert to byte address if needed */
1a005750:	4b22      	ldr	r3, [pc, #136]	; (1a0057dc <FSSDC_FatFs_DiskWrite+0xa8>)
1a005752:	781b      	ldrb	r3, [r3, #0]
1a005754:	f013 0f08 	tst.w	r3, #8
1a005758:	d100      	bne.n	1a00575c <FSSDC_FatFs_DiskWrite+0x28>
1a00575a:	024e      	lsls	r6, r1, #9

	if (count == 1) 
1a00575c:	2c01      	cmp	r4, #1
1a00575e:	d025      	beq.n	1a0057ac <FSSDC_FatFs_DiskWrite+0x78>
			count = 0;
        }
	}
	else 
    {                                           /* Multiple block write */
		if (CardType & CT_SDC) send_cmd(ACMD23, count);
1a005760:	f013 0f06 	tst.w	r3, #6
1a005764:	d130      	bne.n	1a0057c8 <FSSDC_FatFs_DiskWrite+0x94>
		if (send_cmd(CMD25, sector) == 0) 
1a005766:	4631      	mov	r1, r6
1a005768:	2059      	movs	r0, #89	; 0x59
1a00576a:	f7ff fe1b 	bl	1a0053a4 <send_cmd>
1a00576e:	b968      	cbnz	r0, 1a00578c <FSSDC_FatFs_DiskWrite+0x58>
        {                                       /* WRITE_MULTIPLE_BLOCK */
			do 
            {
				if (!xmit_datablock(buff, 0xFC))
1a005770:	21fc      	movs	r1, #252	; 0xfc
1a005772:	4628      	mov	r0, r5
1a005774:	f7ff fe58 	bl	1a005428 <xmit_datablock>
1a005778:	b118      	cbz	r0, 1a005782 <FSSDC_FatFs_DiskWrite+0x4e>
                {
                    break;
                }
				buff += 512;
1a00577a:	f505 7500 	add.w	r5, r5, #512	; 0x200
			} 
            while (--count);
1a00577e:	3c01      	subs	r4, #1
1a005780:	d1f6      	bne.n	1a005770 <FSSDC_FatFs_DiskWrite+0x3c>
			if (!xmit_datablock(0, 0xFD))       /* STOP_TRAN token */
1a005782:	21fd      	movs	r1, #253	; 0xfd
1a005784:	2000      	movs	r0, #0
1a005786:	f7ff fe4f 	bl	1a005428 <xmit_datablock>
1a00578a:	b310      	cbz	r0, 1a0057d2 <FSSDC_FatFs_DiskWrite+0x9e>
            {
				count = 1;
            }
		}
	}
	deselect();
1a00578c:	f7ff fdea 	bl	1a005364 <deselect>

	return count ? RES_ERROR : RES_OK;
1a005790:	1e20      	subs	r0, r4, #0
1a005792:	bf18      	it	ne
1a005794:	2001      	movne	r0, #1
}
1a005796:	bd70      	pop	{r4, r5, r6, pc}
        Board_UARTPutSTR ("FSSDC: [Write] Card not initialized.\r\n");
1a005798:	4811      	ldr	r0, [pc, #68]	; (1a0057e0 <FSSDC_FatFs_DiskWrite+0xac>)
1a00579a:	f7fe fd3f 	bl	1a00421c <Board_UARTPutSTR>
        return RES_NOTRDY;
1a00579e:	2003      	movs	r0, #3
1a0057a0:	e7f9      	b.n	1a005796 <FSSDC_FatFs_DiskWrite+0x62>
        Board_UARTPutSTR ("FSSDC: [Write] Card is write protected.\r\n");
1a0057a2:	4810      	ldr	r0, [pc, #64]	; (1a0057e4 <FSSDC_FatFs_DiskWrite+0xb0>)
1a0057a4:	f7fe fd3a 	bl	1a00421c <Board_UARTPutSTR>
        return RES_WRPRT;
1a0057a8:	2002      	movs	r0, #2
1a0057aa:	e7f4      	b.n	1a005796 <FSSDC_FatFs_DiskWrite+0x62>
		if ((send_cmd(CMD24, sector) == 0)      /* WRITE_BLOCK */
1a0057ac:	4631      	mov	r1, r6
1a0057ae:	2058      	movs	r0, #88	; 0x58
1a0057b0:	f7ff fdf8 	bl	1a0053a4 <send_cmd>
1a0057b4:	2800      	cmp	r0, #0
1a0057b6:	d1e9      	bne.n	1a00578c <FSSDC_FatFs_DiskWrite+0x58>
                    && xmit_datablock(buff, 0xFE))
1a0057b8:	21fe      	movs	r1, #254	; 0xfe
1a0057ba:	4628      	mov	r0, r5
1a0057bc:	f7ff fe34 	bl	1a005428 <xmit_datablock>
1a0057c0:	2800      	cmp	r0, #0
1a0057c2:	d0e3      	beq.n	1a00578c <FSSDC_FatFs_DiskWrite+0x58>
			count = 0;
1a0057c4:	2400      	movs	r4, #0
1a0057c6:	e7e1      	b.n	1a00578c <FSSDC_FatFs_DiskWrite+0x58>
		if (CardType & CT_SDC) send_cmd(ACMD23, count);
1a0057c8:	4621      	mov	r1, r4
1a0057ca:	20d7      	movs	r0, #215	; 0xd7
1a0057cc:	f7ff fdea 	bl	1a0053a4 <send_cmd>
1a0057d0:	e7c9      	b.n	1a005766 <FSSDC_FatFs_DiskWrite+0x32>
				count = 1;
1a0057d2:	2401      	movs	r4, #1
1a0057d4:	e7da      	b.n	1a00578c <FSSDC_FatFs_DiskWrite+0x58>
1a0057d6:	bf00      	nop
1a0057d8:	100000c9 	.word	0x100000c9
1a0057dc:	100005f0 	.word	0x100005f0
1a0057e0:	1a007848 	.word	0x1a007848
1a0057e4:	1a007870 	.word	0x1a007870

1a0057e8 <FSSDC_FatFs_DiskIoCtl>:

/*-----------------------------------------------------------------------*/
/* Miscellaneous Functions                                               */
/*-----------------------------------------------------------------------*/
DRESULT FSSDC_FatFs_DiskIoCtl (BYTE cmd, void *buff)
{
1a0057e8:	b570      	push	{r4, r5, r6, lr}
1a0057ea:	b084      	sub	sp, #16
1a0057ec:	460e      	mov	r6, r1
	BYTE n, csd[16], *ptr = buff;
	WORD csize;

	res = RES_ERROR;

	if (cmd == CTRL_POWER)
1a0057ee:	2805      	cmp	r0, #5
1a0057f0:	d019      	beq.n	1a005826 <FSSDC_FatFs_DiskIoCtl+0x3e>
1a0057f2:	4605      	mov	r5, r0
			res = RES_PARERR;
		}
	}
	else 
    {
		if (g_diskStats & STA_NOINIT)
1a0057f4:	4bb2      	ldr	r3, [pc, #712]	; (1a005ac0 <FSSDC_FatFs_DiskIoCtl+0x2d8>)
1a0057f6:	781c      	ldrb	r4, [r3, #0]
1a0057f8:	f014 0401 	ands.w	r4, r4, #1
1a0057fc:	d126      	bne.n	1a00584c <FSSDC_FatFs_DiskIoCtl+0x64>
        {
            Board_UARTPutSTR ("FSSDC: [IOCtl] Card not initialized.\r\n");
            return RES_NOTRDY;
        }

		switch (cmd) {
1a0057fe:	280e      	cmp	r0, #14
1a005800:	f200 814b 	bhi.w	1a005a9a <FSSDC_FatFs_DiskIoCtl+0x2b2>
1a005804:	e8df f010 	tbh	[pc, r0, lsl #1]
1a005808:	00320027 	.word	0x00320027
1a00580c:	007a0074 	.word	0x007a0074
1a005810:	01490149 	.word	0x01490149
1a005814:	01490149 	.word	0x01490149
1a005818:	01490149 	.word	0x01490149
1a00581c:	00dd00d7 	.word	0x00dd00d7
1a005820:	00fd00ee 	.word	0x00fd00ee
1a005824:	010f      	.short	0x010f
		switch (*ptr) {
1a005826:	780c      	ldrb	r4, [r1, #0]
1a005828:	2c01      	cmp	r4, #1
1a00582a:	f000 8146 	beq.w	1a005aba <FSSDC_FatFs_DiskIoCtl+0x2d2>
1a00582e:	2c02      	cmp	r4, #2
1a005830:	d007      	beq.n	1a005842 <FSSDC_FatFs_DiskIoCtl+0x5a>
1a005832:	b11c      	cbz	r4, 1a00583c <FSSDC_FatFs_DiskIoCtl+0x54>
1a005834:	2404      	movs	r4, #4
		deselect();
	}
    
    if (res != RES_OK)
    {
        Board_UARTPutSTR ("FSSDC: [IOCtl] Returning Error.\r\n");        
1a005836:	48a3      	ldr	r0, [pc, #652]	; (1a005ac4 <FSSDC_FatFs_DiskIoCtl+0x2dc>)
1a005838:	f7fe fcf0 	bl	1a00421c <Board_UARTPutSTR>
    }

	return res;
}
1a00583c:	4620      	mov	r0, r4
1a00583e:	b004      	add	sp, #16
1a005840:	bd70      	pop	{r4, r5, r6, pc}
			*(ptr+1) = (BYTE)chk_power();
1a005842:	f7ff fd3b 	bl	1a0052bc <chk_power>
1a005846:	7070      	strb	r0, [r6, #1]
			res = RES_OK;
1a005848:	2400      	movs	r4, #0
1a00584a:	e7f7      	b.n	1a00583c <FSSDC_FatFs_DiskIoCtl+0x54>
            Board_UARTPutSTR ("FSSDC: [IOCtl] Card not initialized.\r\n");
1a00584c:	489e      	ldr	r0, [pc, #632]	; (1a005ac8 <FSSDC_FatFs_DiskIoCtl+0x2e0>)
1a00584e:	f7fe fce5 	bl	1a00421c <Board_UARTPutSTR>
            return RES_NOTRDY;
1a005852:	2403      	movs	r4, #3
1a005854:	e7f2      	b.n	1a00583c <FSSDC_FatFs_DiskIoCtl+0x54>
			if (select_()) 
1a005856:	f7ff fd91 	bl	1a00537c <select_>
1a00585a:	2800      	cmp	r0, #0
1a00585c:	f000 8119 	beq.w	1a005a92 <FSSDC_FatFs_DiskIoCtl+0x2aa>
				deselect();
1a005860:	f7ff fd80 	bl	1a005364 <deselect>
		deselect();
1a005864:	f7ff fd7e 	bl	1a005364 <deselect>
				res = RES_OK;
1a005868:	462c      	mov	r4, r5
1a00586a:	e7e7      	b.n	1a00583c <FSSDC_FatFs_DiskIoCtl+0x54>
			if ((send_cmd(CMD9, 0) == 0) 
1a00586c:	2100      	movs	r1, #0
1a00586e:	2049      	movs	r0, #73	; 0x49
1a005870:	f7ff fd98 	bl	1a0053a4 <send_cmd>
1a005874:	4604      	mov	r4, r0
1a005876:	2800      	cmp	r0, #0
1a005878:	f040 8107 	bne.w	1a005a8a <FSSDC_FatFs_DiskIoCtl+0x2a2>
                    && rcvr_datablock(csd, 16))
1a00587c:	2110      	movs	r1, #16
1a00587e:	4668      	mov	r0, sp
1a005880:	f7ff fdfe 	bl	1a005480 <rcvr_datablock>
1a005884:	2800      	cmp	r0, #0
1a005886:	f000 8114 	beq.w	1a005ab2 <FSSDC_FatFs_DiskIoCtl+0x2ca>
				if ((csd[0] >> 6) == 1) 
1a00588a:	f89d 3000 	ldrb.w	r3, [sp]
1a00588e:	099b      	lsrs	r3, r3, #6
1a005890:	2b01      	cmp	r3, #1
1a005892:	d021      	beq.n	1a0058d8 <FSSDC_FatFs_DiskIoCtl+0xf0>
					n = (csd[5] & 15) + ((csd[10] & 128) >> 7) + ((csd[9] & 3) << 1) + 2;
1a005894:	f89d 2005 	ldrb.w	r2, [sp, #5]
1a005898:	f002 020f 	and.w	r2, r2, #15
1a00589c:	f89d 300a 	ldrb.w	r3, [sp, #10]
1a0058a0:	eb02 12d3 	add.w	r2, r2, r3, lsr #7
1a0058a4:	f89d 3009 	ldrb.w	r3, [sp, #9]
1a0058a8:	005b      	lsls	r3, r3, #1
1a0058aa:	f003 0306 	and.w	r3, r3, #6
1a0058ae:	441a      	add	r2, r3
					csize = (csd[8] >> 6) + ((WORD)csd[7] << 2) + ((WORD)(csd[6] & 3) << 10) + 1;
1a0058b0:	f89d 3008 	ldrb.w	r3, [sp, #8]
1a0058b4:	f89d 1007 	ldrb.w	r1, [sp, #7]
1a0058b8:	099b      	lsrs	r3, r3, #6
1a0058ba:	eb03 0381 	add.w	r3, r3, r1, lsl #2
1a0058be:	f89d 1006 	ldrb.w	r1, [sp, #6]
1a0058c2:	0289      	lsls	r1, r1, #10
1a0058c4:	f401 6140 	and.w	r1, r1, #3072	; 0xc00
1a0058c8:	440b      	add	r3, r1
1a0058ca:	3301      	adds	r3, #1
					*(DWORD*)buff = (DWORD)csize << (n - 9);
1a0058cc:	3a07      	subs	r2, #7
1a0058ce:	4093      	lsls	r3, r2
1a0058d0:	6033      	str	r3, [r6, #0]
		deselect();
1a0058d2:	f7ff fd47 	bl	1a005364 <deselect>
    if (res != RES_OK)
1a0058d6:	e7b1      	b.n	1a00583c <FSSDC_FatFs_DiskIoCtl+0x54>
					csize = csd[9] + ((WORD)csd[8] << 8) + 1;
1a0058d8:	f89d 3009 	ldrb.w	r3, [sp, #9]
1a0058dc:	f89d 2008 	ldrb.w	r2, [sp, #8]
1a0058e0:	eb03 2302 	add.w	r3, r3, r2, lsl #8
1a0058e4:	b29b      	uxth	r3, r3
1a0058e6:	3301      	adds	r3, #1
1a0058e8:	b29b      	uxth	r3, r3
					*(DWORD*)buff = (DWORD)csize << 10;
1a0058ea:	029b      	lsls	r3, r3, #10
1a0058ec:	6033      	str	r3, [r6, #0]
1a0058ee:	e7f0      	b.n	1a0058d2 <FSSDC_FatFs_DiskIoCtl+0xea>
			*(WORD*)buff = 512;
1a0058f0:	f44f 7300 	mov.w	r3, #512	; 0x200
1a0058f4:	800b      	strh	r3, [r1, #0]
		deselect();
1a0058f6:	f7ff fd35 	bl	1a005364 <deselect>
    if (res != RES_OK)
1a0058fa:	e79f      	b.n	1a00583c <FSSDC_FatFs_DiskIoCtl+0x54>
			if (CardType & CT_SD2) {                            /* SDC ver 2.00 */
1a0058fc:	4b73      	ldr	r3, [pc, #460]	; (1a005acc <FSSDC_FatFs_DiskIoCtl+0x2e4>)
1a0058fe:	781b      	ldrb	r3, [r3, #0]
1a005900:	f013 0f04 	tst.w	r3, #4
1a005904:	d020      	beq.n	1a005948 <FSSDC_FatFs_DiskIoCtl+0x160>
				if (send_cmd(ACMD13, 0) == 0)                   /* Read SD status */
1a005906:	2100      	movs	r1, #0
1a005908:	20cd      	movs	r0, #205	; 0xcd
1a00590a:	f7ff fd4b 	bl	1a0053a4 <send_cmd>
1a00590e:	2800      	cmp	r0, #0
1a005910:	f040 80b3 	bne.w	1a005a7a <FSSDC_FatFs_DiskIoCtl+0x292>
					rcvr_spi();
1a005914:	f7ff fd04 	bl	1a005320 <rcvr_spi>
					if (rcvr_datablock(csd, 16))                /* Read partial block */
1a005918:	2110      	movs	r1, #16
1a00591a:	4668      	mov	r0, sp
1a00591c:	f7ff fdb0 	bl	1a005480 <rcvr_datablock>
1a005920:	2800      	cmp	r0, #0
1a005922:	f000 80ae 	beq.w	1a005a82 <FSSDC_FatFs_DiskIoCtl+0x29a>
						for (n = 64 - 16; n; n--) 
1a005926:	2430      	movs	r4, #48	; 0x30
1a005928:	e003      	b.n	1a005932 <FSSDC_FatFs_DiskIoCtl+0x14a>
                            rcvr_spi();                         /* Purge trailing data */
1a00592a:	f7ff fcf9 	bl	1a005320 <rcvr_spi>
						for (n = 64 - 16; n; n--) 
1a00592e:	3c01      	subs	r4, #1
1a005930:	b2e4      	uxtb	r4, r4
1a005932:	2c00      	cmp	r4, #0
1a005934:	d1f9      	bne.n	1a00592a <FSSDC_FatFs_DiskIoCtl+0x142>
						*(DWORD*)buff = 16UL << (csd[10] >> 4);
1a005936:	f89d 300a 	ldrb.w	r3, [sp, #10]
1a00593a:	091a      	lsrs	r2, r3, #4
1a00593c:	2310      	movs	r3, #16
1a00593e:	4093      	lsls	r3, r2
1a005940:	6033      	str	r3, [r6, #0]
		deselect();
1a005942:	f7ff fd0f 	bl	1a005364 <deselect>
    if (res != RES_OK)
1a005946:	e779      	b.n	1a00583c <FSSDC_FatFs_DiskIoCtl+0x54>
				if ((send_cmd(CMD9, 0) == 0) 
1a005948:	2100      	movs	r1, #0
1a00594a:	2049      	movs	r0, #73	; 0x49
1a00594c:	f7ff fd2a 	bl	1a0053a4 <send_cmd>
1a005950:	4604      	mov	r4, r0
1a005952:	2800      	cmp	r0, #0
1a005954:	f040 80a9 	bne.w	1a005aaa <FSSDC_FatFs_DiskIoCtl+0x2c2>
                        && rcvr_datablock(csd, 16)) 
1a005958:	2110      	movs	r1, #16
1a00595a:	4668      	mov	r0, sp
1a00595c:	f7ff fd90 	bl	1a005480 <rcvr_datablock>
1a005960:	2800      	cmp	r0, #0
1a005962:	f000 8086 	beq.w	1a005a72 <FSSDC_FatFs_DiskIoCtl+0x28a>
					if (CardType & CT_SD1)
1a005966:	4b59      	ldr	r3, [pc, #356]	; (1a005acc <FSSDC_FatFs_DiskIoCtl+0x2e4>)
1a005968:	781b      	ldrb	r3, [r3, #0]
1a00596a:	f013 0f02 	tst.w	r3, #2
1a00596e:	d012      	beq.n	1a005996 <FSSDC_FatFs_DiskIoCtl+0x1ae>
						*(DWORD*)buff = (((csd[10] & 63) << 1) + ((WORD)(csd[11] & 128) >> 7) + 1) << ((csd[13] >> 6) - 1);
1a005970:	f89d 300a 	ldrb.w	r3, [sp, #10]
1a005974:	005b      	lsls	r3, r3, #1
1a005976:	f003 037e 	and.w	r3, r3, #126	; 0x7e
1a00597a:	f89d 200b 	ldrb.w	r2, [sp, #11]
1a00597e:	eb03 13d2 	add.w	r3, r3, r2, lsr #7
1a005982:	3301      	adds	r3, #1
1a005984:	f89d 200d 	ldrb.w	r2, [sp, #13]
1a005988:	0992      	lsrs	r2, r2, #6
1a00598a:	3a01      	subs	r2, #1
1a00598c:	4093      	lsls	r3, r2
1a00598e:	6033      	str	r3, [r6, #0]
		deselect();
1a005990:	f7ff fce8 	bl	1a005364 <deselect>
    if (res != RES_OK)
1a005994:	e752      	b.n	1a00583c <FSSDC_FatFs_DiskIoCtl+0x54>
						*(DWORD*)buff = ((WORD)((csd[10] & 124) >> 2) + 1) * (((csd[11] & 3) << 3) + ((csd[11] & 224) >> 5) + 1);
1a005996:	f89d 300a 	ldrb.w	r3, [sp, #10]
1a00599a:	f3c3 0284 	ubfx	r2, r3, #2, #5
1a00599e:	f89d 100b 	ldrb.w	r1, [sp, #11]
1a0059a2:	00cb      	lsls	r3, r1, #3
1a0059a4:	f003 0318 	and.w	r3, r3, #24
1a0059a8:	eb03 1351 	add.w	r3, r3, r1, lsr #5
1a0059ac:	3301      	adds	r3, #1
1a0059ae:	fb02 3303 	mla	r3, r2, r3, r3
1a0059b2:	6033      	str	r3, [r6, #0]
1a0059b4:	e7ec      	b.n	1a005990 <FSSDC_FatFs_DiskIoCtl+0x1a8>
			*ptr = CardType;
1a0059b6:	4b45      	ldr	r3, [pc, #276]	; (1a005acc <FSSDC_FatFs_DiskIoCtl+0x2e4>)
1a0059b8:	781b      	ldrb	r3, [r3, #0]
1a0059ba:	700b      	strb	r3, [r1, #0]
		deselect();
1a0059bc:	f7ff fcd2 	bl	1a005364 <deselect>
    if (res != RES_OK)
1a0059c0:	e73c      	b.n	1a00583c <FSSDC_FatFs_DiskIoCtl+0x54>
			if (send_cmd(CMD9, 0) == 0		/* READ_CSD */
1a0059c2:	2100      	movs	r1, #0
1a0059c4:	2049      	movs	r0, #73	; 0x49
1a0059c6:	f7ff fced 	bl	1a0053a4 <send_cmd>
1a0059ca:	4604      	mov	r4, r0
1a0059cc:	2800      	cmp	r0, #0
1a0059ce:	d14c      	bne.n	1a005a6a <FSSDC_FatFs_DiskIoCtl+0x282>
                    && rcvr_datablock(ptr, 16))
1a0059d0:	2110      	movs	r1, #16
1a0059d2:	4630      	mov	r0, r6
1a0059d4:	f7ff fd54 	bl	1a005480 <rcvr_datablock>
1a0059d8:	2800      	cmp	r0, #0
1a0059da:	d143      	bne.n	1a005a64 <FSSDC_FatFs_DiskIoCtl+0x27c>
		deselect();
1a0059dc:	f7ff fcc2 	bl	1a005364 <deselect>
	res = RES_ERROR;
1a0059e0:	2401      	movs	r4, #1
1a0059e2:	e728      	b.n	1a005836 <FSSDC_FatFs_DiskIoCtl+0x4e>
			if (send_cmd(CMD10, 0) == 0		/* READ_CID */
1a0059e4:	2100      	movs	r1, #0
1a0059e6:	204a      	movs	r0, #74	; 0x4a
1a0059e8:	f7ff fcdc 	bl	1a0053a4 <send_cmd>
1a0059ec:	4604      	mov	r4, r0
1a0059ee:	bba8      	cbnz	r0, 1a005a5c <FSSDC_FatFs_DiskIoCtl+0x274>
                    && rcvr_datablock(ptr, 16))
1a0059f0:	2110      	movs	r1, #16
1a0059f2:	4630      	mov	r0, r6
1a0059f4:	f7ff fd44 	bl	1a005480 <rcvr_datablock>
1a0059f8:	bb68      	cbnz	r0, 1a005a56 <FSSDC_FatFs_DiskIoCtl+0x26e>
		deselect();
1a0059fa:	f7ff fcb3 	bl	1a005364 <deselect>
	res = RES_ERROR;
1a0059fe:	2401      	movs	r4, #1
1a005a00:	e719      	b.n	1a005836 <FSSDC_FatFs_DiskIoCtl+0x4e>
			if (send_cmd(CMD58, 0) == 0) 
1a005a02:	2100      	movs	r1, #0
1a005a04:	207a      	movs	r0, #122	; 0x7a
1a005a06:	f7ff fccd 	bl	1a0053a4 <send_cmd>
1a005a0a:	bb00      	cbnz	r0, 1a005a4e <FSSDC_FatFs_DiskIoCtl+0x266>
				for (n = 4; n; n--) 
1a005a0c:	2404      	movs	r4, #4
1a005a0e:	e005      	b.n	1a005a1c <FSSDC_FatFs_DiskIoCtl+0x234>
                    *ptr++ = rcvr_spi();
1a005a10:	f7ff fc86 	bl	1a005320 <rcvr_spi>
1a005a14:	f806 0b01 	strb.w	r0, [r6], #1
				for (n = 4; n; n--) 
1a005a18:	3c01      	subs	r4, #1
1a005a1a:	b2e4      	uxtb	r4, r4
1a005a1c:	2c00      	cmp	r4, #0
1a005a1e:	d1f7      	bne.n	1a005a10 <FSSDC_FatFs_DiskIoCtl+0x228>
		deselect();
1a005a20:	f7ff fca0 	bl	1a005364 <deselect>
    if (res != RES_OK)
1a005a24:	e70a      	b.n	1a00583c <FSSDC_FatFs_DiskIoCtl+0x54>
			if (send_cmd(ACMD13, 0) == 0) 
1a005a26:	2100      	movs	r1, #0
1a005a28:	20cd      	movs	r0, #205	; 0xcd
1a005a2a:	f7ff fcbb 	bl	1a0053a4 <send_cmd>
1a005a2e:	4604      	mov	r4, r0
1a005a30:	b948      	cbnz	r0, 1a005a46 <FSSDC_FatFs_DiskIoCtl+0x25e>
				rcvr_spi();
1a005a32:	f7ff fc75 	bl	1a005320 <rcvr_spi>
				if (rcvr_datablock(ptr, 64))
1a005a36:	2140      	movs	r1, #64	; 0x40
1a005a38:	4630      	mov	r0, r6
1a005a3a:	f7ff fd21 	bl	1a005480 <rcvr_datablock>
1a005a3e:	b380      	cbz	r0, 1a005aa2 <FSSDC_FatFs_DiskIoCtl+0x2ba>
		deselect();
1a005a40:	f7ff fc90 	bl	1a005364 <deselect>
    if (res != RES_OK)
1a005a44:	e6fa      	b.n	1a00583c <FSSDC_FatFs_DiskIoCtl+0x54>
		deselect();
1a005a46:	f7ff fc8d 	bl	1a005364 <deselect>
	res = RES_ERROR;
1a005a4a:	2401      	movs	r4, #1
1a005a4c:	e6f3      	b.n	1a005836 <FSSDC_FatFs_DiskIoCtl+0x4e>
		deselect();
1a005a4e:	f7ff fc89 	bl	1a005364 <deselect>
	res = RES_ERROR;
1a005a52:	2401      	movs	r4, #1
1a005a54:	e6ef      	b.n	1a005836 <FSSDC_FatFs_DiskIoCtl+0x4e>
		deselect();
1a005a56:	f7ff fc85 	bl	1a005364 <deselect>
    if (res != RES_OK)
1a005a5a:	e6ef      	b.n	1a00583c <FSSDC_FatFs_DiskIoCtl+0x54>
		deselect();
1a005a5c:	f7ff fc82 	bl	1a005364 <deselect>
	res = RES_ERROR;
1a005a60:	2401      	movs	r4, #1
1a005a62:	e6e8      	b.n	1a005836 <FSSDC_FatFs_DiskIoCtl+0x4e>
		deselect();
1a005a64:	f7ff fc7e 	bl	1a005364 <deselect>
    if (res != RES_OK)
1a005a68:	e6e8      	b.n	1a00583c <FSSDC_FatFs_DiskIoCtl+0x54>
		deselect();
1a005a6a:	f7ff fc7b 	bl	1a005364 <deselect>
	res = RES_ERROR;
1a005a6e:	2401      	movs	r4, #1
1a005a70:	e6e1      	b.n	1a005836 <FSSDC_FatFs_DiskIoCtl+0x4e>
		deselect();
1a005a72:	f7ff fc77 	bl	1a005364 <deselect>
	res = RES_ERROR;
1a005a76:	2401      	movs	r4, #1
1a005a78:	e6dd      	b.n	1a005836 <FSSDC_FatFs_DiskIoCtl+0x4e>
		deselect();
1a005a7a:	f7ff fc73 	bl	1a005364 <deselect>
	res = RES_ERROR;
1a005a7e:	2401      	movs	r4, #1
1a005a80:	e6d9      	b.n	1a005836 <FSSDC_FatFs_DiskIoCtl+0x4e>
		deselect();
1a005a82:	f7ff fc6f 	bl	1a005364 <deselect>
	res = RES_ERROR;
1a005a86:	2401      	movs	r4, #1
1a005a88:	e6d5      	b.n	1a005836 <FSSDC_FatFs_DiskIoCtl+0x4e>
		deselect();
1a005a8a:	f7ff fc6b 	bl	1a005364 <deselect>
	res = RES_ERROR;
1a005a8e:	462c      	mov	r4, r5
1a005a90:	e6d1      	b.n	1a005836 <FSSDC_FatFs_DiskIoCtl+0x4e>
		deselect();
1a005a92:	f7ff fc67 	bl	1a005364 <deselect>
	res = RES_ERROR;
1a005a96:	2401      	movs	r4, #1
1a005a98:	e6cd      	b.n	1a005836 <FSSDC_FatFs_DiskIoCtl+0x4e>
		deselect();
1a005a9a:	f7ff fc63 	bl	1a005364 <deselect>
			res = RES_PARERR;
1a005a9e:	2404      	movs	r4, #4
1a005aa0:	e6c9      	b.n	1a005836 <FSSDC_FatFs_DiskIoCtl+0x4e>
		deselect();
1a005aa2:	f7ff fc5f 	bl	1a005364 <deselect>
	res = RES_ERROR;
1a005aa6:	2401      	movs	r4, #1
1a005aa8:	e6c5      	b.n	1a005836 <FSSDC_FatFs_DiskIoCtl+0x4e>
		deselect();
1a005aaa:	f7ff fc5b 	bl	1a005364 <deselect>
	res = RES_ERROR;
1a005aae:	2401      	movs	r4, #1
1a005ab0:	e6c1      	b.n	1a005836 <FSSDC_FatFs_DiskIoCtl+0x4e>
		deselect();
1a005ab2:	f7ff fc57 	bl	1a005364 <deselect>
	res = RES_ERROR;
1a005ab6:	462c      	mov	r4, r5
1a005ab8:	e6bd      	b.n	1a005836 <FSSDC_FatFs_DiskIoCtl+0x4e>
		switch (*ptr) {
1a005aba:	2400      	movs	r4, #0
1a005abc:	e6be      	b.n	1a00583c <FSSDC_FatFs_DiskIoCtl+0x54>
1a005abe:	bf00      	nop
1a005ac0:	100000c9 	.word	0x100000c9
1a005ac4:	1a0078c4 	.word	0x1a0078c4
1a005ac8:	1a00789c 	.word	0x1a00789c
1a005acc:	100005f0 	.word	0x100005f0

1a005ad0 <FSSDC_InitSPI>:
    WARNING: for card connectors without presence detection
    >>>> Only call this function when the card is inserted!
--------------------------------------------------------------------------------
*/
void FSSDC_InitSPI ()
{
1a005ad0:	b510      	push	{r4, lr}
        seems to work at mode 0 at the SPI mode. Thus the SPI mode 0 (CPHA=0, CPOL=0)
        is the proper setting to control MMC/SDC
        
        http://elm-chan.org/docs/mmc/mmc_e.html#spimode
    */
    Chip_SSP_Init       (LPC_SSP1);
1a005ad2:	4c13      	ldr	r4, [pc, #76]	; (1a005b20 <FSSDC_InitSPI+0x50>)
1a005ad4:	4620      	mov	r0, r4
1a005ad6:	f7ff fb85 	bl	1a0051e4 <Chip_SSP_Init>
	pSSP->CR1 = (pSSP->CR1 & ~(1 << 2)) | mode;
1a005ada:	6863      	ldr	r3, [r4, #4]
1a005adc:	f023 0304 	bic.w	r3, r3, #4
1a005ae0:	6063      	str	r3, [r4, #4]
	pSSP->CR0 = (pSSP->CR0 & ~0xFF) | bits | frameFormat | clockMode;
1a005ae2:	6823      	ldr	r3, [r4, #0]
1a005ae4:	f023 03ff 	bic.w	r3, r3, #255	; 0xff
1a005ae8:	f043 0307 	orr.w	r3, r3, #7
1a005aec:	6023      	str	r3, [r4, #0]
    Chip_SSP_Set_Mode   (LPC_SSP1, SSP_MODE_MASTER);
    Chip_SSP_SetFormat  (LPC_SSP1, SSP_BITS_8, SSP_FRAMEFORMAT_SPI,
                         SSP_CLOCK_CPHA0_CPOL0);
    FCLK_SLOW           ();
1a005aee:	4b0d      	ldr	r3, [pc, #52]	; (1a005b24 <FSSDC_InitSPI+0x54>)
1a005af0:	6819      	ldr	r1, [r3, #0]
1a005af2:	4620      	mov	r0, r4
1a005af4:	f7ff fb57 	bl	1a0051a6 <Chip_SSP_SetBitRate>
	pSSP->CR1 |= SSP_CR1_SSP_EN;
1a005af8:	6863      	ldr	r3, [r4, #4]
1a005afa:	f043 0302 	orr.w	r3, r3, #2
1a005afe:	6063      	str	r3, [r4, #4]
    Chip_SSP_Enable     (LPC_SSP1);
    
    // PLEASE NOTE: muxing and direction of CS signal on FSSDC_CS_{PIN/PORT}
    //              must be configured beforehand!
    deselect ();    
1a005b00:	f7ff fc30 	bl	1a005364 <deselect>
    
#ifndef FSSDC_SUPPORTS_HOT_INSERTION
    g_diskStats &= ~STA_NODISK;
1a005b04:	4a08      	ldr	r2, [pc, #32]	; (1a005b28 <FSSDC_InitSPI+0x58>)
1a005b06:	7813      	ldrb	r3, [r2, #0]
1a005b08:	f003 03fd 	and.w	r3, r3, #253	; 0xfd
1a005b0c:	7013      	strb	r3, [r2, #0]
    Board_UARTPutSTR ("FSSDC: [InitSPI] New card status: Inserted.\r\n");
1a005b0e:	4807      	ldr	r0, [pc, #28]	; (1a005b2c <FSSDC_InitSPI+0x5c>)
1a005b10:	f7fe fb84 	bl	1a00421c <Board_UARTPutSTR>
    newCardStatus (FSSDC_CardStatus_Inserted);
1a005b14:	2002      	movs	r0, #2
1a005b16:	f7ff fbc5 	bl	1a0052a4 <newCardStatus>
    FSSDC_FatFs_DiskInitialize ();
1a005b1a:	f7ff fce7 	bl	1a0054ec <FSSDC_FatFs_DiskInitialize>
#endif
}
1a005b1e:	bd10      	pop	{r4, pc}
1a005b20:	400c5000 	.word	0x400c5000
1a005b24:	100000d0 	.word	0x100000d0
1a005b28:	100000c9 	.word	0x100000c9
1a005b2c:	1a0078e8 	.word	0x1a0078e8

1a005b30 <FSSDC_GetSlowClock>:


uint32_t FSSDC_GetSlowClock ()
{
    return g_spiSlowClock;
1a005b30:	4b01      	ldr	r3, [pc, #4]	; (1a005b38 <FSSDC_GetSlowClock+0x8>)
1a005b32:	6818      	ldr	r0, [r3, #0]
}
1a005b34:	4770      	bx	lr
1a005b36:	bf00      	nop
1a005b38:	100000d0 	.word	0x100000d0

1a005b3c <FSSDC_GetFastClock>:


uint32_t FSSDC_GetFastClock ()
{
    return g_spiFastClock;
1a005b3c:	4b01      	ldr	r3, [pc, #4]	; (1a005b44 <FSSDC_GetFastClock+0x8>)
1a005b3e:	6818      	ldr	r0, [r3, #0]
}
1a005b40:	4770      	bx	lr
1a005b42:	bf00      	nop
1a005b44:	100000cc 	.word	0x100000cc

1a005b48 <FSSDC_SetStatusUpdateCallback>:
}


void FSSDC_SetStatusUpdateCallback (FSSDC_StatusUpdateCallback_Func func)
{
    g_statusUpdateCallback = func;
1a005b48:	4b01      	ldr	r3, [pc, #4]	; (1a005b50 <FSSDC_SetStatusUpdateCallback+0x8>)
1a005b4a:	6018      	str	r0, [r3, #0]
}
1a005b4c:	4770      	bx	lr
1a005b4e:	bf00      	nop
1a005b50:	100005f4 	.word	0x100005f4

1a005b54 <FSSDC_Update>:
/* Device Timer Interrupt Procedure  (Platform dependent)                */
/*-----------------------------------------------------------------------*/
/* This function must be called in period of 10ms                        */
void FSSDC_Update ()
{   
    if (Timer1)             /* 100Hz decrement timer */
1a005b54:	4b08      	ldr	r3, [pc, #32]	; (1a005b78 <FSSDC_Update+0x24>)
1a005b56:	781b      	ldrb	r3, [r3, #0]
1a005b58:	b123      	cbz	r3, 1a005b64 <FSSDC_Update+0x10>
    {
        -- Timer1;
1a005b5a:	4a07      	ldr	r2, [pc, #28]	; (1a005b78 <FSSDC_Update+0x24>)
1a005b5c:	7813      	ldrb	r3, [r2, #0]
1a005b5e:	3b01      	subs	r3, #1
1a005b60:	b2db      	uxtb	r3, r3
1a005b62:	7013      	strb	r3, [r2, #0]
    }
    
    if (Timer2)
1a005b64:	4b05      	ldr	r3, [pc, #20]	; (1a005b7c <FSSDC_Update+0x28>)
1a005b66:	781b      	ldrb	r3, [r3, #0]
1a005b68:	b123      	cbz	r3, 1a005b74 <FSSDC_Update+0x20>
    {
        -- Timer2;
1a005b6a:	4a04      	ldr	r2, [pc, #16]	; (1a005b7c <FSSDC_Update+0x28>)
1a005b6c:	7813      	ldrb	r3, [r2, #0]
1a005b6e:	3b01      	subs	r3, #1
1a005b70:	b2db      	uxtb	r3, r3
1a005b72:	7013      	strb	r3, [r2, #0]
			s &= ~STA_NODISK;

		g_diskStats = s;
	}
    #endif
}
1a005b74:	4770      	bx	lr
1a005b76:	bf00      	nop
1a005b78:	100005f1 	.word	0x100005f1
1a005b7c:	100005f2 	.word	0x100005f2

1a005b80 <get_fattime>:


// Definitions required by FatFs according to ffconf.h
#if !FF_FS_READONLY && !FF_FS_NORTC
DWORD get_fattime (void)
{
1a005b80:	b500      	push	{lr}
1a005b82:	b089      	sub	sp, #36	; 0x24
	/* Get local time */
    RTC_TIME_T rtcTime;
	Chip_RTC_GetFullTime (LPC_RTC, &rtcTime);
1a005b84:	4669      	mov	r1, sp
1a005b86:	480c      	ldr	r0, [pc, #48]	; (1a005bb8 <get_fattime+0x38>)
1a005b88:	f7ff fa2c 	bl	1a004fe4 <Chip_RTC_GetFullTime>

	/* Pack date and time into a DWORD variable */
	return (  (DWORD) (rtcTime.time[RTC_TIMETYPE_YEAR] - 1980)  << 25)
1a005b8c:	9b07      	ldr	r3, [sp, #28]
1a005b8e:	f2a3 70bc 	subw	r0, r3, #1980	; 0x7bc
		   | ((DWORD)  rtcTime.time[RTC_TIMETYPE_MONTH]         << 21)
1a005b92:	9b06      	ldr	r3, [sp, #24]
1a005b94:	055b      	lsls	r3, r3, #21
1a005b96:	ea43 6340 	orr.w	r3, r3, r0, lsl #25
		   | ((DWORD)  rtcTime.time[RTC_TIMETYPE_DAYOFMONTH]    << 16)
1a005b9a:	9803      	ldr	r0, [sp, #12]
1a005b9c:	ea43 4300 	orr.w	r3, r3, r0, lsl #16
		   | ((DWORD)  rtcTime.time[RTC_TIMETYPE_HOUR]          << 11)
1a005ba0:	9802      	ldr	r0, [sp, #8]
1a005ba2:	ea43 23c0 	orr.w	r3, r3, r0, lsl #11
		   | ((DWORD)  rtcTime.time[RTC_TIMETYPE_MINUTE]        << 5)
1a005ba6:	9801      	ldr	r0, [sp, #4]
1a005ba8:	ea43 1340 	orr.w	r3, r3, r0, lsl #5
		   | ((DWORD)  rtcTime.time[RTC_TIMETYPE_SECOND]        >> 1);
}
1a005bac:	9800      	ldr	r0, [sp, #0]
1a005bae:	ea43 0050 	orr.w	r0, r3, r0, lsr #1
1a005bb2:	b009      	add	sp, #36	; 0x24
1a005bb4:	f85d fb04 	ldr.w	pc, [sp], #4
1a005bb8:	40046000 	.word	0x40046000

1a005bbc <disk_timerproc>:
};
#endif

// Must be called once every 10 ms ideally from PendSV, not SysTickHandler!
void disk_timerproc (void)
{
1a005bbc:	b508      	push	{r3, lr}
    FSSDC_Update ();
1a005bbe:	f7ff ffc9 	bl	1a005b54 <FSSDC_Update>
    #ifdef LPCUSBLIB_HOST_MASS_STORAGE
    FSUSB_Update ();
    #endif
}
1a005bc2:	bd08      	pop	{r3, pc}

1a005bc4 <disk_status>:

DSTATUS disk_status (
	BYTE pdrv           /* Physical drive nmuber to identify the drive */
)
{    
    switch (pdrv)
1a005bc4:	b108      	cbz	r0, 1a005bca <disk_status+0x6>
            #else
            break;
            #endif
    }

    return STA_NOINIT;
1a005bc6:	2001      	movs	r0, #1
}
1a005bc8:	4770      	bx	lr
{    
1a005bca:	b508      	push	{r3, lr}
            return FSSDC_FatFs_DiskStatus ();
1a005bcc:	f7ff fc88 	bl	1a0054e0 <FSSDC_FatFs_DiskStatus>
}
1a005bd0:	bd08      	pop	{r3, pc}

1a005bd2 <disk_initialize>:

DSTATUS disk_initialize (
	BYTE pdrv           /* Physical drive nmuber to identify the drive */
)
{
    switch (pdrv)
1a005bd2:	b108      	cbz	r0, 1a005bd8 <disk_initialize+0x6>
            #else
            break;
            #endif
    }
    
    return STA_NOINIT;
1a005bd4:	2001      	movs	r0, #1
}
1a005bd6:	4770      	bx	lr
{
1a005bd8:	b508      	push	{r3, lr}
            return FSSDC_FatFs_DiskInitialize ();
1a005bda:	f7ff fc87 	bl	1a0054ec <FSSDC_FatFs_DiskInitialize>
}
1a005bde:	bd08      	pop	{r3, pc}

1a005be0 <disk_read>:
	BYTE *buff,         /* Data buffer to store read data */
	DWORD sector,       /* Start sector in LBA */
	UINT count          /* Number of sectors to read */
)
{
	if (!buff || !count) 
1a005be0:	b161      	cbz	r1, 1a005bfc <disk_read+0x1c>
{
1a005be2:	b538      	push	{r3, r4, r5, lr}
1a005be4:	4614      	mov	r4, r2
1a005be6:	460d      	mov	r5, r1
	if (!buff || !count) 
1a005be8:	b153      	cbz	r3, 1a005c00 <disk_read+0x20>
    {
		return RES_PARERR;
	}
    
    switch (pdrv)
1a005bea:	b108      	cbz	r0, 1a005bf0 <disk_read+0x10>
            #else
            break;
            #endif
    }
    
    return RES_PARERR;
1a005bec:	2004      	movs	r0, #4
}
1a005bee:	bd38      	pop	{r3, r4, r5, pc}
            return FSSDC_FatFs_DiskRead (buff, sector, count);
1a005bf0:	461a      	mov	r2, r3
1a005bf2:	4621      	mov	r1, r4
1a005bf4:	4628      	mov	r0, r5
1a005bf6:	f7ff fd5b 	bl	1a0056b0 <FSSDC_FatFs_DiskRead>
1a005bfa:	e7f8      	b.n	1a005bee <disk_read+0xe>
		return RES_PARERR;
1a005bfc:	2004      	movs	r0, #4
}
1a005bfe:	4770      	bx	lr
		return RES_PARERR;
1a005c00:	2004      	movs	r0, #4
1a005c02:	e7f4      	b.n	1a005bee <disk_read+0xe>

1a005c04 <disk_write>:
	const BYTE *buff,	/* Data to be written */
	DWORD sector,		/* Start sector in LBA */
	UINT count			/* Number of sectors to write */
)
{
	if (!buff || !count)
1a005c04:	b161      	cbz	r1, 1a005c20 <disk_write+0x1c>
{
1a005c06:	b538      	push	{r3, r4, r5, lr}
1a005c08:	4614      	mov	r4, r2
1a005c0a:	460d      	mov	r5, r1
	if (!buff || !count)
1a005c0c:	b153      	cbz	r3, 1a005c24 <disk_write+0x20>
    {
		return RES_PARERR;
	}
    
    switch (pdrv)
1a005c0e:	b108      	cbz	r0, 1a005c14 <disk_write+0x10>
            #else
            break;
            #endif
    }
    
	return RES_PARERR;
1a005c10:	2004      	movs	r0, #4
}
1a005c12:	bd38      	pop	{r3, r4, r5, pc}
            return FSSDC_FatFs_DiskWrite (buff, sector, count);
1a005c14:	461a      	mov	r2, r3
1a005c16:	4621      	mov	r1, r4
1a005c18:	4628      	mov	r0, r5
1a005c1a:	f7ff fd8b 	bl	1a005734 <FSSDC_FatFs_DiskWrite>
1a005c1e:	e7f8      	b.n	1a005c12 <disk_write+0xe>
		return RES_PARERR;
1a005c20:	2004      	movs	r0, #4
}
1a005c22:	4770      	bx	lr
		return RES_PARERR;
1a005c24:	2004      	movs	r0, #4
1a005c26:	e7f4      	b.n	1a005c12 <disk_write+0xe>

1a005c28 <disk_ioctl>:
	BYTE pdrv,          /* Physical drive nmuber (0..) */
	BYTE cmd,           /* Control code */
	void *buff          /* Buffer to send/receive control data */
)
{   
    switch (pdrv)
1a005c28:	b108      	cbz	r0, 1a005c2e <disk_ioctl+0x6>
            #else
            break;
            #endif
    }

	return RES_PARERR;
1a005c2a:	2004      	movs	r0, #4
}
1a005c2c:	4770      	bx	lr
{   
1a005c2e:	b508      	push	{r3, lr}
1a005c30:	460b      	mov	r3, r1
            return FSSDC_FatFs_DiskIoCtl (cmd, buff);
1a005c32:	4611      	mov	r1, r2
1a005c34:	4618      	mov	r0, r3
1a005c36:	f7ff fdd7 	bl	1a0057e8 <FSSDC_FatFs_DiskIoCtl>
}
1a005c3a:	bd08      	pop	{r3, pc}

1a005c3c <__aeabi_ldivmod>:
1a005c3c:	b97b      	cbnz	r3, 1a005c5e <__aeabi_ldivmod+0x22>
1a005c3e:	b972      	cbnz	r2, 1a005c5e <__aeabi_ldivmod+0x22>
1a005c40:	2900      	cmp	r1, #0
1a005c42:	bfbe      	ittt	lt
1a005c44:	2000      	movlt	r0, #0
1a005c46:	f04f 4100 	movlt.w	r1, #2147483648	; 0x80000000
1a005c4a:	e006      	blt.n	1a005c5a <__aeabi_ldivmod+0x1e>
1a005c4c:	bf08      	it	eq
1a005c4e:	2800      	cmpeq	r0, #0
1a005c50:	bf1c      	itt	ne
1a005c52:	f06f 4100 	mvnne.w	r1, #2147483648	; 0x80000000
1a005c56:	f04f 30ff 	movne.w	r0, #4294967295	; 0xffffffff
1a005c5a:	f000 b9b9 	b.w	1a005fd0 <__aeabi_idiv0>
1a005c5e:	f1ad 0c08 	sub.w	ip, sp, #8
1a005c62:	e96d ce04 	strd	ip, lr, [sp, #-16]!
1a005c66:	2900      	cmp	r1, #0
1a005c68:	db09      	blt.n	1a005c7e <__aeabi_ldivmod+0x42>
1a005c6a:	2b00      	cmp	r3, #0
1a005c6c:	db1a      	blt.n	1a005ca4 <__aeabi_ldivmod+0x68>
1a005c6e:	f000 f84d 	bl	1a005d0c <__udivmoddi4>
1a005c72:	f8dd e004 	ldr.w	lr, [sp, #4]
1a005c76:	e9dd 2302 	ldrd	r2, r3, [sp, #8]
1a005c7a:	b004      	add	sp, #16
1a005c7c:	4770      	bx	lr
1a005c7e:	4240      	negs	r0, r0
1a005c80:	eb61 0141 	sbc.w	r1, r1, r1, lsl #1
1a005c84:	2b00      	cmp	r3, #0
1a005c86:	db1b      	blt.n	1a005cc0 <__aeabi_ldivmod+0x84>
1a005c88:	f000 f840 	bl	1a005d0c <__udivmoddi4>
1a005c8c:	f8dd e004 	ldr.w	lr, [sp, #4]
1a005c90:	e9dd 2302 	ldrd	r2, r3, [sp, #8]
1a005c94:	b004      	add	sp, #16
1a005c96:	4240      	negs	r0, r0
1a005c98:	eb61 0141 	sbc.w	r1, r1, r1, lsl #1
1a005c9c:	4252      	negs	r2, r2
1a005c9e:	eb63 0343 	sbc.w	r3, r3, r3, lsl #1
1a005ca2:	4770      	bx	lr
1a005ca4:	4252      	negs	r2, r2
1a005ca6:	eb63 0343 	sbc.w	r3, r3, r3, lsl #1
1a005caa:	f000 f82f 	bl	1a005d0c <__udivmoddi4>
1a005cae:	f8dd e004 	ldr.w	lr, [sp, #4]
1a005cb2:	e9dd 2302 	ldrd	r2, r3, [sp, #8]
1a005cb6:	b004      	add	sp, #16
1a005cb8:	4240      	negs	r0, r0
1a005cba:	eb61 0141 	sbc.w	r1, r1, r1, lsl #1
1a005cbe:	4770      	bx	lr
1a005cc0:	4252      	negs	r2, r2
1a005cc2:	eb63 0343 	sbc.w	r3, r3, r3, lsl #1
1a005cc6:	f000 f821 	bl	1a005d0c <__udivmoddi4>
1a005cca:	f8dd e004 	ldr.w	lr, [sp, #4]
1a005cce:	e9dd 2302 	ldrd	r2, r3, [sp, #8]
1a005cd2:	b004      	add	sp, #16
1a005cd4:	4252      	negs	r2, r2
1a005cd6:	eb63 0343 	sbc.w	r3, r3, r3, lsl #1
1a005cda:	4770      	bx	lr

1a005cdc <__aeabi_uldivmod>:
1a005cdc:	b953      	cbnz	r3, 1a005cf4 <__aeabi_uldivmod+0x18>
1a005cde:	b94a      	cbnz	r2, 1a005cf4 <__aeabi_uldivmod+0x18>
1a005ce0:	2900      	cmp	r1, #0
1a005ce2:	bf08      	it	eq
1a005ce4:	2800      	cmpeq	r0, #0
1a005ce6:	bf1c      	itt	ne
1a005ce8:	f04f 31ff 	movne.w	r1, #4294967295	; 0xffffffff
1a005cec:	f04f 30ff 	movne.w	r0, #4294967295	; 0xffffffff
1a005cf0:	f000 b96e 	b.w	1a005fd0 <__aeabi_idiv0>
1a005cf4:	f1ad 0c08 	sub.w	ip, sp, #8
1a005cf8:	e96d ce04 	strd	ip, lr, [sp, #-16]!
1a005cfc:	f000 f806 	bl	1a005d0c <__udivmoddi4>
1a005d00:	f8dd e004 	ldr.w	lr, [sp, #4]
1a005d04:	e9dd 2302 	ldrd	r2, r3, [sp, #8]
1a005d08:	b004      	add	sp, #16
1a005d0a:	4770      	bx	lr

1a005d0c <__udivmoddi4>:
1a005d0c:	e92d 47f0 	stmdb	sp!, {r4, r5, r6, r7, r8, r9, sl, lr}
1a005d10:	9d08      	ldr	r5, [sp, #32]
1a005d12:	4604      	mov	r4, r0
1a005d14:	468c      	mov	ip, r1
1a005d16:	2b00      	cmp	r3, #0
1a005d18:	f040 8083 	bne.w	1a005e22 <__udivmoddi4+0x116>
1a005d1c:	428a      	cmp	r2, r1
1a005d1e:	4617      	mov	r7, r2
1a005d20:	d947      	bls.n	1a005db2 <__udivmoddi4+0xa6>
1a005d22:	fab2 f282 	clz	r2, r2
1a005d26:	b142      	cbz	r2, 1a005d3a <__udivmoddi4+0x2e>
1a005d28:	f1c2 0020 	rsb	r0, r2, #32
1a005d2c:	fa24 f000 	lsr.w	r0, r4, r0
1a005d30:	4091      	lsls	r1, r2
1a005d32:	4097      	lsls	r7, r2
1a005d34:	ea40 0c01 	orr.w	ip, r0, r1
1a005d38:	4094      	lsls	r4, r2
1a005d3a:	ea4f 4817 	mov.w	r8, r7, lsr #16
1a005d3e:	0c23      	lsrs	r3, r4, #16
1a005d40:	fbbc f6f8 	udiv	r6, ip, r8
1a005d44:	fa1f fe87 	uxth.w	lr, r7
1a005d48:	fb08 c116 	mls	r1, r8, r6, ip
1a005d4c:	ea43 4301 	orr.w	r3, r3, r1, lsl #16
1a005d50:	fb06 f10e 	mul.w	r1, r6, lr
1a005d54:	4299      	cmp	r1, r3
1a005d56:	d909      	bls.n	1a005d6c <__udivmoddi4+0x60>
1a005d58:	18fb      	adds	r3, r7, r3
1a005d5a:	f106 30ff 	add.w	r0, r6, #4294967295	; 0xffffffff
1a005d5e:	f080 8119 	bcs.w	1a005f94 <__udivmoddi4+0x288>
1a005d62:	4299      	cmp	r1, r3
1a005d64:	f240 8116 	bls.w	1a005f94 <__udivmoddi4+0x288>
1a005d68:	3e02      	subs	r6, #2
1a005d6a:	443b      	add	r3, r7
1a005d6c:	1a5b      	subs	r3, r3, r1
1a005d6e:	b2a4      	uxth	r4, r4
1a005d70:	fbb3 f0f8 	udiv	r0, r3, r8
1a005d74:	fb08 3310 	mls	r3, r8, r0, r3
1a005d78:	ea44 4403 	orr.w	r4, r4, r3, lsl #16
1a005d7c:	fb00 fe0e 	mul.w	lr, r0, lr
1a005d80:	45a6      	cmp	lr, r4
1a005d82:	d909      	bls.n	1a005d98 <__udivmoddi4+0x8c>
1a005d84:	193c      	adds	r4, r7, r4
1a005d86:	f100 33ff 	add.w	r3, r0, #4294967295	; 0xffffffff
1a005d8a:	f080 8105 	bcs.w	1a005f98 <__udivmoddi4+0x28c>
1a005d8e:	45a6      	cmp	lr, r4
1a005d90:	f240 8102 	bls.w	1a005f98 <__udivmoddi4+0x28c>
1a005d94:	3802      	subs	r0, #2
1a005d96:	443c      	add	r4, r7
1a005d98:	ea40 4006 	orr.w	r0, r0, r6, lsl #16
1a005d9c:	eba4 040e 	sub.w	r4, r4, lr
1a005da0:	2600      	movs	r6, #0
1a005da2:	b11d      	cbz	r5, 1a005dac <__udivmoddi4+0xa0>
1a005da4:	40d4      	lsrs	r4, r2
1a005da6:	2300      	movs	r3, #0
1a005da8:	e9c5 4300 	strd	r4, r3, [r5]
1a005dac:	4631      	mov	r1, r6
1a005dae:	e8bd 87f0 	ldmia.w	sp!, {r4, r5, r6, r7, r8, r9, sl, pc}
1a005db2:	b902      	cbnz	r2, 1a005db6 <__udivmoddi4+0xaa>
1a005db4:	deff      	udf	#255	; 0xff
1a005db6:	fab2 f282 	clz	r2, r2
1a005dba:	2a00      	cmp	r2, #0
1a005dbc:	d150      	bne.n	1a005e60 <__udivmoddi4+0x154>
1a005dbe:	1bcb      	subs	r3, r1, r7
1a005dc0:	ea4f 4e17 	mov.w	lr, r7, lsr #16
1a005dc4:	fa1f f887 	uxth.w	r8, r7
1a005dc8:	2601      	movs	r6, #1
1a005dca:	fbb3 fcfe 	udiv	ip, r3, lr
1a005dce:	0c21      	lsrs	r1, r4, #16
1a005dd0:	fb0e 331c 	mls	r3, lr, ip, r3
1a005dd4:	ea41 4103 	orr.w	r1, r1, r3, lsl #16
1a005dd8:	fb08 f30c 	mul.w	r3, r8, ip
1a005ddc:	428b      	cmp	r3, r1
1a005dde:	d907      	bls.n	1a005df0 <__udivmoddi4+0xe4>
1a005de0:	1879      	adds	r1, r7, r1
1a005de2:	f10c 30ff 	add.w	r0, ip, #4294967295	; 0xffffffff
1a005de6:	d202      	bcs.n	1a005dee <__udivmoddi4+0xe2>
1a005de8:	428b      	cmp	r3, r1
1a005dea:	f200 80e9 	bhi.w	1a005fc0 <__udivmoddi4+0x2b4>
1a005dee:	4684      	mov	ip, r0
1a005df0:	1ac9      	subs	r1, r1, r3
1a005df2:	b2a3      	uxth	r3, r4
1a005df4:	fbb1 f0fe 	udiv	r0, r1, lr
1a005df8:	fb0e 1110 	mls	r1, lr, r0, r1
1a005dfc:	ea43 4401 	orr.w	r4, r3, r1, lsl #16
1a005e00:	fb08 f800 	mul.w	r8, r8, r0
1a005e04:	45a0      	cmp	r8, r4
1a005e06:	d907      	bls.n	1a005e18 <__udivmoddi4+0x10c>
1a005e08:	193c      	adds	r4, r7, r4
1a005e0a:	f100 33ff 	add.w	r3, r0, #4294967295	; 0xffffffff
1a005e0e:	d202      	bcs.n	1a005e16 <__udivmoddi4+0x10a>
1a005e10:	45a0      	cmp	r8, r4
1a005e12:	f200 80d9 	bhi.w	1a005fc8 <__udivmoddi4+0x2bc>
1a005e16:	4618      	mov	r0, r3
1a005e18:	eba4 0408 	sub.w	r4, r4, r8
1a005e1c:	ea40 400c 	orr.w	r0, r0, ip, lsl #16
1a005e20:	e7bf      	b.n	1a005da2 <__udivmoddi4+0x96>
1a005e22:	428b      	cmp	r3, r1
1a005e24:	d909      	bls.n	1a005e3a <__udivmoddi4+0x12e>
1a005e26:	2d00      	cmp	r5, #0
1a005e28:	f000 80b1 	beq.w	1a005f8e <__udivmoddi4+0x282>
1a005e2c:	2600      	movs	r6, #0
1a005e2e:	e9c5 0100 	strd	r0, r1, [r5]
1a005e32:	4630      	mov	r0, r6
1a005e34:	4631      	mov	r1, r6
1a005e36:	e8bd 87f0 	ldmia.w	sp!, {r4, r5, r6, r7, r8, r9, sl, pc}
1a005e3a:	fab3 f683 	clz	r6, r3
1a005e3e:	2e00      	cmp	r6, #0
1a005e40:	d14a      	bne.n	1a005ed8 <__udivmoddi4+0x1cc>
1a005e42:	428b      	cmp	r3, r1
1a005e44:	d302      	bcc.n	1a005e4c <__udivmoddi4+0x140>
1a005e46:	4282      	cmp	r2, r0
1a005e48:	f200 80b8 	bhi.w	1a005fbc <__udivmoddi4+0x2b0>
1a005e4c:	1a84      	subs	r4, r0, r2
1a005e4e:	eb61 0103 	sbc.w	r1, r1, r3
1a005e52:	2001      	movs	r0, #1
1a005e54:	468c      	mov	ip, r1
1a005e56:	2d00      	cmp	r5, #0
1a005e58:	d0a8      	beq.n	1a005dac <__udivmoddi4+0xa0>
1a005e5a:	e9c5 4c00 	strd	r4, ip, [r5]
1a005e5e:	e7a5      	b.n	1a005dac <__udivmoddi4+0xa0>
1a005e60:	f1c2 0320 	rsb	r3, r2, #32
1a005e64:	fa20 f603 	lsr.w	r6, r0, r3
1a005e68:	4097      	lsls	r7, r2
1a005e6a:	fa01 f002 	lsl.w	r0, r1, r2
1a005e6e:	ea4f 4e17 	mov.w	lr, r7, lsr #16
1a005e72:	40d9      	lsrs	r1, r3
1a005e74:	4330      	orrs	r0, r6
1a005e76:	0c03      	lsrs	r3, r0, #16
1a005e78:	fbb1 f6fe 	udiv	r6, r1, lr
1a005e7c:	fa1f f887 	uxth.w	r8, r7
1a005e80:	fb0e 1116 	mls	r1, lr, r6, r1
1a005e84:	ea43 4301 	orr.w	r3, r3, r1, lsl #16
1a005e88:	fb06 f108 	mul.w	r1, r6, r8
1a005e8c:	4299      	cmp	r1, r3
1a005e8e:	fa04 f402 	lsl.w	r4, r4, r2
1a005e92:	d909      	bls.n	1a005ea8 <__udivmoddi4+0x19c>
1a005e94:	18fb      	adds	r3, r7, r3
1a005e96:	f106 3cff 	add.w	ip, r6, #4294967295	; 0xffffffff
1a005e9a:	f080 808d 	bcs.w	1a005fb8 <__udivmoddi4+0x2ac>
1a005e9e:	4299      	cmp	r1, r3
1a005ea0:	f240 808a 	bls.w	1a005fb8 <__udivmoddi4+0x2ac>
1a005ea4:	3e02      	subs	r6, #2
1a005ea6:	443b      	add	r3, r7
1a005ea8:	1a5b      	subs	r3, r3, r1
1a005eaa:	b281      	uxth	r1, r0
1a005eac:	fbb3 f0fe 	udiv	r0, r3, lr
1a005eb0:	fb0e 3310 	mls	r3, lr, r0, r3
1a005eb4:	ea41 4103 	orr.w	r1, r1, r3, lsl #16
1a005eb8:	fb00 f308 	mul.w	r3, r0, r8
1a005ebc:	428b      	cmp	r3, r1
1a005ebe:	d907      	bls.n	1a005ed0 <__udivmoddi4+0x1c4>
1a005ec0:	1879      	adds	r1, r7, r1
1a005ec2:	f100 3cff 	add.w	ip, r0, #4294967295	; 0xffffffff
1a005ec6:	d273      	bcs.n	1a005fb0 <__udivmoddi4+0x2a4>
1a005ec8:	428b      	cmp	r3, r1
1a005eca:	d971      	bls.n	1a005fb0 <__udivmoddi4+0x2a4>
1a005ecc:	3802      	subs	r0, #2
1a005ece:	4439      	add	r1, r7
1a005ed0:	1acb      	subs	r3, r1, r3
1a005ed2:	ea40 4606 	orr.w	r6, r0, r6, lsl #16
1a005ed6:	e778      	b.n	1a005dca <__udivmoddi4+0xbe>
1a005ed8:	f1c6 0c20 	rsb	ip, r6, #32
1a005edc:	fa03 f406 	lsl.w	r4, r3, r6
1a005ee0:	fa22 f30c 	lsr.w	r3, r2, ip
1a005ee4:	431c      	orrs	r4, r3
1a005ee6:	fa20 f70c 	lsr.w	r7, r0, ip
1a005eea:	fa01 f306 	lsl.w	r3, r1, r6
1a005eee:	ea4f 4e14 	mov.w	lr, r4, lsr #16
1a005ef2:	fa21 f10c 	lsr.w	r1, r1, ip
1a005ef6:	431f      	orrs	r7, r3
1a005ef8:	0c3b      	lsrs	r3, r7, #16
1a005efa:	fbb1 f9fe 	udiv	r9, r1, lr
1a005efe:	fa1f f884 	uxth.w	r8, r4
1a005f02:	fb0e 1119 	mls	r1, lr, r9, r1
1a005f06:	ea43 4101 	orr.w	r1, r3, r1, lsl #16
1a005f0a:	fb09 fa08 	mul.w	sl, r9, r8
1a005f0e:	458a      	cmp	sl, r1
1a005f10:	fa02 f206 	lsl.w	r2, r2, r6
1a005f14:	fa00 f306 	lsl.w	r3, r0, r6
1a005f18:	d908      	bls.n	1a005f2c <__udivmoddi4+0x220>
1a005f1a:	1861      	adds	r1, r4, r1
1a005f1c:	f109 30ff 	add.w	r0, r9, #4294967295	; 0xffffffff
1a005f20:	d248      	bcs.n	1a005fb4 <__udivmoddi4+0x2a8>
1a005f22:	458a      	cmp	sl, r1
1a005f24:	d946      	bls.n	1a005fb4 <__udivmoddi4+0x2a8>
1a005f26:	f1a9 0902 	sub.w	r9, r9, #2
1a005f2a:	4421      	add	r1, r4
1a005f2c:	eba1 010a 	sub.w	r1, r1, sl
1a005f30:	b2bf      	uxth	r7, r7
1a005f32:	fbb1 f0fe 	udiv	r0, r1, lr
1a005f36:	fb0e 1110 	mls	r1, lr, r0, r1
1a005f3a:	ea47 4701 	orr.w	r7, r7, r1, lsl #16
1a005f3e:	fb00 f808 	mul.w	r8, r0, r8
1a005f42:	45b8      	cmp	r8, r7
1a005f44:	d907      	bls.n	1a005f56 <__udivmoddi4+0x24a>
1a005f46:	19e7      	adds	r7, r4, r7
1a005f48:	f100 31ff 	add.w	r1, r0, #4294967295	; 0xffffffff
1a005f4c:	d22e      	bcs.n	1a005fac <__udivmoddi4+0x2a0>
1a005f4e:	45b8      	cmp	r8, r7
1a005f50:	d92c      	bls.n	1a005fac <__udivmoddi4+0x2a0>
1a005f52:	3802      	subs	r0, #2
1a005f54:	4427      	add	r7, r4
1a005f56:	ea40 4009 	orr.w	r0, r0, r9, lsl #16
1a005f5a:	eba7 0708 	sub.w	r7, r7, r8
1a005f5e:	fba0 8902 	umull	r8, r9, r0, r2
1a005f62:	454f      	cmp	r7, r9
1a005f64:	46c6      	mov	lr, r8
1a005f66:	4649      	mov	r1, r9
1a005f68:	d31a      	bcc.n	1a005fa0 <__udivmoddi4+0x294>
1a005f6a:	d017      	beq.n	1a005f9c <__udivmoddi4+0x290>
1a005f6c:	b15d      	cbz	r5, 1a005f86 <__udivmoddi4+0x27a>
1a005f6e:	ebb3 020e 	subs.w	r2, r3, lr
1a005f72:	eb67 0701 	sbc.w	r7, r7, r1
1a005f76:	fa07 fc0c 	lsl.w	ip, r7, ip
1a005f7a:	40f2      	lsrs	r2, r6
1a005f7c:	ea4c 0202 	orr.w	r2, ip, r2
1a005f80:	40f7      	lsrs	r7, r6
1a005f82:	e9c5 2700 	strd	r2, r7, [r5]
1a005f86:	2600      	movs	r6, #0
1a005f88:	4631      	mov	r1, r6
1a005f8a:	e8bd 87f0 	ldmia.w	sp!, {r4, r5, r6, r7, r8, r9, sl, pc}
1a005f8e:	462e      	mov	r6, r5
1a005f90:	4628      	mov	r0, r5
1a005f92:	e70b      	b.n	1a005dac <__udivmoddi4+0xa0>
1a005f94:	4606      	mov	r6, r0
1a005f96:	e6e9      	b.n	1a005d6c <__udivmoddi4+0x60>
1a005f98:	4618      	mov	r0, r3
1a005f9a:	e6fd      	b.n	1a005d98 <__udivmoddi4+0x8c>
1a005f9c:	4543      	cmp	r3, r8
1a005f9e:	d2e5      	bcs.n	1a005f6c <__udivmoddi4+0x260>
1a005fa0:	ebb8 0e02 	subs.w	lr, r8, r2
1a005fa4:	eb69 0104 	sbc.w	r1, r9, r4
1a005fa8:	3801      	subs	r0, #1
1a005faa:	e7df      	b.n	1a005f6c <__udivmoddi4+0x260>
1a005fac:	4608      	mov	r0, r1
1a005fae:	e7d2      	b.n	1a005f56 <__udivmoddi4+0x24a>
1a005fb0:	4660      	mov	r0, ip
1a005fb2:	e78d      	b.n	1a005ed0 <__udivmoddi4+0x1c4>
1a005fb4:	4681      	mov	r9, r0
1a005fb6:	e7b9      	b.n	1a005f2c <__udivmoddi4+0x220>
1a005fb8:	4666      	mov	r6, ip
1a005fba:	e775      	b.n	1a005ea8 <__udivmoddi4+0x19c>
1a005fbc:	4630      	mov	r0, r6
1a005fbe:	e74a      	b.n	1a005e56 <__udivmoddi4+0x14a>
1a005fc0:	f1ac 0c02 	sub.w	ip, ip, #2
1a005fc4:	4439      	add	r1, r7
1a005fc6:	e713      	b.n	1a005df0 <__udivmoddi4+0xe4>
1a005fc8:	3802      	subs	r0, #2
1a005fca:	443c      	add	r4, r7
1a005fcc:	e724      	b.n	1a005e18 <__udivmoddi4+0x10c>
1a005fce:	bf00      	nop

1a005fd0 <__aeabi_idiv0>:
1a005fd0:	4770      	bx	lr
1a005fd2:	bf00      	nop

1a005fd4 <__libc_init_array>:
1a005fd4:	b570      	push	{r4, r5, r6, lr}
1a005fd6:	4d0d      	ldr	r5, [pc, #52]	; (1a00600c <__libc_init_array+0x38>)
1a005fd8:	4c0d      	ldr	r4, [pc, #52]	; (1a006010 <__libc_init_array+0x3c>)
1a005fda:	1b64      	subs	r4, r4, r5
1a005fdc:	10a4      	asrs	r4, r4, #2
1a005fde:	2600      	movs	r6, #0
1a005fe0:	42a6      	cmp	r6, r4
1a005fe2:	d109      	bne.n	1a005ff8 <__libc_init_array+0x24>
1a005fe4:	4d0b      	ldr	r5, [pc, #44]	; (1a006014 <__libc_init_array+0x40>)
1a005fe6:	4c0c      	ldr	r4, [pc, #48]	; (1a006018 <__libc_init_array+0x44>)
1a005fe8:	f7ff f95a 	bl	1a0052a0 <_init>
1a005fec:	1b64      	subs	r4, r4, r5
1a005fee:	10a4      	asrs	r4, r4, #2
1a005ff0:	2600      	movs	r6, #0
1a005ff2:	42a6      	cmp	r6, r4
1a005ff4:	d105      	bne.n	1a006002 <__libc_init_array+0x2e>
1a005ff6:	bd70      	pop	{r4, r5, r6, pc}
1a005ff8:	f855 3b04 	ldr.w	r3, [r5], #4
1a005ffc:	4798      	blx	r3
1a005ffe:	3601      	adds	r6, #1
1a006000:	e7ee      	b.n	1a005fe0 <__libc_init_array+0xc>
1a006002:	f855 3b04 	ldr.w	r3, [r5], #4
1a006006:	4798      	blx	r3
1a006008:	3601      	adds	r6, #1
1a00600a:	e7f2      	b.n	1a005ff2 <__libc_init_array+0x1e>
1a00600c:	1a0079ac 	.word	0x1a0079ac
1a006010:	1a0079ac 	.word	0x1a0079ac
1a006014:	1a0079ac 	.word	0x1a0079ac
1a006018:	1a0079ac 	.word	0x1a0079ac

1a00601c <memcpy>:
1a00601c:	440a      	add	r2, r1
1a00601e:	4291      	cmp	r1, r2
1a006020:	f100 33ff 	add.w	r3, r0, #4294967295	; 0xffffffff
1a006024:	d100      	bne.n	1a006028 <memcpy+0xc>
1a006026:	4770      	bx	lr
1a006028:	b510      	push	{r4, lr}
1a00602a:	f811 4b01 	ldrb.w	r4, [r1], #1
1a00602e:	f803 4f01 	strb.w	r4, [r3, #1]!
1a006032:	4291      	cmp	r1, r2
1a006034:	d1f9      	bne.n	1a00602a <memcpy+0xe>
1a006036:	bd10      	pop	{r4, pc}

1a006038 <memset>:
1a006038:	4402      	add	r2, r0
1a00603a:	4603      	mov	r3, r0
1a00603c:	4293      	cmp	r3, r2
1a00603e:	d100      	bne.n	1a006042 <memset+0xa>
1a006040:	4770      	bx	lr
1a006042:	f803 1b01 	strb.w	r1, [r3], #1
1a006046:	e7f9      	b.n	1a00603c <memset+0x4>

1a006048 <siprintf>:
1a006048:	b40e      	push	{r1, r2, r3}
1a00604a:	b500      	push	{lr}
1a00604c:	b09c      	sub	sp, #112	; 0x70
1a00604e:	ab1d      	add	r3, sp, #116	; 0x74
1a006050:	9002      	str	r0, [sp, #8]
1a006052:	9006      	str	r0, [sp, #24]
1a006054:	f06f 4100 	mvn.w	r1, #2147483648	; 0x80000000
1a006058:	4809      	ldr	r0, [pc, #36]	; (1a006080 <siprintf+0x38>)
1a00605a:	9107      	str	r1, [sp, #28]
1a00605c:	9104      	str	r1, [sp, #16]
1a00605e:	4909      	ldr	r1, [pc, #36]	; (1a006084 <siprintf+0x3c>)
1a006060:	f853 2b04 	ldr.w	r2, [r3], #4
1a006064:	9105      	str	r1, [sp, #20]
1a006066:	6800      	ldr	r0, [r0, #0]
1a006068:	9301      	str	r3, [sp, #4]
1a00606a:	a902      	add	r1, sp, #8
1a00606c:	f000 f8e4 	bl	1a006238 <_svfiprintf_r>
1a006070:	9b02      	ldr	r3, [sp, #8]
1a006072:	2200      	movs	r2, #0
1a006074:	701a      	strb	r2, [r3, #0]
1a006076:	b01c      	add	sp, #112	; 0x70
1a006078:	f85d eb04 	ldr.w	lr, [sp], #4
1a00607c:	b003      	add	sp, #12
1a00607e:	4770      	bx	lr
1a006080:	100000d8 	.word	0x100000d8
1a006084:	ffff0208 	.word	0xffff0208

1a006088 <strcat>:
1a006088:	b510      	push	{r4, lr}
1a00608a:	4602      	mov	r2, r0
1a00608c:	7814      	ldrb	r4, [r2, #0]
1a00608e:	4613      	mov	r3, r2
1a006090:	3201      	adds	r2, #1
1a006092:	2c00      	cmp	r4, #0
1a006094:	d1fa      	bne.n	1a00608c <strcat+0x4>
1a006096:	3b01      	subs	r3, #1
1a006098:	f811 2b01 	ldrb.w	r2, [r1], #1
1a00609c:	f803 2f01 	strb.w	r2, [r3, #1]!
1a0060a0:	2a00      	cmp	r2, #0
1a0060a2:	d1f9      	bne.n	1a006098 <strcat+0x10>
1a0060a4:	bd10      	pop	{r4, pc}

1a0060a6 <strcpy>:
1a0060a6:	4603      	mov	r3, r0
1a0060a8:	f811 2b01 	ldrb.w	r2, [r1], #1
1a0060ac:	f803 2b01 	strb.w	r2, [r3], #1
1a0060b0:	2a00      	cmp	r2, #0
1a0060b2:	d1f9      	bne.n	1a0060a8 <strcpy+0x2>
1a0060b4:	4770      	bx	lr

1a0060b6 <strlen>:
1a0060b6:	4603      	mov	r3, r0
1a0060b8:	f813 2b01 	ldrb.w	r2, [r3], #1
1a0060bc:	2a00      	cmp	r2, #0
1a0060be:	d1fb      	bne.n	1a0060b8 <strlen+0x2>
1a0060c0:	1a18      	subs	r0, r3, r0
1a0060c2:	3801      	subs	r0, #1
1a0060c4:	4770      	bx	lr

1a0060c6 <__retarget_lock_acquire_recursive>:
1a0060c6:	4770      	bx	lr

1a0060c8 <__retarget_lock_release_recursive>:
1a0060c8:	4770      	bx	lr
1a0060ca:	Address 0x000000001a0060ca is out of bounds.


1a0060cc <_malloc_r>:
1a0060cc:	b5f8      	push	{r3, r4, r5, r6, r7, lr}
1a0060ce:	1ccd      	adds	r5, r1, #3
1a0060d0:	f025 0503 	bic.w	r5, r5, #3
1a0060d4:	3508      	adds	r5, #8
1a0060d6:	2d0c      	cmp	r5, #12
1a0060d8:	bf38      	it	cc
1a0060da:	250c      	movcc	r5, #12
1a0060dc:	2d00      	cmp	r5, #0
1a0060de:	4606      	mov	r6, r0
1a0060e0:	db01      	blt.n	1a0060e6 <_malloc_r+0x1a>
1a0060e2:	42a9      	cmp	r1, r5
1a0060e4:	d903      	bls.n	1a0060ee <_malloc_r+0x22>
1a0060e6:	230c      	movs	r3, #12
1a0060e8:	6033      	str	r3, [r6, #0]
1a0060ea:	2000      	movs	r0, #0
1a0060ec:	bdf8      	pop	{r3, r4, r5, r6, r7, pc}
1a0060ee:	f000 fba1 	bl	1a006834 <__malloc_lock>
1a0060f2:	4921      	ldr	r1, [pc, #132]	; (1a006178 <_malloc_r+0xac>)
1a0060f4:	680a      	ldr	r2, [r1, #0]
1a0060f6:	4614      	mov	r4, r2
1a0060f8:	b99c      	cbnz	r4, 1a006122 <_malloc_r+0x56>
1a0060fa:	4f20      	ldr	r7, [pc, #128]	; (1a00617c <_malloc_r+0xb0>)
1a0060fc:	683b      	ldr	r3, [r7, #0]
1a0060fe:	b923      	cbnz	r3, 1a00610a <_malloc_r+0x3e>
1a006100:	4621      	mov	r1, r4
1a006102:	4630      	mov	r0, r6
1a006104:	f7fe f8a8 	bl	1a004258 <_sbrk_r>
1a006108:	6038      	str	r0, [r7, #0]
1a00610a:	4629      	mov	r1, r5
1a00610c:	4630      	mov	r0, r6
1a00610e:	f7fe f8a3 	bl	1a004258 <_sbrk_r>
1a006112:	1c43      	adds	r3, r0, #1
1a006114:	d123      	bne.n	1a00615e <_malloc_r+0x92>
1a006116:	230c      	movs	r3, #12
1a006118:	6033      	str	r3, [r6, #0]
1a00611a:	4630      	mov	r0, r6
1a00611c:	f000 fb90 	bl	1a006840 <__malloc_unlock>
1a006120:	e7e3      	b.n	1a0060ea <_malloc_r+0x1e>
1a006122:	6823      	ldr	r3, [r4, #0]
1a006124:	1b5b      	subs	r3, r3, r5
1a006126:	d417      	bmi.n	1a006158 <_malloc_r+0x8c>
1a006128:	2b0b      	cmp	r3, #11
1a00612a:	d903      	bls.n	1a006134 <_malloc_r+0x68>
1a00612c:	6023      	str	r3, [r4, #0]
1a00612e:	441c      	add	r4, r3
1a006130:	6025      	str	r5, [r4, #0]
1a006132:	e004      	b.n	1a00613e <_malloc_r+0x72>
1a006134:	6863      	ldr	r3, [r4, #4]
1a006136:	42a2      	cmp	r2, r4
1a006138:	bf0c      	ite	eq
1a00613a:	600b      	streq	r3, [r1, #0]
1a00613c:	6053      	strne	r3, [r2, #4]
1a00613e:	4630      	mov	r0, r6
1a006140:	f000 fb7e 	bl	1a006840 <__malloc_unlock>
1a006144:	f104 000b 	add.w	r0, r4, #11
1a006148:	1d23      	adds	r3, r4, #4
1a00614a:	f020 0007 	bic.w	r0, r0, #7
1a00614e:	1ac2      	subs	r2, r0, r3
1a006150:	d0cc      	beq.n	1a0060ec <_malloc_r+0x20>
1a006152:	1a1b      	subs	r3, r3, r0
1a006154:	50a3      	str	r3, [r4, r2]
1a006156:	e7c9      	b.n	1a0060ec <_malloc_r+0x20>
1a006158:	4622      	mov	r2, r4
1a00615a:	6864      	ldr	r4, [r4, #4]
1a00615c:	e7cc      	b.n	1a0060f8 <_malloc_r+0x2c>
1a00615e:	1cc4      	adds	r4, r0, #3
1a006160:	f024 0403 	bic.w	r4, r4, #3
1a006164:	42a0      	cmp	r0, r4
1a006166:	d0e3      	beq.n	1a006130 <_malloc_r+0x64>
1a006168:	1a21      	subs	r1, r4, r0
1a00616a:	4630      	mov	r0, r6
1a00616c:	f7fe f874 	bl	1a004258 <_sbrk_r>
1a006170:	3001      	adds	r0, #1
1a006172:	d1dd      	bne.n	1a006130 <_malloc_r+0x64>
1a006174:	e7cf      	b.n	1a006116 <_malloc_r+0x4a>
1a006176:	bf00      	nop
1a006178:	100005f8 	.word	0x100005f8
1a00617c:	100005fc 	.word	0x100005fc

1a006180 <__ssputs_r>:
1a006180:	e92d 47f0 	stmdb	sp!, {r4, r5, r6, r7, r8, r9, sl, lr}
1a006184:	688e      	ldr	r6, [r1, #8]
1a006186:	429e      	cmp	r6, r3
1a006188:	4682      	mov	sl, r0
1a00618a:	460c      	mov	r4, r1
1a00618c:	4690      	mov	r8, r2
1a00618e:	461f      	mov	r7, r3
1a006190:	d838      	bhi.n	1a006204 <__ssputs_r+0x84>
1a006192:	898a      	ldrh	r2, [r1, #12]
1a006194:	f412 6f90 	tst.w	r2, #1152	; 0x480
1a006198:	d032      	beq.n	1a006200 <__ssputs_r+0x80>
1a00619a:	6825      	ldr	r5, [r4, #0]
1a00619c:	6909      	ldr	r1, [r1, #16]
1a00619e:	eba5 0901 	sub.w	r9, r5, r1
1a0061a2:	6965      	ldr	r5, [r4, #20]
1a0061a4:	eb05 0545 	add.w	r5, r5, r5, lsl #1
1a0061a8:	eb05 75d5 	add.w	r5, r5, r5, lsr #31
1a0061ac:	3301      	adds	r3, #1
1a0061ae:	444b      	add	r3, r9
1a0061b0:	106d      	asrs	r5, r5, #1
1a0061b2:	429d      	cmp	r5, r3
1a0061b4:	bf38      	it	cc
1a0061b6:	461d      	movcc	r5, r3
1a0061b8:	0553      	lsls	r3, r2, #21
1a0061ba:	d531      	bpl.n	1a006220 <__ssputs_r+0xa0>
1a0061bc:	4629      	mov	r1, r5
1a0061be:	f7ff ff85 	bl	1a0060cc <_malloc_r>
1a0061c2:	4606      	mov	r6, r0
1a0061c4:	b950      	cbnz	r0, 1a0061dc <__ssputs_r+0x5c>
1a0061c6:	230c      	movs	r3, #12
1a0061c8:	f8ca 3000 	str.w	r3, [sl]
1a0061cc:	89a3      	ldrh	r3, [r4, #12]
1a0061ce:	f043 0340 	orr.w	r3, r3, #64	; 0x40
1a0061d2:	81a3      	strh	r3, [r4, #12]
1a0061d4:	f04f 30ff 	mov.w	r0, #4294967295	; 0xffffffff
1a0061d8:	e8bd 87f0 	ldmia.w	sp!, {r4, r5, r6, r7, r8, r9, sl, pc}
1a0061dc:	6921      	ldr	r1, [r4, #16]
1a0061de:	464a      	mov	r2, r9
1a0061e0:	f7ff ff1c 	bl	1a00601c <memcpy>
1a0061e4:	89a3      	ldrh	r3, [r4, #12]
1a0061e6:	f423 6390 	bic.w	r3, r3, #1152	; 0x480
1a0061ea:	f043 0380 	orr.w	r3, r3, #128	; 0x80
1a0061ee:	81a3      	strh	r3, [r4, #12]
1a0061f0:	6126      	str	r6, [r4, #16]
1a0061f2:	6165      	str	r5, [r4, #20]
1a0061f4:	444e      	add	r6, r9
1a0061f6:	eba5 0509 	sub.w	r5, r5, r9
1a0061fa:	6026      	str	r6, [r4, #0]
1a0061fc:	60a5      	str	r5, [r4, #8]
1a0061fe:	463e      	mov	r6, r7
1a006200:	42be      	cmp	r6, r7
1a006202:	d900      	bls.n	1a006206 <__ssputs_r+0x86>
1a006204:	463e      	mov	r6, r7
1a006206:	4632      	mov	r2, r6
1a006208:	6820      	ldr	r0, [r4, #0]
1a00620a:	4641      	mov	r1, r8
1a00620c:	f000 faf8 	bl	1a006800 <memmove>
1a006210:	68a3      	ldr	r3, [r4, #8]
1a006212:	6822      	ldr	r2, [r4, #0]
1a006214:	1b9b      	subs	r3, r3, r6
1a006216:	4432      	add	r2, r6
1a006218:	60a3      	str	r3, [r4, #8]
1a00621a:	6022      	str	r2, [r4, #0]
1a00621c:	2000      	movs	r0, #0
1a00621e:	e7db      	b.n	1a0061d8 <__ssputs_r+0x58>
1a006220:	462a      	mov	r2, r5
1a006222:	f000 fb63 	bl	1a0068ec <_realloc_r>
1a006226:	4606      	mov	r6, r0
1a006228:	2800      	cmp	r0, #0
1a00622a:	d1e1      	bne.n	1a0061f0 <__ssputs_r+0x70>
1a00622c:	6921      	ldr	r1, [r4, #16]
1a00622e:	4650      	mov	r0, sl
1a006230:	f000 fb0c 	bl	1a00684c <_free_r>
1a006234:	e7c7      	b.n	1a0061c6 <__ssputs_r+0x46>
1a006236:	Address 0x000000001a006236 is out of bounds.


1a006238 <_svfiprintf_r>:
1a006238:	e92d 4ff0 	stmdb	sp!, {r4, r5, r6, r7, r8, r9, sl, fp, lr}
1a00623c:	4698      	mov	r8, r3
1a00623e:	898b      	ldrh	r3, [r1, #12]
1a006240:	061b      	lsls	r3, r3, #24
1a006242:	b09d      	sub	sp, #116	; 0x74
1a006244:	4607      	mov	r7, r0
1a006246:	460d      	mov	r5, r1
1a006248:	4614      	mov	r4, r2
1a00624a:	d50e      	bpl.n	1a00626a <_svfiprintf_r+0x32>
1a00624c:	690b      	ldr	r3, [r1, #16]
1a00624e:	b963      	cbnz	r3, 1a00626a <_svfiprintf_r+0x32>
1a006250:	2140      	movs	r1, #64	; 0x40
1a006252:	f7ff ff3b 	bl	1a0060cc <_malloc_r>
1a006256:	6028      	str	r0, [r5, #0]
1a006258:	6128      	str	r0, [r5, #16]
1a00625a:	b920      	cbnz	r0, 1a006266 <_svfiprintf_r+0x2e>
1a00625c:	230c      	movs	r3, #12
1a00625e:	603b      	str	r3, [r7, #0]
1a006260:	f04f 30ff 	mov.w	r0, #4294967295	; 0xffffffff
1a006264:	e0d1      	b.n	1a00640a <_svfiprintf_r+0x1d2>
1a006266:	2340      	movs	r3, #64	; 0x40
1a006268:	616b      	str	r3, [r5, #20]
1a00626a:	2300      	movs	r3, #0
1a00626c:	9309      	str	r3, [sp, #36]	; 0x24
1a00626e:	2320      	movs	r3, #32
1a006270:	f88d 3029 	strb.w	r3, [sp, #41]	; 0x29
1a006274:	f8cd 800c 	str.w	r8, [sp, #12]
1a006278:	2330      	movs	r3, #48	; 0x30
1a00627a:	f8df 81a8 	ldr.w	r8, [pc, #424]	; 1a006424 <_svfiprintf_r+0x1ec>
1a00627e:	f88d 302a 	strb.w	r3, [sp, #42]	; 0x2a
1a006282:	f04f 0901 	mov.w	r9, #1
1a006286:	4623      	mov	r3, r4
1a006288:	469a      	mov	sl, r3
1a00628a:	f813 2b01 	ldrb.w	r2, [r3], #1
1a00628e:	b10a      	cbz	r2, 1a006294 <_svfiprintf_r+0x5c>
1a006290:	2a25      	cmp	r2, #37	; 0x25
1a006292:	d1f9      	bne.n	1a006288 <_svfiprintf_r+0x50>
1a006294:	ebba 0b04 	subs.w	fp, sl, r4
1a006298:	d00b      	beq.n	1a0062b2 <_svfiprintf_r+0x7a>
1a00629a:	465b      	mov	r3, fp
1a00629c:	4622      	mov	r2, r4
1a00629e:	4629      	mov	r1, r5
1a0062a0:	4638      	mov	r0, r7
1a0062a2:	f7ff ff6d 	bl	1a006180 <__ssputs_r>
1a0062a6:	3001      	adds	r0, #1
1a0062a8:	f000 80aa 	beq.w	1a006400 <_svfiprintf_r+0x1c8>
1a0062ac:	9a09      	ldr	r2, [sp, #36]	; 0x24
1a0062ae:	445a      	add	r2, fp
1a0062b0:	9209      	str	r2, [sp, #36]	; 0x24
1a0062b2:	f89a 3000 	ldrb.w	r3, [sl]
1a0062b6:	2b00      	cmp	r3, #0
1a0062b8:	f000 80a2 	beq.w	1a006400 <_svfiprintf_r+0x1c8>
1a0062bc:	2300      	movs	r3, #0
1a0062be:	f04f 32ff 	mov.w	r2, #4294967295	; 0xffffffff
1a0062c2:	e9cd 2305 	strd	r2, r3, [sp, #20]
1a0062c6:	f10a 0a01 	add.w	sl, sl, #1
1a0062ca:	9304      	str	r3, [sp, #16]
1a0062cc:	9307      	str	r3, [sp, #28]
1a0062ce:	f88d 3053 	strb.w	r3, [sp, #83]	; 0x53
1a0062d2:	931a      	str	r3, [sp, #104]	; 0x68
1a0062d4:	4654      	mov	r4, sl
1a0062d6:	2205      	movs	r2, #5
1a0062d8:	f814 1b01 	ldrb.w	r1, [r4], #1
1a0062dc:	4851      	ldr	r0, [pc, #324]	; (1a006424 <_svfiprintf_r+0x1ec>)
1a0062de:	f000 fa3f 	bl	1a006760 <memchr>
1a0062e2:	9a04      	ldr	r2, [sp, #16]
1a0062e4:	b9d8      	cbnz	r0, 1a00631e <_svfiprintf_r+0xe6>
1a0062e6:	06d0      	lsls	r0, r2, #27
1a0062e8:	bf44      	itt	mi
1a0062ea:	2320      	movmi	r3, #32
1a0062ec:	f88d 3053 	strbmi.w	r3, [sp, #83]	; 0x53
1a0062f0:	0711      	lsls	r1, r2, #28
1a0062f2:	bf44      	itt	mi
1a0062f4:	232b      	movmi	r3, #43	; 0x2b
1a0062f6:	f88d 3053 	strbmi.w	r3, [sp, #83]	; 0x53
1a0062fa:	f89a 3000 	ldrb.w	r3, [sl]
1a0062fe:	2b2a      	cmp	r3, #42	; 0x2a
1a006300:	d015      	beq.n	1a00632e <_svfiprintf_r+0xf6>
1a006302:	9a07      	ldr	r2, [sp, #28]
1a006304:	4654      	mov	r4, sl
1a006306:	2000      	movs	r0, #0
1a006308:	f04f 0c0a 	mov.w	ip, #10
1a00630c:	4621      	mov	r1, r4
1a00630e:	f811 3b01 	ldrb.w	r3, [r1], #1
1a006312:	3b30      	subs	r3, #48	; 0x30
1a006314:	2b09      	cmp	r3, #9
1a006316:	d94e      	bls.n	1a0063b6 <_svfiprintf_r+0x17e>
1a006318:	b1b0      	cbz	r0, 1a006348 <_svfiprintf_r+0x110>
1a00631a:	9207      	str	r2, [sp, #28]
1a00631c:	e014      	b.n	1a006348 <_svfiprintf_r+0x110>
1a00631e:	eba0 0308 	sub.w	r3, r0, r8
1a006322:	fa09 f303 	lsl.w	r3, r9, r3
1a006326:	4313      	orrs	r3, r2
1a006328:	9304      	str	r3, [sp, #16]
1a00632a:	46a2      	mov	sl, r4
1a00632c:	e7d2      	b.n	1a0062d4 <_svfiprintf_r+0x9c>
1a00632e:	9b03      	ldr	r3, [sp, #12]
1a006330:	1d19      	adds	r1, r3, #4
1a006332:	681b      	ldr	r3, [r3, #0]
1a006334:	9103      	str	r1, [sp, #12]
1a006336:	2b00      	cmp	r3, #0
1a006338:	bfbb      	ittet	lt
1a00633a:	425b      	neglt	r3, r3
1a00633c:	f042 0202 	orrlt.w	r2, r2, #2
1a006340:	9307      	strge	r3, [sp, #28]
1a006342:	9307      	strlt	r3, [sp, #28]
1a006344:	bfb8      	it	lt
1a006346:	9204      	strlt	r2, [sp, #16]
1a006348:	7823      	ldrb	r3, [r4, #0]
1a00634a:	2b2e      	cmp	r3, #46	; 0x2e
1a00634c:	d10c      	bne.n	1a006368 <_svfiprintf_r+0x130>
1a00634e:	7863      	ldrb	r3, [r4, #1]
1a006350:	2b2a      	cmp	r3, #42	; 0x2a
1a006352:	d135      	bne.n	1a0063c0 <_svfiprintf_r+0x188>
1a006354:	9b03      	ldr	r3, [sp, #12]
1a006356:	1d1a      	adds	r2, r3, #4
1a006358:	681b      	ldr	r3, [r3, #0]
1a00635a:	9203      	str	r2, [sp, #12]
1a00635c:	2b00      	cmp	r3, #0
1a00635e:	bfb8      	it	lt
1a006360:	f04f 33ff 	movlt.w	r3, #4294967295	; 0xffffffff
1a006364:	3402      	adds	r4, #2
1a006366:	9305      	str	r3, [sp, #20]
1a006368:	f8df a0c8 	ldr.w	sl, [pc, #200]	; 1a006434 <_svfiprintf_r+0x1fc>
1a00636c:	7821      	ldrb	r1, [r4, #0]
1a00636e:	2203      	movs	r2, #3
1a006370:	4650      	mov	r0, sl
1a006372:	f000 f9f5 	bl	1a006760 <memchr>
1a006376:	b140      	cbz	r0, 1a00638a <_svfiprintf_r+0x152>
1a006378:	2340      	movs	r3, #64	; 0x40
1a00637a:	eba0 000a 	sub.w	r0, r0, sl
1a00637e:	fa03 f000 	lsl.w	r0, r3, r0
1a006382:	9b04      	ldr	r3, [sp, #16]
1a006384:	4303      	orrs	r3, r0
1a006386:	3401      	adds	r4, #1
1a006388:	9304      	str	r3, [sp, #16]
1a00638a:	f814 1b01 	ldrb.w	r1, [r4], #1
1a00638e:	4826      	ldr	r0, [pc, #152]	; (1a006428 <_svfiprintf_r+0x1f0>)
1a006390:	f88d 1028 	strb.w	r1, [sp, #40]	; 0x28
1a006394:	2206      	movs	r2, #6
1a006396:	f000 f9e3 	bl	1a006760 <memchr>
1a00639a:	2800      	cmp	r0, #0
1a00639c:	d038      	beq.n	1a006410 <_svfiprintf_r+0x1d8>
1a00639e:	4b23      	ldr	r3, [pc, #140]	; (1a00642c <_svfiprintf_r+0x1f4>)
1a0063a0:	bb1b      	cbnz	r3, 1a0063ea <_svfiprintf_r+0x1b2>
1a0063a2:	9b03      	ldr	r3, [sp, #12]
1a0063a4:	3307      	adds	r3, #7
1a0063a6:	f023 0307 	bic.w	r3, r3, #7
1a0063aa:	3308      	adds	r3, #8
1a0063ac:	9303      	str	r3, [sp, #12]
1a0063ae:	9b09      	ldr	r3, [sp, #36]	; 0x24
1a0063b0:	4433      	add	r3, r6
1a0063b2:	9309      	str	r3, [sp, #36]	; 0x24
1a0063b4:	e767      	b.n	1a006286 <_svfiprintf_r+0x4e>
1a0063b6:	fb0c 3202 	mla	r2, ip, r2, r3
1a0063ba:	460c      	mov	r4, r1
1a0063bc:	2001      	movs	r0, #1
1a0063be:	e7a5      	b.n	1a00630c <_svfiprintf_r+0xd4>
1a0063c0:	2300      	movs	r3, #0
1a0063c2:	3401      	adds	r4, #1
1a0063c4:	9305      	str	r3, [sp, #20]
1a0063c6:	4619      	mov	r1, r3
1a0063c8:	f04f 0c0a 	mov.w	ip, #10
1a0063cc:	4620      	mov	r0, r4
1a0063ce:	f810 2b01 	ldrb.w	r2, [r0], #1
1a0063d2:	3a30      	subs	r2, #48	; 0x30
1a0063d4:	2a09      	cmp	r2, #9
1a0063d6:	d903      	bls.n	1a0063e0 <_svfiprintf_r+0x1a8>
1a0063d8:	2b00      	cmp	r3, #0
1a0063da:	d0c5      	beq.n	1a006368 <_svfiprintf_r+0x130>
1a0063dc:	9105      	str	r1, [sp, #20]
1a0063de:	e7c3      	b.n	1a006368 <_svfiprintf_r+0x130>
1a0063e0:	fb0c 2101 	mla	r1, ip, r1, r2
1a0063e4:	4604      	mov	r4, r0
1a0063e6:	2301      	movs	r3, #1
1a0063e8:	e7f0      	b.n	1a0063cc <_svfiprintf_r+0x194>
1a0063ea:	ab03      	add	r3, sp, #12
1a0063ec:	9300      	str	r3, [sp, #0]
1a0063ee:	462a      	mov	r2, r5
1a0063f0:	4b0f      	ldr	r3, [pc, #60]	; (1a006430 <_svfiprintf_r+0x1f8>)
1a0063f2:	a904      	add	r1, sp, #16
1a0063f4:	4638      	mov	r0, r7
1a0063f6:	f3af 8000 	nop.w
1a0063fa:	1c42      	adds	r2, r0, #1
1a0063fc:	4606      	mov	r6, r0
1a0063fe:	d1d6      	bne.n	1a0063ae <_svfiprintf_r+0x176>
1a006400:	89ab      	ldrh	r3, [r5, #12]
1a006402:	065b      	lsls	r3, r3, #25
1a006404:	f53f af2c 	bmi.w	1a006260 <_svfiprintf_r+0x28>
1a006408:	9809      	ldr	r0, [sp, #36]	; 0x24
1a00640a:	b01d      	add	sp, #116	; 0x74
1a00640c:	e8bd 8ff0 	ldmia.w	sp!, {r4, r5, r6, r7, r8, r9, sl, fp, pc}
1a006410:	ab03      	add	r3, sp, #12
1a006412:	9300      	str	r3, [sp, #0]
1a006414:	462a      	mov	r2, r5
1a006416:	4b06      	ldr	r3, [pc, #24]	; (1a006430 <_svfiprintf_r+0x1f8>)
1a006418:	a904      	add	r1, sp, #16
1a00641a:	4638      	mov	r0, r7
1a00641c:	f000 f87a 	bl	1a006514 <_printf_i>
1a006420:	e7eb      	b.n	1a0063fa <_svfiprintf_r+0x1c2>
1a006422:	bf00      	nop
1a006424:	1a007978 	.word	0x1a007978
1a006428:	1a007982 	.word	0x1a007982
1a00642c:	00000000 	.word	0x00000000
1a006430:	1a006181 	.word	0x1a006181
1a006434:	1a00797e 	.word	0x1a00797e

1a006438 <_printf_common>:
1a006438:	e92d 47f0 	stmdb	sp!, {r4, r5, r6, r7, r8, r9, sl, lr}
1a00643c:	4616      	mov	r6, r2
1a00643e:	4699      	mov	r9, r3
1a006440:	688a      	ldr	r2, [r1, #8]
1a006442:	690b      	ldr	r3, [r1, #16]
1a006444:	f8dd 8020 	ldr.w	r8, [sp, #32]
1a006448:	4293      	cmp	r3, r2
1a00644a:	bfb8      	it	lt
1a00644c:	4613      	movlt	r3, r2
1a00644e:	6033      	str	r3, [r6, #0]
1a006450:	f891 2043 	ldrb.w	r2, [r1, #67]	; 0x43
1a006454:	4607      	mov	r7, r0
1a006456:	460c      	mov	r4, r1
1a006458:	b10a      	cbz	r2, 1a00645e <_printf_common+0x26>
1a00645a:	3301      	adds	r3, #1
1a00645c:	6033      	str	r3, [r6, #0]
1a00645e:	6823      	ldr	r3, [r4, #0]
1a006460:	0699      	lsls	r1, r3, #26
1a006462:	bf42      	ittt	mi
1a006464:	6833      	ldrmi	r3, [r6, #0]
1a006466:	3302      	addmi	r3, #2
1a006468:	6033      	strmi	r3, [r6, #0]
1a00646a:	6825      	ldr	r5, [r4, #0]
1a00646c:	f015 0506 	ands.w	r5, r5, #6
1a006470:	d106      	bne.n	1a006480 <_printf_common+0x48>
1a006472:	f104 0a19 	add.w	sl, r4, #25
1a006476:	68e3      	ldr	r3, [r4, #12]
1a006478:	6832      	ldr	r2, [r6, #0]
1a00647a:	1a9b      	subs	r3, r3, r2
1a00647c:	42ab      	cmp	r3, r5
1a00647e:	dc26      	bgt.n	1a0064ce <_printf_common+0x96>
1a006480:	f894 2043 	ldrb.w	r2, [r4, #67]	; 0x43
1a006484:	1e13      	subs	r3, r2, #0
1a006486:	6822      	ldr	r2, [r4, #0]
1a006488:	bf18      	it	ne
1a00648a:	2301      	movne	r3, #1
1a00648c:	0692      	lsls	r2, r2, #26
1a00648e:	d42b      	bmi.n	1a0064e8 <_printf_common+0xb0>
1a006490:	f104 0243 	add.w	r2, r4, #67	; 0x43
1a006494:	4649      	mov	r1, r9
1a006496:	4638      	mov	r0, r7
1a006498:	47c0      	blx	r8
1a00649a:	3001      	adds	r0, #1
1a00649c:	d01e      	beq.n	1a0064dc <_printf_common+0xa4>
1a00649e:	6823      	ldr	r3, [r4, #0]
1a0064a0:	68e5      	ldr	r5, [r4, #12]
1a0064a2:	6832      	ldr	r2, [r6, #0]
1a0064a4:	f003 0306 	and.w	r3, r3, #6
1a0064a8:	2b04      	cmp	r3, #4
1a0064aa:	bf08      	it	eq
1a0064ac:	1aad      	subeq	r5, r5, r2
1a0064ae:	68a3      	ldr	r3, [r4, #8]
1a0064b0:	6922      	ldr	r2, [r4, #16]
1a0064b2:	bf0c      	ite	eq
1a0064b4:	ea25 75e5 	biceq.w	r5, r5, r5, asr #31
1a0064b8:	2500      	movne	r5, #0
1a0064ba:	4293      	cmp	r3, r2
1a0064bc:	bfc4      	itt	gt
1a0064be:	1a9b      	subgt	r3, r3, r2
1a0064c0:	18ed      	addgt	r5, r5, r3
1a0064c2:	2600      	movs	r6, #0
1a0064c4:	341a      	adds	r4, #26
1a0064c6:	42b5      	cmp	r5, r6
1a0064c8:	d11a      	bne.n	1a006500 <_printf_common+0xc8>
1a0064ca:	2000      	movs	r0, #0
1a0064cc:	e008      	b.n	1a0064e0 <_printf_common+0xa8>
1a0064ce:	2301      	movs	r3, #1
1a0064d0:	4652      	mov	r2, sl
1a0064d2:	4649      	mov	r1, r9
1a0064d4:	4638      	mov	r0, r7
1a0064d6:	47c0      	blx	r8
1a0064d8:	3001      	adds	r0, #1
1a0064da:	d103      	bne.n	1a0064e4 <_printf_common+0xac>
1a0064dc:	f04f 30ff 	mov.w	r0, #4294967295	; 0xffffffff
1a0064e0:	e8bd 87f0 	ldmia.w	sp!, {r4, r5, r6, r7, r8, r9, sl, pc}
1a0064e4:	3501      	adds	r5, #1
1a0064e6:	e7c6      	b.n	1a006476 <_printf_common+0x3e>
1a0064e8:	18e1      	adds	r1, r4, r3
1a0064ea:	1c5a      	adds	r2, r3, #1
1a0064ec:	2030      	movs	r0, #48	; 0x30
1a0064ee:	f881 0043 	strb.w	r0, [r1, #67]	; 0x43
1a0064f2:	4422      	add	r2, r4
1a0064f4:	f894 1045 	ldrb.w	r1, [r4, #69]	; 0x45
1a0064f8:	f882 1043 	strb.w	r1, [r2, #67]	; 0x43
1a0064fc:	3302      	adds	r3, #2
1a0064fe:	e7c7      	b.n	1a006490 <_printf_common+0x58>
1a006500:	2301      	movs	r3, #1
1a006502:	4622      	mov	r2, r4
1a006504:	4649      	mov	r1, r9
1a006506:	4638      	mov	r0, r7
1a006508:	47c0      	blx	r8
1a00650a:	3001      	adds	r0, #1
1a00650c:	d0e6      	beq.n	1a0064dc <_printf_common+0xa4>
1a00650e:	3601      	adds	r6, #1
1a006510:	e7d9      	b.n	1a0064c6 <_printf_common+0x8e>
1a006512:	Address 0x000000001a006512 is out of bounds.


1a006514 <_printf_i>:
1a006514:	e92d 47ff 	stmdb	sp!, {r0, r1, r2, r3, r4, r5, r6, r7, r8, r9, sl, lr}
1a006518:	460c      	mov	r4, r1
1a00651a:	4691      	mov	r9, r2
1a00651c:	7e27      	ldrb	r7, [r4, #24]
1a00651e:	990c      	ldr	r1, [sp, #48]	; 0x30
1a006520:	2f78      	cmp	r7, #120	; 0x78
1a006522:	4680      	mov	r8, r0
1a006524:	469a      	mov	sl, r3
1a006526:	f104 0243 	add.w	r2, r4, #67	; 0x43
1a00652a:	d807      	bhi.n	1a00653c <_printf_i+0x28>
1a00652c:	2f62      	cmp	r7, #98	; 0x62
1a00652e:	d80a      	bhi.n	1a006546 <_printf_i+0x32>
1a006530:	2f00      	cmp	r7, #0
1a006532:	f000 80d8 	beq.w	1a0066e6 <_printf_i+0x1d2>
1a006536:	2f58      	cmp	r7, #88	; 0x58
1a006538:	f000 80a3 	beq.w	1a006682 <_printf_i+0x16e>
1a00653c:	f104 0642 	add.w	r6, r4, #66	; 0x42
1a006540:	f884 7042 	strb.w	r7, [r4, #66]	; 0x42
1a006544:	e03a      	b.n	1a0065bc <_printf_i+0xa8>
1a006546:	f1a7 0363 	sub.w	r3, r7, #99	; 0x63
1a00654a:	2b15      	cmp	r3, #21
1a00654c:	d8f6      	bhi.n	1a00653c <_printf_i+0x28>
1a00654e:	a001      	add	r0, pc, #4	; (adr r0, 1a006554 <_printf_i+0x40>)
1a006550:	f850 f023 	ldr.w	pc, [r0, r3, lsl #2]
1a006554:	1a0065ad 	.word	0x1a0065ad
1a006558:	1a0065c1 	.word	0x1a0065c1
1a00655c:	1a00653d 	.word	0x1a00653d
1a006560:	1a00653d 	.word	0x1a00653d
1a006564:	1a00653d 	.word	0x1a00653d
1a006568:	1a00653d 	.word	0x1a00653d
1a00656c:	1a0065c1 	.word	0x1a0065c1
1a006570:	1a00653d 	.word	0x1a00653d
1a006574:	1a00653d 	.word	0x1a00653d
1a006578:	1a00653d 	.word	0x1a00653d
1a00657c:	1a00653d 	.word	0x1a00653d
1a006580:	1a0066cd 	.word	0x1a0066cd
1a006584:	1a0065f1 	.word	0x1a0065f1
1a006588:	1a0066af 	.word	0x1a0066af
1a00658c:	1a00653d 	.word	0x1a00653d
1a006590:	1a00653d 	.word	0x1a00653d
1a006594:	1a0066ef 	.word	0x1a0066ef
1a006598:	1a00653d 	.word	0x1a00653d
1a00659c:	1a0065f1 	.word	0x1a0065f1
1a0065a0:	1a00653d 	.word	0x1a00653d
1a0065a4:	1a00653d 	.word	0x1a00653d
1a0065a8:	1a0066b7 	.word	0x1a0066b7
1a0065ac:	680b      	ldr	r3, [r1, #0]
1a0065ae:	1d1a      	adds	r2, r3, #4
1a0065b0:	681b      	ldr	r3, [r3, #0]
1a0065b2:	600a      	str	r2, [r1, #0]
1a0065b4:	f104 0642 	add.w	r6, r4, #66	; 0x42
1a0065b8:	f884 3042 	strb.w	r3, [r4, #66]	; 0x42
1a0065bc:	2301      	movs	r3, #1
1a0065be:	e0a3      	b.n	1a006708 <_printf_i+0x1f4>
1a0065c0:	6825      	ldr	r5, [r4, #0]
1a0065c2:	6808      	ldr	r0, [r1, #0]
1a0065c4:	062e      	lsls	r6, r5, #24
1a0065c6:	f100 0304 	add.w	r3, r0, #4
1a0065ca:	d50a      	bpl.n	1a0065e2 <_printf_i+0xce>
1a0065cc:	6805      	ldr	r5, [r0, #0]
1a0065ce:	600b      	str	r3, [r1, #0]
1a0065d0:	2d00      	cmp	r5, #0
1a0065d2:	da03      	bge.n	1a0065dc <_printf_i+0xc8>
1a0065d4:	232d      	movs	r3, #45	; 0x2d
1a0065d6:	426d      	negs	r5, r5
1a0065d8:	f884 3043 	strb.w	r3, [r4, #67]	; 0x43
1a0065dc:	485e      	ldr	r0, [pc, #376]	; (1a006758 <_printf_i+0x244>)
1a0065de:	230a      	movs	r3, #10
1a0065e0:	e019      	b.n	1a006616 <_printf_i+0x102>
1a0065e2:	f015 0f40 	tst.w	r5, #64	; 0x40
1a0065e6:	6805      	ldr	r5, [r0, #0]
1a0065e8:	600b      	str	r3, [r1, #0]
1a0065ea:	bf18      	it	ne
1a0065ec:	b22d      	sxthne	r5, r5
1a0065ee:	e7ef      	b.n	1a0065d0 <_printf_i+0xbc>
1a0065f0:	680b      	ldr	r3, [r1, #0]
1a0065f2:	6825      	ldr	r5, [r4, #0]
1a0065f4:	1d18      	adds	r0, r3, #4
1a0065f6:	6008      	str	r0, [r1, #0]
1a0065f8:	0628      	lsls	r0, r5, #24
1a0065fa:	d501      	bpl.n	1a006600 <_printf_i+0xec>
1a0065fc:	681d      	ldr	r5, [r3, #0]
1a0065fe:	e002      	b.n	1a006606 <_printf_i+0xf2>
1a006600:	0669      	lsls	r1, r5, #25
1a006602:	d5fb      	bpl.n	1a0065fc <_printf_i+0xe8>
1a006604:	881d      	ldrh	r5, [r3, #0]
1a006606:	4854      	ldr	r0, [pc, #336]	; (1a006758 <_printf_i+0x244>)
1a006608:	2f6f      	cmp	r7, #111	; 0x6f
1a00660a:	bf0c      	ite	eq
1a00660c:	2308      	moveq	r3, #8
1a00660e:	230a      	movne	r3, #10
1a006610:	2100      	movs	r1, #0
1a006612:	f884 1043 	strb.w	r1, [r4, #67]	; 0x43
1a006616:	6866      	ldr	r6, [r4, #4]
1a006618:	60a6      	str	r6, [r4, #8]
1a00661a:	2e00      	cmp	r6, #0
1a00661c:	bfa2      	ittt	ge
1a00661e:	6821      	ldrge	r1, [r4, #0]
1a006620:	f021 0104 	bicge.w	r1, r1, #4
1a006624:	6021      	strge	r1, [r4, #0]
1a006626:	b90d      	cbnz	r5, 1a00662c <_printf_i+0x118>
1a006628:	2e00      	cmp	r6, #0
1a00662a:	d04d      	beq.n	1a0066c8 <_printf_i+0x1b4>
1a00662c:	4616      	mov	r6, r2
1a00662e:	fbb5 f1f3 	udiv	r1, r5, r3
1a006632:	fb03 5711 	mls	r7, r3, r1, r5
1a006636:	5dc7      	ldrb	r7, [r0, r7]
1a006638:	f806 7d01 	strb.w	r7, [r6, #-1]!
1a00663c:	462f      	mov	r7, r5
1a00663e:	42bb      	cmp	r3, r7
1a006640:	460d      	mov	r5, r1
1a006642:	d9f4      	bls.n	1a00662e <_printf_i+0x11a>
1a006644:	2b08      	cmp	r3, #8
1a006646:	d10b      	bne.n	1a006660 <_printf_i+0x14c>
1a006648:	6823      	ldr	r3, [r4, #0]
1a00664a:	07df      	lsls	r7, r3, #31
1a00664c:	d508      	bpl.n	1a006660 <_printf_i+0x14c>
1a00664e:	6923      	ldr	r3, [r4, #16]
1a006650:	6861      	ldr	r1, [r4, #4]
1a006652:	4299      	cmp	r1, r3
1a006654:	bfde      	ittt	le
1a006656:	2330      	movle	r3, #48	; 0x30
1a006658:	f806 3c01 	strble.w	r3, [r6, #-1]
1a00665c:	f106 36ff 	addle.w	r6, r6, #4294967295	; 0xffffffff
1a006660:	1b92      	subs	r2, r2, r6
1a006662:	6122      	str	r2, [r4, #16]
1a006664:	f8cd a000 	str.w	sl, [sp]
1a006668:	464b      	mov	r3, r9
1a00666a:	aa03      	add	r2, sp, #12
1a00666c:	4621      	mov	r1, r4
1a00666e:	4640      	mov	r0, r8
1a006670:	f7ff fee2 	bl	1a006438 <_printf_common>
1a006674:	3001      	adds	r0, #1
1a006676:	d14c      	bne.n	1a006712 <_printf_i+0x1fe>
1a006678:	f04f 30ff 	mov.w	r0, #4294967295	; 0xffffffff
1a00667c:	b004      	add	sp, #16
1a00667e:	e8bd 87f0 	ldmia.w	sp!, {r4, r5, r6, r7, r8, r9, sl, pc}
1a006682:	4835      	ldr	r0, [pc, #212]	; (1a006758 <_printf_i+0x244>)
1a006684:	f884 7045 	strb.w	r7, [r4, #69]	; 0x45
1a006688:	6823      	ldr	r3, [r4, #0]
1a00668a:	680e      	ldr	r6, [r1, #0]
1a00668c:	061f      	lsls	r7, r3, #24
1a00668e:	f856 5b04 	ldr.w	r5, [r6], #4
1a006692:	600e      	str	r6, [r1, #0]
1a006694:	d514      	bpl.n	1a0066c0 <_printf_i+0x1ac>
1a006696:	07d9      	lsls	r1, r3, #31
1a006698:	bf44      	itt	mi
1a00669a:	f043 0320 	orrmi.w	r3, r3, #32
1a00669e:	6023      	strmi	r3, [r4, #0]
1a0066a0:	b91d      	cbnz	r5, 1a0066aa <_printf_i+0x196>
1a0066a2:	6823      	ldr	r3, [r4, #0]
1a0066a4:	f023 0320 	bic.w	r3, r3, #32
1a0066a8:	6023      	str	r3, [r4, #0]
1a0066aa:	2310      	movs	r3, #16
1a0066ac:	e7b0      	b.n	1a006610 <_printf_i+0xfc>
1a0066ae:	6823      	ldr	r3, [r4, #0]
1a0066b0:	f043 0320 	orr.w	r3, r3, #32
1a0066b4:	6023      	str	r3, [r4, #0]
1a0066b6:	2378      	movs	r3, #120	; 0x78
1a0066b8:	4828      	ldr	r0, [pc, #160]	; (1a00675c <_printf_i+0x248>)
1a0066ba:	f884 3045 	strb.w	r3, [r4, #69]	; 0x45
1a0066be:	e7e3      	b.n	1a006688 <_printf_i+0x174>
1a0066c0:	065e      	lsls	r6, r3, #25
1a0066c2:	bf48      	it	mi
1a0066c4:	b2ad      	uxthmi	r5, r5
1a0066c6:	e7e6      	b.n	1a006696 <_printf_i+0x182>
1a0066c8:	4616      	mov	r6, r2
1a0066ca:	e7bb      	b.n	1a006644 <_printf_i+0x130>
1a0066cc:	680b      	ldr	r3, [r1, #0]
1a0066ce:	6826      	ldr	r6, [r4, #0]
1a0066d0:	6960      	ldr	r0, [r4, #20]
1a0066d2:	1d1d      	adds	r5, r3, #4
1a0066d4:	600d      	str	r5, [r1, #0]
1a0066d6:	0635      	lsls	r5, r6, #24
1a0066d8:	681b      	ldr	r3, [r3, #0]
1a0066da:	d501      	bpl.n	1a0066e0 <_printf_i+0x1cc>
1a0066dc:	6018      	str	r0, [r3, #0]
1a0066de:	e002      	b.n	1a0066e6 <_printf_i+0x1d2>
1a0066e0:	0671      	lsls	r1, r6, #25
1a0066e2:	d5fb      	bpl.n	1a0066dc <_printf_i+0x1c8>
1a0066e4:	8018      	strh	r0, [r3, #0]
1a0066e6:	2300      	movs	r3, #0
1a0066e8:	6123      	str	r3, [r4, #16]
1a0066ea:	4616      	mov	r6, r2
1a0066ec:	e7ba      	b.n	1a006664 <_printf_i+0x150>
1a0066ee:	680b      	ldr	r3, [r1, #0]
1a0066f0:	1d1a      	adds	r2, r3, #4
1a0066f2:	600a      	str	r2, [r1, #0]
1a0066f4:	681e      	ldr	r6, [r3, #0]
1a0066f6:	6862      	ldr	r2, [r4, #4]
1a0066f8:	2100      	movs	r1, #0
1a0066fa:	4630      	mov	r0, r6
1a0066fc:	f000 f830 	bl	1a006760 <memchr>
1a006700:	b108      	cbz	r0, 1a006706 <_printf_i+0x1f2>
1a006702:	1b80      	subs	r0, r0, r6
1a006704:	6060      	str	r0, [r4, #4]
1a006706:	6863      	ldr	r3, [r4, #4]
1a006708:	6123      	str	r3, [r4, #16]
1a00670a:	2300      	movs	r3, #0
1a00670c:	f884 3043 	strb.w	r3, [r4, #67]	; 0x43
1a006710:	e7a8      	b.n	1a006664 <_printf_i+0x150>
1a006712:	6923      	ldr	r3, [r4, #16]
1a006714:	4632      	mov	r2, r6
1a006716:	4649      	mov	r1, r9
1a006718:	4640      	mov	r0, r8
1a00671a:	47d0      	blx	sl
1a00671c:	3001      	adds	r0, #1
1a00671e:	d0ab      	beq.n	1a006678 <_printf_i+0x164>
1a006720:	6823      	ldr	r3, [r4, #0]
1a006722:	079b      	lsls	r3, r3, #30
1a006724:	d413      	bmi.n	1a00674e <_printf_i+0x23a>
1a006726:	68e0      	ldr	r0, [r4, #12]
1a006728:	9b03      	ldr	r3, [sp, #12]
1a00672a:	4298      	cmp	r0, r3
1a00672c:	bfb8      	it	lt
1a00672e:	4618      	movlt	r0, r3
1a006730:	e7a4      	b.n	1a00667c <_printf_i+0x168>
1a006732:	2301      	movs	r3, #1
1a006734:	4632      	mov	r2, r6
1a006736:	4649      	mov	r1, r9
1a006738:	4640      	mov	r0, r8
1a00673a:	47d0      	blx	sl
1a00673c:	3001      	adds	r0, #1
1a00673e:	d09b      	beq.n	1a006678 <_printf_i+0x164>
1a006740:	3501      	adds	r5, #1
1a006742:	68e3      	ldr	r3, [r4, #12]
1a006744:	9903      	ldr	r1, [sp, #12]
1a006746:	1a5b      	subs	r3, r3, r1
1a006748:	42ab      	cmp	r3, r5
1a00674a:	dcf2      	bgt.n	1a006732 <_printf_i+0x21e>
1a00674c:	e7eb      	b.n	1a006726 <_printf_i+0x212>
1a00674e:	2500      	movs	r5, #0
1a006750:	f104 0619 	add.w	r6, r4, #25
1a006754:	e7f5      	b.n	1a006742 <_printf_i+0x22e>
1a006756:	bf00      	nop
1a006758:	1a007989 	.word	0x1a007989
1a00675c:	1a00799a 	.word	0x1a00799a

1a006760 <memchr>:
1a006760:	f001 01ff 	and.w	r1, r1, #255	; 0xff
1a006764:	2a10      	cmp	r2, #16
1a006766:	db2b      	blt.n	1a0067c0 <memchr+0x60>
1a006768:	f010 0f07 	tst.w	r0, #7
1a00676c:	d008      	beq.n	1a006780 <memchr+0x20>
1a00676e:	f810 3b01 	ldrb.w	r3, [r0], #1
1a006772:	3a01      	subs	r2, #1
1a006774:	428b      	cmp	r3, r1
1a006776:	d02d      	beq.n	1a0067d4 <memchr+0x74>
1a006778:	f010 0f07 	tst.w	r0, #7
1a00677c:	b342      	cbz	r2, 1a0067d0 <memchr+0x70>
1a00677e:	d1f6      	bne.n	1a00676e <memchr+0xe>
1a006780:	b4f0      	push	{r4, r5, r6, r7}
1a006782:	ea41 2101 	orr.w	r1, r1, r1, lsl #8
1a006786:	ea41 4101 	orr.w	r1, r1, r1, lsl #16
1a00678a:	f022 0407 	bic.w	r4, r2, #7
1a00678e:	f07f 0700 	mvns.w	r7, #0
1a006792:	2300      	movs	r3, #0
1a006794:	e8f0 5602 	ldrd	r5, r6, [r0], #8
1a006798:	3c08      	subs	r4, #8
1a00679a:	ea85 0501 	eor.w	r5, r5, r1
1a00679e:	ea86 0601 	eor.w	r6, r6, r1
1a0067a2:	fa85 f547 	uadd8	r5, r5, r7
1a0067a6:	faa3 f587 	sel	r5, r3, r7
1a0067aa:	fa86 f647 	uadd8	r6, r6, r7
1a0067ae:	faa5 f687 	sel	r6, r5, r7
1a0067b2:	b98e      	cbnz	r6, 1a0067d8 <memchr+0x78>
1a0067b4:	d1ee      	bne.n	1a006794 <memchr+0x34>
1a0067b6:	bcf0      	pop	{r4, r5, r6, r7}
1a0067b8:	f001 01ff 	and.w	r1, r1, #255	; 0xff
1a0067bc:	f002 0207 	and.w	r2, r2, #7
1a0067c0:	b132      	cbz	r2, 1a0067d0 <memchr+0x70>
1a0067c2:	f810 3b01 	ldrb.w	r3, [r0], #1
1a0067c6:	3a01      	subs	r2, #1
1a0067c8:	ea83 0301 	eor.w	r3, r3, r1
1a0067cc:	b113      	cbz	r3, 1a0067d4 <memchr+0x74>
1a0067ce:	d1f8      	bne.n	1a0067c2 <memchr+0x62>
1a0067d0:	2000      	movs	r0, #0
1a0067d2:	4770      	bx	lr
1a0067d4:	3801      	subs	r0, #1
1a0067d6:	4770      	bx	lr
1a0067d8:	2d00      	cmp	r5, #0
1a0067da:	bf06      	itte	eq
1a0067dc:	4635      	moveq	r5, r6
1a0067de:	3803      	subeq	r0, #3
1a0067e0:	3807      	subne	r0, #7
1a0067e2:	f015 0f01 	tst.w	r5, #1
1a0067e6:	d107      	bne.n	1a0067f8 <memchr+0x98>
1a0067e8:	3001      	adds	r0, #1
1a0067ea:	f415 7f80 	tst.w	r5, #256	; 0x100
1a0067ee:	bf02      	ittt	eq
1a0067f0:	3001      	addeq	r0, #1
1a0067f2:	f415 3fc0 	tsteq.w	r5, #98304	; 0x18000
1a0067f6:	3001      	addeq	r0, #1
1a0067f8:	bcf0      	pop	{r4, r5, r6, r7}
1a0067fa:	3801      	subs	r0, #1
1a0067fc:	4770      	bx	lr
1a0067fe:	bf00      	nop

1a006800 <memmove>:
1a006800:	4288      	cmp	r0, r1
1a006802:	b510      	push	{r4, lr}
1a006804:	eb01 0402 	add.w	r4, r1, r2
1a006808:	d902      	bls.n	1a006810 <memmove+0x10>
1a00680a:	4284      	cmp	r4, r0
1a00680c:	4623      	mov	r3, r4
1a00680e:	d807      	bhi.n	1a006820 <memmove+0x20>
1a006810:	1e43      	subs	r3, r0, #1
1a006812:	42a1      	cmp	r1, r4
1a006814:	d008      	beq.n	1a006828 <memmove+0x28>
1a006816:	f811 2b01 	ldrb.w	r2, [r1], #1
1a00681a:	f803 2f01 	strb.w	r2, [r3, #1]!
1a00681e:	e7f8      	b.n	1a006812 <memmove+0x12>
1a006820:	4402      	add	r2, r0
1a006822:	4601      	mov	r1, r0
1a006824:	428a      	cmp	r2, r1
1a006826:	d100      	bne.n	1a00682a <memmove+0x2a>
1a006828:	bd10      	pop	{r4, pc}
1a00682a:	f813 4d01 	ldrb.w	r4, [r3, #-1]!
1a00682e:	f802 4d01 	strb.w	r4, [r2, #-1]!
1a006832:	e7f7      	b.n	1a006824 <memmove+0x24>

1a006834 <__malloc_lock>:
1a006834:	4801      	ldr	r0, [pc, #4]	; (1a00683c <__malloc_lock+0x8>)
1a006836:	f7ff bc46 	b.w	1a0060c6 <__retarget_lock_acquire_recursive>
1a00683a:	bf00      	nop
1a00683c:	10000c58 	.word	0x10000c58

1a006840 <__malloc_unlock>:
1a006840:	4801      	ldr	r0, [pc, #4]	; (1a006848 <__malloc_unlock+0x8>)
1a006842:	f7ff bc41 	b.w	1a0060c8 <__retarget_lock_release_recursive>
1a006846:	bf00      	nop
1a006848:	10000c58 	.word	0x10000c58

1a00684c <_free_r>:
1a00684c:	b537      	push	{r0, r1, r2, r4, r5, lr}
1a00684e:	2900      	cmp	r1, #0
1a006850:	d048      	beq.n	1a0068e4 <_free_r+0x98>
1a006852:	f851 3c04 	ldr.w	r3, [r1, #-4]
1a006856:	9001      	str	r0, [sp, #4]
1a006858:	2b00      	cmp	r3, #0
1a00685a:	f1a1 0404 	sub.w	r4, r1, #4
1a00685e:	bfb8      	it	lt
1a006860:	18e4      	addlt	r4, r4, r3
1a006862:	f7ff ffe7 	bl	1a006834 <__malloc_lock>
1a006866:	4a20      	ldr	r2, [pc, #128]	; (1a0068e8 <_free_r+0x9c>)
1a006868:	9801      	ldr	r0, [sp, #4]
1a00686a:	6813      	ldr	r3, [r2, #0]
1a00686c:	4615      	mov	r5, r2
1a00686e:	b933      	cbnz	r3, 1a00687e <_free_r+0x32>
1a006870:	6063      	str	r3, [r4, #4]
1a006872:	6014      	str	r4, [r2, #0]
1a006874:	b003      	add	sp, #12
1a006876:	e8bd 4030 	ldmia.w	sp!, {r4, r5, lr}
1a00687a:	f7ff bfe1 	b.w	1a006840 <__malloc_unlock>
1a00687e:	42a3      	cmp	r3, r4
1a006880:	d90b      	bls.n	1a00689a <_free_r+0x4e>
1a006882:	6821      	ldr	r1, [r4, #0]
1a006884:	1862      	adds	r2, r4, r1
1a006886:	4293      	cmp	r3, r2
1a006888:	bf04      	itt	eq
1a00688a:	681a      	ldreq	r2, [r3, #0]
1a00688c:	685b      	ldreq	r3, [r3, #4]
1a00688e:	6063      	str	r3, [r4, #4]
1a006890:	bf04      	itt	eq
1a006892:	1852      	addeq	r2, r2, r1
1a006894:	6022      	streq	r2, [r4, #0]
1a006896:	602c      	str	r4, [r5, #0]
1a006898:	e7ec      	b.n	1a006874 <_free_r+0x28>
1a00689a:	461a      	mov	r2, r3
1a00689c:	685b      	ldr	r3, [r3, #4]
1a00689e:	b10b      	cbz	r3, 1a0068a4 <_free_r+0x58>
1a0068a0:	42a3      	cmp	r3, r4
1a0068a2:	d9fa      	bls.n	1a00689a <_free_r+0x4e>
1a0068a4:	6811      	ldr	r1, [r2, #0]
1a0068a6:	1855      	adds	r5, r2, r1
1a0068a8:	42a5      	cmp	r5, r4
1a0068aa:	d10b      	bne.n	1a0068c4 <_free_r+0x78>
1a0068ac:	6824      	ldr	r4, [r4, #0]
1a0068ae:	4421      	add	r1, r4
1a0068b0:	1854      	adds	r4, r2, r1
1a0068b2:	42a3      	cmp	r3, r4
1a0068b4:	6011      	str	r1, [r2, #0]
1a0068b6:	d1dd      	bne.n	1a006874 <_free_r+0x28>
1a0068b8:	681c      	ldr	r4, [r3, #0]
1a0068ba:	685b      	ldr	r3, [r3, #4]
1a0068bc:	6053      	str	r3, [r2, #4]
1a0068be:	4421      	add	r1, r4
1a0068c0:	6011      	str	r1, [r2, #0]
1a0068c2:	e7d7      	b.n	1a006874 <_free_r+0x28>
1a0068c4:	d902      	bls.n	1a0068cc <_free_r+0x80>
1a0068c6:	230c      	movs	r3, #12
1a0068c8:	6003      	str	r3, [r0, #0]
1a0068ca:	e7d3      	b.n	1a006874 <_free_r+0x28>
1a0068cc:	6825      	ldr	r5, [r4, #0]
1a0068ce:	1961      	adds	r1, r4, r5
1a0068d0:	428b      	cmp	r3, r1
1a0068d2:	bf04      	itt	eq
1a0068d4:	6819      	ldreq	r1, [r3, #0]
1a0068d6:	685b      	ldreq	r3, [r3, #4]
1a0068d8:	6063      	str	r3, [r4, #4]
1a0068da:	bf04      	itt	eq
1a0068dc:	1949      	addeq	r1, r1, r5
1a0068de:	6021      	streq	r1, [r4, #0]
1a0068e0:	6054      	str	r4, [r2, #4]
1a0068e2:	e7c7      	b.n	1a006874 <_free_r+0x28>
1a0068e4:	b003      	add	sp, #12
1a0068e6:	bd30      	pop	{r4, r5, pc}
1a0068e8:	100005f8 	.word	0x100005f8

1a0068ec <_realloc_r>:
1a0068ec:	b5f8      	push	{r3, r4, r5, r6, r7, lr}
1a0068ee:	4607      	mov	r7, r0
1a0068f0:	4614      	mov	r4, r2
1a0068f2:	460e      	mov	r6, r1
1a0068f4:	b921      	cbnz	r1, 1a006900 <_realloc_r+0x14>
1a0068f6:	e8bd 40f8 	ldmia.w	sp!, {r3, r4, r5, r6, r7, lr}
1a0068fa:	4611      	mov	r1, r2
1a0068fc:	f7ff bbe6 	b.w	1a0060cc <_malloc_r>
1a006900:	b922      	cbnz	r2, 1a00690c <_realloc_r+0x20>
1a006902:	f7ff ffa3 	bl	1a00684c <_free_r>
1a006906:	4625      	mov	r5, r4
1a006908:	4628      	mov	r0, r5
1a00690a:	bdf8      	pop	{r3, r4, r5, r6, r7, pc}
1a00690c:	f000 f814 	bl	1a006938 <_malloc_usable_size_r>
1a006910:	42a0      	cmp	r0, r4
1a006912:	d20f      	bcs.n	1a006934 <_realloc_r+0x48>
1a006914:	4621      	mov	r1, r4
1a006916:	4638      	mov	r0, r7
1a006918:	f7ff fbd8 	bl	1a0060cc <_malloc_r>
1a00691c:	4605      	mov	r5, r0
1a00691e:	2800      	cmp	r0, #0
1a006920:	d0f2      	beq.n	1a006908 <_realloc_r+0x1c>
1a006922:	4631      	mov	r1, r6
1a006924:	4622      	mov	r2, r4
1a006926:	f7ff fb79 	bl	1a00601c <memcpy>
1a00692a:	4631      	mov	r1, r6
1a00692c:	4638      	mov	r0, r7
1a00692e:	f7ff ff8d 	bl	1a00684c <_free_r>
1a006932:	e7e9      	b.n	1a006908 <_realloc_r+0x1c>
1a006934:	4635      	mov	r5, r6
1a006936:	e7e7      	b.n	1a006908 <_realloc_r+0x1c>

1a006938 <_malloc_usable_size_r>:
1a006938:	f851 3c04 	ldr.w	r3, [r1, #-4]
1a00693c:	1f18      	subs	r0, r3, #4
1a00693e:	2b00      	cmp	r3, #0
1a006940:	bfbc      	itt	lt
1a006942:	580b      	ldrlt	r3, [r1, r0]
1a006944:	18c0      	addlt	r0, r0, r3
1a006946:	4770      	bx	lr
1a006948:	00000030 	.word	0x00000030
1a00694c:	0020736d 	.word	0x0020736d
1a006950:	54534554 	.word	0x54534554
1a006954:	6a45203a 	.word	0x6a45203a
1a006958:	74756365 	.word	0x74756365
1a00695c:	6f646e61 	.word	0x6f646e61
1a006960:	73252720 	.word	0x73252720
1a006964:	2e2e2e27 	.word	0x2e2e2e27
1a006968:	ffffff00 	.word	0xffffff00
1a00696c:	0d214b4f 	.word	0x0d214b4f
1a006970:	ffff000a 	.word	0xffff000a
1a006974:	31335b1b 	.word	0x31335b1b
1a006978:	7272456d 	.word	0x7272456d
1a00697c:	203a726f 	.word	0x203a726f
1a006980:	00000000 	.word	0x00000000
1a006984:	6d305b1b 	.word	0x6d305b1b
1a006988:	ffffff00 	.word	0xffffff00
1a00698c:	4f525245 	.word	0x4f525245
1a006990:	69252052 	.word	0x69252052
1a006994:	ffffff00 	.word	0xffffff00
1a006998:	00445353 	.word	0x00445353
1a00699c:	542f7325 	.word	0x542f7325
1a0069a0:	2e545345 	.word	0x2e545345
1a0069a4:	00545854 	.word	0x00545854
1a0069a8:	2d2d0a0d 	.word	0x2d2d0a0d
1a0069ac:	2d2d2d2d 	.word	0x2d2d2d2d
1a0069b0:	2d2d2d2d 	.word	0x2d2d2d2d
1a0069b4:	2d2d2d2d 	.word	0x2d2d2d2d
1a0069b8:	2d2d2d2d 	.word	0x2d2d2d2d
1a0069bc:	2d2d2d2d 	.word	0x2d2d2d2d
1a0069c0:	2d2d2d2d 	.word	0x2d2d2d2d
1a0069c4:	2d2d2d2d 	.word	0x2d2d2d2d
1a0069c8:	2d2d2d2d 	.word	0x2d2d2d2d
1a0069cc:	2d2d2d2d 	.word	0x2d2d2d2d
1a0069d0:	2d2d2d2d 	.word	0x2d2d2d2d
1a0069d4:	0000002d 	.word	0x0000002d
1a0069d8:	54534554 	.word	0x54534554
1a0069dc:	626f7320 	.word	0x626f7320
1a0069e0:	61206572 	.word	0x61206572
1a0069e4:	69686372 	.word	0x69686372
1a0069e8:	27206f76 	.word	0x27206f76
1a0069ec:	2e277325 	.word	0x2e277325
1a0069f0:	00000000 	.word	0x00000000
1a0069f4:	2d2d2d2d 	.word	0x2d2d2d2d
1a0069f8:	2d2d2d2d 	.word	0x2d2d2d2d
1a0069fc:	2d2d2d2d 	.word	0x2d2d2d2d
1a006a00:	2d2d2d2d 	.word	0x2d2d2d2d
1a006a04:	2d2d2d2d 	.word	0x2d2d2d2d
1a006a08:	2d2d2d2d 	.word	0x2d2d2d2d
1a006a0c:	2d2d2d2d 	.word	0x2d2d2d2d
1a006a10:	2d2d2d2d 	.word	0x2d2d2d2d
1a006a14:	2d2d2d2d 	.word	0x2d2d2d2d
1a006a18:	2d2d2d2d 	.word	0x2d2d2d2d
1a006a1c:	002d2d2d 	.word	0x002d2d2d
1a006a20:	706f5f66 	.word	0x706f5f66
1a006a24:	20286e65 	.word	0x20286e65
1a006a28:	54495257 	.word	0x54495257
1a006a2c:	00292045 	.word	0x00292045
1a006a30:	75705f66 	.word	0x75705f66
1a006a34:	00006374 	.word	0x00006374
1a006a38:	7520614c 	.word	0x7520614c
1a006a3c:	6164696e 	.word	0x6164696e
1a006a40:	61622064 	.word	0x61622064
1a006a44:	70206f6a 	.word	0x70206f6a
1a006a48:	62657572 	.word	0x62657572
1a006a4c:	73652061 	.word	0x73652061
1a006a50:	73252720 	.word	0x73252720
1a006a54:	73694c27 	.word	0x73694c27
1a006a58:	64206174 	.word	0x64206174
1a006a5c:	61632065 	.word	0x61632065
1a006a60:	74636172 	.word	0x74636172
1a006a64:	73657265 	.word	0x73657265
1a006a68:	43534120 	.word	0x43534120
1a006a6c:	003a4949 	.word	0x003a4949
1a006a70:	75705f66 	.word	0x75705f66
1a006a74:	00007374 	.word	0x00007374
1a006a78:	353a3332 	.word	0x353a3332
1a006a7c:	39303a34 	.word	0x39303a34
1a006a80:	00000000 	.word	0x00000000
1a006a84:	20706553 	.word	0x20706553
1a006a88:	32203932 	.word	0x32203932
1a006a8c:	00303230 	.word	0x00303230
1a006a90:	65460a0d 	.word	0x65460a0d
1a006a94:	20616863 	.word	0x20616863
1a006a98:	6f682079 	.word	0x6f682079
1a006a9c:	64206172 	.word	0x64206172
1a006aa0:	6f632065 	.word	0x6f632065
1a006aa4:	6c69706d 	.word	0x6c69706d
1a006aa8:	6f696361 	.word	0x6f696361
1a006aac:	6564206e 	.word	0x6564206e
1a006ab0:	7270206c 	.word	0x7270206c
1a006ab4:	6172676f 	.word	0x6172676f
1a006ab8:	203a616d 	.word	0x203a616d
1a006abc:	25207325 	.word	0x25207325
1a006ac0:	450a0d73 	.word	0x450a0d73
1a006ac4:	64617473 	.word	0x64617473
1a006ac8:	6564206f 	.word	0x6564206f
1a006acc:	6c757020 	.word	0x6c757020
1a006ad0:	6f646173 	.word	0x6f646173
1a006ad4:	20736572 	.word	0x20736572
1a006ad8:	20434554 	.word	0x20434554
1a006adc:	20612031 	.word	0x20612031
1a006ae0:	6c612034 	.word	0x6c612034
1a006ae4:	6d6f6d20 	.word	0x6d6f6d20
1a006ae8:	6f746e65 	.word	0x6f746e65
1a006aec:	20656420 	.word	0x20656420
1a006af0:	7020616c 	.word	0x7020616c
1a006af4:	62657572 	.word	0x62657572
1a006af8:	25203a61 	.word	0x25203a61
1a006afc:	25692569 	.word	0x25692569
1a006b00:	0d692569 	.word	0x0d692569
1a006b04:	0000000a 	.word	0x0000000a
1a006b08:	706f5f66 	.word	0x706f5f66
1a006b0c:	20286e65 	.word	0x20286e65
1a006b10:	44414552 	.word	0x44414552
1a006b14:	00002920 	.word	0x00002920
1a006b18:	65725f66 	.word	0x65725f66
1a006b1c:	00006461 	.word	0x00006461
1a006b20:	3e3e3e3e 	.word	0x3e3e3e3e
1a006b24:	494e4920 	.word	0x494e4920
1a006b28:	204f4943 	.word	0x204f4943
1a006b2c:	544e4f43 	.word	0x544e4f43
1a006b30:	44494e45 	.word	0x44494e45
1a006b34:	4544204f 	.word	0x4544204f
1a006b38:	5241204c 	.word	0x5241204c
1a006b3c:	56494843 	.word	0x56494843
1a006b40:	454c204f 	.word	0x454c204f
1a006b44:	204f4449 	.word	0x204f4449
1a006b48:	3e3e3e3e 	.word	0x3e3e3e3e
1a006b4c:	00000a0d 	.word	0x00000a0d
1a006b50:	3c3c3c3c 	.word	0x3c3c3c3c
1a006b54:	4e494620 	.word	0x4e494620
1a006b58:	4e4f4320 	.word	0x4e4f4320
1a006b5c:	494e4554 	.word	0x494e4554
1a006b60:	44204f44 	.word	0x44204f44
1a006b64:	41204c45 	.word	0x41204c45
1a006b68:	49484352 	.word	0x49484352
1a006b6c:	4c204f56 	.word	0x4c204f56
1a006b70:	4f444945 	.word	0x4f444945
1a006b74:	3c3c3c20 	.word	0x3c3c3c20
1a006b78:	000a0d3c 	.word	0x000a0d3c
1a006b7c:	4a325b1b 	.word	0x4a325b1b
1a006b80:	00000000 	.word	0x00000000
1a006b84:	2077654e 	.word	0x2077654e
1a006b88:	746f6f62 	.word	0x746f6f62
1a006b8c:	002e2e2e 	.word	0x002e2e2e
1a006b90:	20433249 	.word	0x20433249
1a006b94:	20737562 	.word	0x20737562
1a006b98:	72617473 	.word	0x72617473
1a006b9c:	00000074 	.word	0x00000074
1a006ba0:	64206f4e 	.word	0x64206f4e
1a006ba4:	63697665 	.word	0x63697665
1a006ba8:	44412065 	.word	0x44412065
1a006bac:	38323143 	.word	0x38323143
1a006bb0:	38313844 	.word	0x38313844
1a006bb4:	20726f20 	.word	0x20726f20
1a006bb8:	69766564 	.word	0x69766564
1a006bbc:	62206563 	.word	0x62206563
1a006bc0:	00797375 	.word	0x00797375
1a006bc4:	63696e49 	.word	0x63696e49
1a006bc8:	646e6169 	.word	0x646e6169
1a006bcc:	6473206f 	.word	0x6473206f
1a006bd0:	64726163 	.word	0x64726163
1a006bd4:	6e6f6320 	.word	0x6e6f6320
1a006bd8:	6e6f6320 	.word	0x6e6f6320
1a006bdc:	75676966 	.word	0x75676966
1a006be0:	69636172 	.word	0x69636172
1a006be4:	003a6e6f 	.word	0x003a6e6f
1a006be8:	202a2020 	.word	0x202a2020
1a006bec:	72617453 	.word	0x72617453
1a006bf0:	676e6974 	.word	0x676e6974
1a006bf4:	65707320 	.word	0x65707320
1a006bf8:	00206465 	.word	0x00206465
1a006bfc:	007a4820 	.word	0x007a4820
1a006c00:	202a2020 	.word	0x202a2020
1a006c04:	6b726f57 	.word	0x6b726f57
1a006c08:	20676e69 	.word	0x20676e69
1a006c0c:	65657073 	.word	0x65657073
1a006c10:	00002064 	.word	0x00002064
1a006c14:	61434453 	.word	0x61434453
1a006c18:	69206472 	.word	0x69206472
1a006c1c:	3a74696e 	.word	0x3a74696e
1a006c20:	49414620 	.word	0x49414620
1a006c24:	00002e4c 	.word	0x00002e4c
1a006c28:	61434453 	.word	0x61434453
1a006c2c:	69206472 	.word	0x69206472
1a006c30:	3a74696e 	.word	0x3a74696e
1a006c34:	63757320 	.word	0x63757320
1a006c38:	73736563 	.word	0x73736563
1a006c3c:	00000000 	.word	0x00000000
1a006c40:	70696843 	.word	0x70696843
1a006c44:	35315520 	.word	0x35315520
1a006c48:	4120202e 	.word	0x4120202e
1a006c4c:	0000234e 	.word	0x0000234e
1a006c50:	0000203a 	.word	0x0000203a
1a006c54:	20202020 	.word	0x20202020
1a006c58:	20202020 	.word	0x20202020
1a006c5c:	20202020 	.word	0x20202020
1a006c60:	20202020 	.word	0x20202020
1a006c64:	20202020 	.word	0x20202020
1a006c68:	20202020 	.word	0x20202020
1a006c6c:	20202020 	.word	0x20202020
1a006c70:	00002020 	.word	0x00002020
1a006c74:	70696843 	.word	0x70696843
1a006c78:	33315520 	.word	0x33315520
1a006c7c:	4120202e 	.word	0x4120202e
1a006c80:	0000234e 	.word	0x0000234e
1a006c84:	70696843 	.word	0x70696843
1a006c88:	33315520 	.word	0x33315520
1a006c8c:	4e41202e 	.word	0x4e41202e
1a006c90:	00000023 	.word	0x00000023
1a006c94:	20202020 	.word	0x20202020
1a006c98:	00000020 	.word	0x00000020
1a006c9c:	3d3d3d3d 	.word	0x3d3d3d3d
1a006ca0:	3d3d3d3d 	.word	0x3d3d3d3d
1a006ca4:	3d3d3d3d 	.word	0x3d3d3d3d
1a006ca8:	3d3d3d3d 	.word	0x3d3d3d3d
1a006cac:	3d3d3d3d 	.word	0x3d3d3d3d
1a006cb0:	3d3d3d3d 	.word	0x3d3d3d3d
1a006cb4:	3d3d3d3d 	.word	0x3d3d3d3d
1a006cb8:	3d3d3d3d 	.word	0x3d3d3d3d
1a006cbc:	3d3d3d3d 	.word	0x3d3d3d3d
1a006cc0:	3d3d3d3d 	.word	0x3d3d3d3d
1a006cc4:	3d3d3d3d 	.word	0x3d3d3d3d
1a006cc8:	0000003d 	.word	0x0000003d
1a006ccc:	61745320 	.word	0x61745320
1a006cd0:	532f7472 	.word	0x532f7472
1a006cd4:	3a706f74 	.word	0x3a706f74
1a006cd8:	65727020 	.word	0x65727020
1a006cdc:	73207373 	.word	0x73207373
1a006ce0:	65636170 	.word	0x65636170
1a006ce4:	00000000 	.word	0x00000000
1a006ce8:	30315b1b 	.word	0x30315b1b
1a006cec:	00004430 	.word	0x00004430
1a006cf0:	38315b1b 	.word	0x38315b1b
1a006cf4:	ffff0041 	.word	0xffff0041
1a006cf8:	459076eb 	.word	0x459076eb
1a006cfc:	54414658 	.word	0x54414658
1a006d00:	00202020 	.word	0x00202020
1a006d04:	00544146 	.word	0x00544146
1a006d08:	33544146 	.word	0x33544146
1a006d0c:	ffff0032 	.word	0xffff0032
1a006d10:	3c3a2a22 	.word	0x3c3a2a22
1a006d14:	7f7c3f3e 	.word	0x7f7c3f3e
1a006d18:	00000000 	.word	0x00000000
1a006d1c:	3d3b2c2b 	.word	0x3d3b2c2b
1a006d20:	ff005d5b 	.word	0xff005d5b
1a006d24:	00434453 	.word	0x00434453
1a006d28:	00425355 	.word	0x00425355

1a006d2c <ExCvt>:
1a006d2c:	41455543 43414141 49454545 41414949     CUEAAAACEEEIIIAA
1a006d3c:	4f929245 55554f4f 4f554f59 9f9e4f9c     E..OOOUUYOUO.O..
1a006d4c:	554f4941 a7a6a5a5 abaaa9a8 afaeadac     AIOU............
1a006d5c:	b3b2b1b0 414141b4 bbbab9b8 bfbebdbc     .....AAA........
1a006d6c:	c3c2c1c0 4141c5c4 cbcac9c8 cfcecdcc     ......AA........
1a006d7c:	4545d1d1 49494945 dbdad949 df49dddc     ..EEEIIII.....I.
1a006d8c:	4f4fe14f e8e64f4f 555555e8 efee5959     O.OOOO...UUUYY..
1a006d9c:	f3f2f1f0 f7f6f5f4 fbfaf9f8 fffefdfc     ................

1a006dac <LfnOfs>:
1a006dac:	07050301 12100e09 1c181614 ffffff1e     ................

1a006dbc <VolumeStr>:
1a006dbc:	1a006d24 1a006d28                       $m..(m..

1a006dc4 <cvt1.5253>:
1a006dc4:	031a0061 031700e0 030700f8 000100ff     a...............
1a006dd4:	01000178 01320130 01390106 014a0110     x...0.2...9...J.
1a006de4:	0179012e 01800106 0243004d 01820181     ..y.....M.C.....
1a006df4:	01840182 01860184 01870187 018a0189     ................
1a006e04:	018b018b 018e018d 0190018f 01910191     ................
1a006e14:	01940193 019601f6 01980197 023d0198     ..............=.
1a006e24:	019c019b 0220019d 01a0019f 01a201a0     ...... .........
1a006e34:	01a401a2 01a601a4 01a701a7 01aa01a9     ................
1a006e44:	01ac01ab 01ae01ac 01af01af 01b201b1     ................
1a006e54:	01b301b3 01b501b5 01b801b7 01ba01b8     ................
1a006e64:	01bc01bb 01be01bc 01c001f7 01c201c1     ................
1a006e74:	01c401c3 01c401c5 01c801c7 01ca01c7     ................
1a006e84:	01ca01cb 011001cd 000101dd 01de018e     ................
1a006e94:	01f30112 01f10003 01f401f4 012801f8     ..............(.
1a006ea4:	01120222 0009023a 023b2c65 023d023b     "...:...e,;.;.=.
1a006eb4:	023f2c66 02410240 02460241 0253010a     f,?.@.A.A.F...S.
1a006ec4:	01810040 02550186 018a0189 018f0258     @.....U.....X...
1a006ed4:	0190025a 025d025c 025f025e 02610193     Z...\.].^._...a.
1a006ee4:	01940262 02650264 02670266 01960197     b...d.e.f.g.....
1a006ef4:	2c62026a 026d026c 019c026e 02710270     j.b,l.m.n...p.q.
1a006f04:	0273019d 019f0274 02770276 02790278     ..s.t...v.w.x.y.
1a006f14:	027b027a 2c64027c 027f027e 028101a6     z.{.|.d,~.......
1a006f24:	01a90282 02850284 02870286 024401ae     ..............D.
1a006f34:	01b201b1 028d0245 028f028e 02910290     ....E...........
1a006f44:	037b01b7 03fd0003 03ff03fe 000403ac     ..{.............
1a006f54:	03880386 038a0389 031103b1 000203c2     ................
1a006f64:	03a303a3 030803c4 000303cc 038e038c     ................
1a006f74:	03d8038f 03f20118 03f9000a 03f403f3     ................
1a006f84:	03f603f5 03f703f7 03fa03f9 043003fa     ..............0.
1a006f94:	04500320 04600710 048a0122 04c10136      .P...`."...6...
1a006fa4:	04cf010e 04c00001 014404d0 04260561     ..........D.a.&.
1a006fb4:	ffff0000                                ....

1a006fb8 <cvt2.5254>:
1a006fb8:	00011d7d 1e002c63 1ea00196 1f00015a     }...c,......Z...
1a006fc8:	1f100608 1f200606 1f300608 1f400608     ...... ...0...@.
1a006fd8:	1f510606 1f590007 1f5b1f52 1f5d1f54     ..Q...Y.R.[.T.].
1a006fe8:	1f5f1f56 06081f60 000e1f70 1fbb1fba     V._.`...p.......
1a006ff8:	1fc91fc8 1fcb1fca 1fdb1fda 1ff91ff8     ................
1a007008:	1feb1fea 1ffb1ffa 06081f80 06081f90     ................
1a007018:	06081fa0 00041fb0 1fb91fb8 1fbc1fb2     ................
1a007028:	00011fcc 1fd01fc3 1fe00602 1fe50602     ................
1a007038:	1fec0001 00011ff3 214e1ffc 21320001     ..........N!..2!
1a007048:	02102170 00012184 24d02183 2c30051a     p!...!...!.$..0,
1a007058:	2c60042f 2c670102 2c750106 2c800102     /.`,..g,..u,...,
1a007068:	2d000164 ff410826 0000031a              d..-&.A.....

1a007074 <uc850>:
1a007074:	00fc00c7 00e200e9 00e000e4 00e700e5     ................
1a007084:	00eb00ea 00ef00e8 00ec00ee 00c500c4     ................
1a007094:	00e600c9 00f400c6 00f200f6 00f900fb     ................
1a0070a4:	00d600ff 00f800dc 00d800a3 019200d7     ................
1a0070b4:	00ed00e1 00fa00f3 00d100f1 00ba00aa     ................
1a0070c4:	00ae00bf 00bd00ac 00a100bc 00bb00ab     ................
1a0070d4:	25922591 25022593 00c12524 00c000c2     .%.%.%.%$%......
1a0070e4:	256300a9 25572551 00a2255d 251000a5     ..c%Q%W%]%.....%
1a0070f4:	25342514 251c252c 253c2500 00c300e3     .%4%,%.%.%<%....
1a007104:	2554255a 25662569 25502560 00a4256c     Z%T%i%f%`%P%l%..
1a007114:	00d000f0 00cb00ca 013100c8 00ce00cd     ..........1.....
1a007124:	251800cf 2588250c 00a62584 258000cc     ...%.%.%.%.....%
1a007134:	00df00d3 00d200d4 00d500f5 00fe00b5     ................
1a007144:	00da00de 00d900db 00dd00fd 00b400af     ................
1a007154:	00b100ad 00be2017 00a700b6 00b800f7     ..... ..........
1a007164:	00a800b0 00b900b7 00b200b3 00a025a0     .............%..
1a007174:	3a434453 ffffff00 69706173 6364735f     SDC:....sapi_sdc
1a007184:	3a647261 74754120 756f6d6f 6620746e     ard: Automount f
1a007194:	656c6961 0a0d2164 ffffff00 72617453     ailed!......Star
1a0071a4:	44412074 38323143 38313844 206e6f20     t ADC128D818 on 
1a0071b4:	72646461 20737365 00000000 00000068     address ....h...
1a0071c4:	74696157 726f6620 746f6e20 73756220     Wait for not bus
1a0071d4:	44412079 38323143 38313844 6d697420     y ADC128D818 tim
1a0071e4:	74756f65 00000000 6157203e 66207469     eout....> Wait f
1a0071f4:	6420726f 63697665 6f6e2065 75622074     or device not bu
1a007204:	202e7973 61697254 0023206c 203e3e3e     sy. Trial #.>>> 
1a007214:	79737542 61745320 20737574 69676552     Busy Status Regi
1a007224:	72657473 6c617620 203a6575 00000000     ster value: ....
1a007234:	6553203e 6e697474 64412067 636e6176     > Setting Advanc
1a007244:	43206465 69666e6f 61727567 6e6f6974     ed Configuration
1a007254:	67655220 65747369 00000072 20202020      Register...    
1a007264:	676e6953 6520656c 6465646e 74697720     Single ended wit
1a007274:	65742068 3a2e706d 304e4920 4e492e2e     h temp.: IN0..IN
1a007284:	6c702036 74207375 00706d65 20202020     6 plus temp.    
1a007294:	676e6953 6520656c 6465646e 4e49203a     Single ended: IN
1a0072a4:	492e2e30 0000374e 20202020 66666944     0..IN7..    Diff
1a0072b4:	6e657265 6c616974 4e49203a 4e492d30     erential: IN0-IN
1a0072c4:	49202c31 492d334e 202c324e 2d344e49     1, IN3-IN2, IN4-
1a0072d4:	2c354e49 374e4920 364e492d 00000000     IN5, IN7-IN6....
1a0072e4:	20202020 6578694d 49203a64 2e2e304e         Mixed: IN0..
1a0072f4:	2c334e49 344e4920 354e492d 4e49202c     IN3, IN4-IN5, IN
1a007304:	4e492d37 00000036 20202020 65746e49     7-IN6...    Inte
1a007314:	6c616e72 6c6f5620 65676174 66655220     rnal Voltage Ref
1a007324:	6e657265 00006563 20202020 65747845     erence..    Exte
1a007334:	6c616e72 6c6f5620 65676174 66655220     rnal Voltage Ref
1a007344:	6e657265 00006563 6553203e 6e697474     erence..> Settin
1a007354:	6f432067 7265766e 6e6f6974 74615220     g Convertion Rat
1a007364:	00000065 20202020 20776f4c 65776f50     e...    Low Powe
1a007374:	00000072 20202020 746e6f43 6f756e69     r...    Continuo
1a007384:	00007375 20202020 20656e4f 746f6853     us..    One Shot
1a007394:	ffffff00                                ....

1a007398 <ultrasonicSensorsIrqMap>:
1a007398:	ff020100 7778797a 73747576 6f707172     ....zyxwvutsrqpo
1a0073a8:	6b6c6d6e 6768696a 63646566 38396162     nmlkjihgfedcba98
1a0073b8:	34353637 30313233 34333231 38373635     7654321012345678
1a0073c8:	63626139 67666564 6b6a6968 6f6e6d6c     9abcdefghijklmno
1a0073d8:	73727170 77767574 007a7978              pqrstuvwxyz.

1a0073e4 <gpioPinsInit>:
1a0073e4:	02000104 00050701 05010d03 04080100     ................
1a0073f4:	02020002 02000304 00000403 04070002     ................
1a007404:	030c0300 09050402 05040103 04030208     ................
1a007414:	04020305 06040504 0802000c 03000b06     ................
1a007424:	00090607 07060503 060f0504 03030004     ................
1a007434:	02000404 00050404 06040502 04060200     ................
1a007444:	0c050408 05040a04 0003010e 14010a00     ................
1a007454:	010f0000 0d000012 00001101 0010010c     ................
1a007464:	07070300 000f0300 01000001 00000000     ................
1a007474:	000a0600 08060603 06100504 04030005     ................
1a007484:	03000106 04090400 04010d05 010b0000     ................
1a007494:	0200000f 00000001 00010104 02010800     ................
1a0074a4:	01090000 09010006 05040002 04010200     ................
1a0074b4:	02020105 02020504 0e00000a 01000b02     ................
1a0074c4:	000c020b 00040c01 04000200 01020001     ................
1a0074d4:	02000204 00030402 03070302 070b0300     ................
1a0074e4:	0c030004 03000507 0006070d 04040e03     ................
1a0074f4:	04040200 05020005 02000604 00010206     ................
1a007504:	08040105 040c0504 0d050409 05040a04     ................
1a007514:	0005010e 03010801 010a0005 0b000504     ................
1a007524:	0000040f 04070600 ffff0f05              ............

1a007530 <lpcUarts>:
1a007530:	40081000 06020406 00180205 40081000     ...@...........@
1a007540:	09070509 00180706 40082000 00000000     ......... .@....
1a007550:	00190000 400c1000 07060107 001a0602     .......@........
1a007560:	400c1000 01010f01 001a0110 400c2000     ...@......... .@
1a007570:	02020302 001b0204                       ........

1a007578 <ExtRateIn>:
1a007578:	00000000                                ....

1a00757c <OscRateIn>:
1a00757c:	00b71b00                                ....

1a007580 <gpioDOUTBits>:
1a007580:	06020105 04020502 0d050c05 08010e05     ................

1a007590 <InitClkStates>:
1a007590:	00010308 00010307 01010f01              ............

1a00759c <pinmuxing>:
1a00759c:	00440002 00440102 00440202 00400a02     ..D...D...D...@.
1a0075ac:	00400b02 00400c02 00500001 00500101     ..@...@...P...P.
1a0075bc:	00500201 00500601 00500106 00500406     ..P...P...P...P.
1a0075cc:	00500506 00540706 00540806 00500906     ..P...T...T...P.
1a0075dc:	00500a06 00500b06 00500c06 00f0040f     ..P...P...P.....
1a0075ec:	00d50301 00d50401 00160107 00560207     ..............V.
1a0075fc:	00520302 00520402 00520509 00570609     ..R...R...R...W.
1a00760c:	00570206 00f30f01 00f71001 00f31101     ..W.............
1a00761c:	00b31201 00f01301 00b31401 00b60707     ................
1a00762c:	00f20000 00b60100                       ........

1a007634 <UART_BClock>:
1a007634:	01a201c2 01620182                       ......b.

1a00763c <UART_PClock>:
1a00763c:	00820081 00a200a1 0f0f0f03 ffff00ff     ................

1a00764c <periph_to_base>:
1a00764c:	00050000 0020000a 00090024 00400040     ...... .$...@.@.
1a00765c:	00600005 000400a6 00c300c0 00e00002     ..`.............
1a00766c:	000100e0 01000100 01200003 00060120     .......... . ...
1a00767c:	01400140 0142000c 00190142 01620162     @.@...B.B...b.b.
1a00768c:	01820013 00120182 01a201a2 01c20011     ................
1a00769c:	001001c2 01e201e2 0202000f 000e0202     ................
1a0076ac:	02220222 0223000d 001c0223              "."...#.#...

1a0076b8 <InitClkStates>:
1a0076b8:	00010100 00010909 0001090a 01010701     ................
1a0076c8:	00010902 00010906 0101090c 0001090d     ................
1a0076d8:	0001090e 0001090f 00010910 00010911     ................
1a0076e8:	00010912 00010913 00011114 00011119     ................
1a0076f8:	0001111a 0001111b 44535346 5b203a43     ........FSSDC: [
1a007708:	74696e49 6f4e205d 72616320 6e692064     Init] No card in
1a007718:	636f7320 2e74656b 00000a0d 44535346      socket.....FSSD
1a007728:	5b203a43 74696e49 6e49205d 61697469     C: [Init] Initia
1a007738:	617a696c 6e6f6974 67656220 2e736e69     lization begins.
1a007748:	00000a0d 44535346 5b203a43 74696e49     ....FSSDC: [Init
1a007758:	654e205d 61632077 73206472 75746174     ] New card statu
1a007768:	4e203a73 76697461 6f4d2065 0d2e6564     s: Native Mode..
1a007778:	0000000a 44535346 5b203a43 74696e49     ....FSSDC: [Init
1a007788:	654e205d 61632077 73206472 75746174     ] New card statu
1a007798:	49203a73 6974696e 7a696c61 2e676e69     s: Initializing.
1a0077a8:	00000a0d 44535346 5b203a43 74696e49     ....FSSDC: [Init
1a0077b8:	654e205d 61632077 73206472 75746174     ] New card statu
1a0077c8:	52203a73 79646165 61462820 43207473     s: Ready (Fast C
1a0077d8:	6b636f6c 0a0d2e29 00000000 44535346     lock).......FSSD
1a0077e8:	5b203a43 74696e49 654e205d 61632077     C: [Init] New ca
1a0077f8:	73206472 75746174 45203a73 726f7272     rd status: Error
1a007808:	6f4e2820 6e492074 61697469 657a696c      (Not Initialize
1a007818:	0d2e2964 ffff000a 44535346 5b203a43     d)......FSSDC: [
1a007828:	64616552 6143205d 6e206472 6920746f     Read] Card not i
1a007838:	6974696e 7a696c61 0d2e6465 ffff000a     nitialized......
1a007848:	44535346 5b203a43 74697257 43205d65     FSSDC: [Write] C
1a007858:	20647261 20746f6e 74696e69 696c6169     ard not initiali
1a007868:	2e64657a 00000a0d 44535346 5b203a43     zed.....FSSDC: [
1a007878:	74697257 43205d65 20647261 77207369     Write] Card is w
1a007888:	65746972 6f727020 74636574 0d2e6465     rite protected..
1a007898:	ffff000a 44535346 5b203a43 74434f49     ....FSSDC: [IOCt
1a0078a8:	43205d6c 20647261 20746f6e 74696e69     l] Card not init
1a0078b8:	696c6169 2e64657a 00000a0d 44535346     ialized.....FSSD
1a0078c8:	5b203a43 74434f49 52205d6c 72757465     C: [IOCtl] Retur
1a0078d8:	676e696e 72724520 0d2e726f ffff000a     ning Error......
1a0078e8:	44535346 5b203a43 74696e49 5d495053     FSSDC: [InitSPI]
1a0078f8:	77654e20 72616320 74732064 73757461      New card status
1a007908:	6e49203a 74726573 0d2e6465 ffff000a     : Inserted......

1a007918 <__sf_fake_stderr>:
	...

1a007938 <__sf_fake_stdin>:
	...

1a007958 <__sf_fake_stdout>:
	...
1a007978:	2b302d23 6c680020 6665004c 47464567     #-0+ .hlL.efgEFG
1a007988:	32313000 36353433 41393837 45444342     .0123456789ABCDE
1a007998:	31300046 35343332 39383736 64636261     F.0123456789abcd
1a0079a8:	ff006665                                ef..
